
WELDER.elf:     file format elf32-littlearm

Sections:
Idx Name          Size      VMA       LMA       File off  Algn
  0 .isr_vector   000001e4  08000000  08000000  00010000  2**0
                  CONTENTS, ALLOC, LOAD, READONLY, DATA
  1 .text         0000913c  080001f0  080001f0  000101f0  2**4
                  CONTENTS, ALLOC, LOAD, READONLY, CODE
  2 .rodata       000000e8  0800932c  0800932c  0001932c  2**2
                  CONTENTS, ALLOC, LOAD, READONLY, DATA
  3 .ARM.extab    00000000  08009414  08009414  00020010  2**0
                  CONTENTS
  4 .ARM          00000000  08009414  08009414  00020010  2**0
                  CONTENTS
  5 .preinit_array 00000000  08009414  08009414  00020010  2**0
                  CONTENTS, ALLOC, LOAD, DATA
  6 .init_array   00000004  08009414  08009414  00019414  2**2
                  CONTENTS, ALLOC, LOAD, DATA
  7 .fini_array   00000004  08009418  08009418  00019418  2**2
                  CONTENTS, ALLOC, LOAD, DATA
  8 .data         00000010  20000000  0800941c  00020000  2**2
                  CONTENTS, ALLOC, LOAD, DATA
  9 .bss          00004ec8  20000010  0800942c  00020010  2**3
                  ALLOC
 10 ._user_heap_stack 00000c00  20004ed8  0800942c  00024ed8  2**0
                  ALLOC
 11 .ARM.attributes 00000029  00000000  00000000  00020010  2**0
                  CONTENTS, READONLY
 12 .debug_info   0001bd07  00000000  00000000  00020039  2**0
                  CONTENTS, READONLY, DEBUGGING, OCTETS
 13 .debug_abbrev 00003d49  00000000  00000000  0003bd40  2**0
                  CONTENTS, READONLY, DEBUGGING, OCTETS
 14 .debug_aranges 000015c8  00000000  00000000  0003fa90  2**3
                  CONTENTS, READONLY, DEBUGGING, OCTETS
 15 .debug_ranges 00001420  00000000  00000000  00041058  2**3
                  CONTENTS, READONLY, DEBUGGING, OCTETS
 16 .debug_macro  0001b8bc  00000000  00000000  00042478  2**0
                  CONTENTS, READONLY, DEBUGGING, OCTETS
 17 .debug_line   00018852  00000000  00000000  0005dd34  2**0
                  CONTENTS, READONLY, DEBUGGING, OCTETS
 18 .debug_str    000a2686  00000000  00000000  00076586  2**0
                  CONTENTS, READONLY, DEBUGGING, OCTETS
 19 .comment      00000053  00000000  00000000  00118c0c  2**0
                  CONTENTS, READONLY
 20 .debug_frame  00005ac4  00000000  00000000  00118c60  2**2
                  CONTENTS, READONLY, DEBUGGING, OCTETS

Disassembly of section .text:

080001f0 <__do_global_dtors_aux>:
 80001f0:	b510      	push	{r4, lr}
 80001f2:	4c05      	ldr	r4, [pc, #20]	; (8000208 <__do_global_dtors_aux+0x18>)
 80001f4:	7823      	ldrb	r3, [r4, #0]
 80001f6:	b933      	cbnz	r3, 8000206 <__do_global_dtors_aux+0x16>
 80001f8:	4b04      	ldr	r3, [pc, #16]	; (800020c <__do_global_dtors_aux+0x1c>)
 80001fa:	b113      	cbz	r3, 8000202 <__do_global_dtors_aux+0x12>
 80001fc:	4804      	ldr	r0, [pc, #16]	; (8000210 <__do_global_dtors_aux+0x20>)
 80001fe:	f3af 8000 	nop.w
 8000202:	2301      	movs	r3, #1
 8000204:	7023      	strb	r3, [r4, #0]
 8000206:	bd10      	pop	{r4, pc}
 8000208:	20000010 	.word	0x20000010
 800020c:	00000000 	.word	0x00000000
 8000210:	08009314 	.word	0x08009314

08000214 <frame_dummy>:
 8000214:	b508      	push	{r3, lr}
 8000216:	4b03      	ldr	r3, [pc, #12]	; (8000224 <frame_dummy+0x10>)
 8000218:	b11b      	cbz	r3, 8000222 <frame_dummy+0xe>
 800021a:	4903      	ldr	r1, [pc, #12]	; (8000228 <frame_dummy+0x14>)
 800021c:	4803      	ldr	r0, [pc, #12]	; (800022c <frame_dummy+0x18>)
 800021e:	f3af 8000 	nop.w
 8000222:	bd08      	pop	{r3, pc}
 8000224:	00000000 	.word	0x00000000
 8000228:	20000014 	.word	0x20000014
 800022c:	08009314 	.word	0x08009314

08000230 <__aeabi_drsub>:
 8000230:	f081 4100 	eor.w	r1, r1, #2147483648	; 0x80000000
 8000234:	e002      	b.n	800023c <__adddf3>
 8000236:	bf00      	nop

08000238 <__aeabi_dsub>:
 8000238:	f083 4300 	eor.w	r3, r3, #2147483648	; 0x80000000

0800023c <__adddf3>:
 800023c:	b530      	push	{r4, r5, lr}
 800023e:	ea4f 0441 	mov.w	r4, r1, lsl #1
 8000242:	ea4f 0543 	mov.w	r5, r3, lsl #1
 8000246:	ea94 0f05 	teq	r4, r5
 800024a:	bf08      	it	eq
 800024c:	ea90 0f02 	teqeq	r0, r2
 8000250:	bf1f      	itttt	ne
 8000252:	ea54 0c00 	orrsne.w	ip, r4, r0
 8000256:	ea55 0c02 	orrsne.w	ip, r5, r2
 800025a:	ea7f 5c64 	mvnsne.w	ip, r4, asr #21
 800025e:	ea7f 5c65 	mvnsne.w	ip, r5, asr #21
 8000262:	f000 80e2 	beq.w	800042a <__adddf3+0x1ee>
 8000266:	ea4f 5454 	mov.w	r4, r4, lsr #21
 800026a:	ebd4 5555 	rsbs	r5, r4, r5, lsr #21
 800026e:	bfb8      	it	lt
 8000270:	426d      	neglt	r5, r5
 8000272:	dd0c      	ble.n	800028e <__adddf3+0x52>
 8000274:	442c      	add	r4, r5
 8000276:	ea80 0202 	eor.w	r2, r0, r2
 800027a:	ea81 0303 	eor.w	r3, r1, r3
 800027e:	ea82 0000 	eor.w	r0, r2, r0
 8000282:	ea83 0101 	eor.w	r1, r3, r1
 8000286:	ea80 0202 	eor.w	r2, r0, r2
 800028a:	ea81 0303 	eor.w	r3, r1, r3
 800028e:	2d36      	cmp	r5, #54	; 0x36
 8000290:	bf88      	it	hi
 8000292:	bd30      	pophi	{r4, r5, pc}
 8000294:	f011 4f00 	tst.w	r1, #2147483648	; 0x80000000
 8000298:	ea4f 3101 	mov.w	r1, r1, lsl #12
 800029c:	f44f 1c80 	mov.w	ip, #1048576	; 0x100000
 80002a0:	ea4c 3111 	orr.w	r1, ip, r1, lsr #12
 80002a4:	d002      	beq.n	80002ac <__adddf3+0x70>
 80002a6:	4240      	negs	r0, r0
 80002a8:	eb61 0141 	sbc.w	r1, r1, r1, lsl #1
 80002ac:	f013 4f00 	tst.w	r3, #2147483648	; 0x80000000
 80002b0:	ea4f 3303 	mov.w	r3, r3, lsl #12
 80002b4:	ea4c 3313 	orr.w	r3, ip, r3, lsr #12
 80002b8:	d002      	beq.n	80002c0 <__adddf3+0x84>
 80002ba:	4252      	negs	r2, r2
 80002bc:	eb63 0343 	sbc.w	r3, r3, r3, lsl #1
 80002c0:	ea94 0f05 	teq	r4, r5
 80002c4:	f000 80a7 	beq.w	8000416 <__adddf3+0x1da>
 80002c8:	f1a4 0401 	sub.w	r4, r4, #1
 80002cc:	f1d5 0e20 	rsbs	lr, r5, #32
 80002d0:	db0d      	blt.n	80002ee <__adddf3+0xb2>
 80002d2:	fa02 fc0e 	lsl.w	ip, r2, lr
 80002d6:	fa22 f205 	lsr.w	r2, r2, r5
 80002da:	1880      	adds	r0, r0, r2
 80002dc:	f141 0100 	adc.w	r1, r1, #0
 80002e0:	fa03 f20e 	lsl.w	r2, r3, lr
 80002e4:	1880      	adds	r0, r0, r2
 80002e6:	fa43 f305 	asr.w	r3, r3, r5
 80002ea:	4159      	adcs	r1, r3
 80002ec:	e00e      	b.n	800030c <__adddf3+0xd0>
 80002ee:	f1a5 0520 	sub.w	r5, r5, #32
 80002f2:	f10e 0e20 	add.w	lr, lr, #32
 80002f6:	2a01      	cmp	r2, #1
 80002f8:	fa03 fc0e 	lsl.w	ip, r3, lr
 80002fc:	bf28      	it	cs
 80002fe:	f04c 0c02 	orrcs.w	ip, ip, #2
 8000302:	fa43 f305 	asr.w	r3, r3, r5
 8000306:	18c0      	adds	r0, r0, r3
 8000308:	eb51 71e3 	adcs.w	r1, r1, r3, asr #31
 800030c:	f001 4500 	and.w	r5, r1, #2147483648	; 0x80000000
 8000310:	d507      	bpl.n	8000322 <__adddf3+0xe6>
 8000312:	f04f 0e00 	mov.w	lr, #0
 8000316:	f1dc 0c00 	rsbs	ip, ip, #0
 800031a:	eb7e 0000 	sbcs.w	r0, lr, r0
 800031e:	eb6e 0101 	sbc.w	r1, lr, r1
 8000322:	f5b1 1f80 	cmp.w	r1, #1048576	; 0x100000
 8000326:	d31b      	bcc.n	8000360 <__adddf3+0x124>
 8000328:	f5b1 1f00 	cmp.w	r1, #2097152	; 0x200000
 800032c:	d30c      	bcc.n	8000348 <__adddf3+0x10c>
 800032e:	0849      	lsrs	r1, r1, #1
 8000330:	ea5f 0030 	movs.w	r0, r0, rrx
 8000334:	ea4f 0c3c 	mov.w	ip, ip, rrx
 8000338:	f104 0401 	add.w	r4, r4, #1
 800033c:	ea4f 5244 	mov.w	r2, r4, lsl #21
 8000340:	f512 0f80 	cmn.w	r2, #4194304	; 0x400000
 8000344:	f080 809a 	bcs.w	800047c <__adddf3+0x240>
 8000348:	f1bc 4f00 	cmp.w	ip, #2147483648	; 0x80000000
 800034c:	bf08      	it	eq
 800034e:	ea5f 0c50 	movseq.w	ip, r0, lsr #1
 8000352:	f150 0000 	adcs.w	r0, r0, #0
 8000356:	eb41 5104 	adc.w	r1, r1, r4, lsl #20
 800035a:	ea41 0105 	orr.w	r1, r1, r5
 800035e:	bd30      	pop	{r4, r5, pc}
 8000360:	ea5f 0c4c 	movs.w	ip, ip, lsl #1
 8000364:	4140      	adcs	r0, r0
 8000366:	eb41 0101 	adc.w	r1, r1, r1
 800036a:	3c01      	subs	r4, #1
 800036c:	bf28      	it	cs
 800036e:	f5b1 1f80 	cmpcs.w	r1, #1048576	; 0x100000
 8000372:	d2e9      	bcs.n	8000348 <__adddf3+0x10c>
 8000374:	f091 0f00 	teq	r1, #0
 8000378:	bf04      	itt	eq
 800037a:	4601      	moveq	r1, r0
 800037c:	2000      	moveq	r0, #0
 800037e:	fab1 f381 	clz	r3, r1
 8000382:	bf08      	it	eq
 8000384:	3320      	addeq	r3, #32
 8000386:	f1a3 030b 	sub.w	r3, r3, #11
 800038a:	f1b3 0220 	subs.w	r2, r3, #32
 800038e:	da0c      	bge.n	80003aa <__adddf3+0x16e>
 8000390:	320c      	adds	r2, #12
 8000392:	dd08      	ble.n	80003a6 <__adddf3+0x16a>
 8000394:	f102 0c14 	add.w	ip, r2, #20
 8000398:	f1c2 020c 	rsb	r2, r2, #12
 800039c:	fa01 f00c 	lsl.w	r0, r1, ip
 80003a0:	fa21 f102 	lsr.w	r1, r1, r2
 80003a4:	e00c      	b.n	80003c0 <__adddf3+0x184>
 80003a6:	f102 0214 	add.w	r2, r2, #20
 80003aa:	bfd8      	it	le
 80003ac:	f1c2 0c20 	rsble	ip, r2, #32
 80003b0:	fa01 f102 	lsl.w	r1, r1, r2
 80003b4:	fa20 fc0c 	lsr.w	ip, r0, ip
 80003b8:	bfdc      	itt	le
 80003ba:	ea41 010c 	orrle.w	r1, r1, ip
 80003be:	4090      	lslle	r0, r2
 80003c0:	1ae4      	subs	r4, r4, r3
 80003c2:	bfa2      	ittt	ge
 80003c4:	eb01 5104 	addge.w	r1, r1, r4, lsl #20
 80003c8:	4329      	orrge	r1, r5
 80003ca:	bd30      	popge	{r4, r5, pc}
 80003cc:	ea6f 0404 	mvn.w	r4, r4
 80003d0:	3c1f      	subs	r4, #31
 80003d2:	da1c      	bge.n	800040e <__adddf3+0x1d2>
 80003d4:	340c      	adds	r4, #12
 80003d6:	dc0e      	bgt.n	80003f6 <__adddf3+0x1ba>
 80003d8:	f104 0414 	add.w	r4, r4, #20
 80003dc:	f1c4 0220 	rsb	r2, r4, #32
 80003e0:	fa20 f004 	lsr.w	r0, r0, r4
 80003e4:	fa01 f302 	lsl.w	r3, r1, r2
 80003e8:	ea40 0003 	orr.w	r0, r0, r3
 80003ec:	fa21 f304 	lsr.w	r3, r1, r4
 80003f0:	ea45 0103 	orr.w	r1, r5, r3
 80003f4:	bd30      	pop	{r4, r5, pc}
 80003f6:	f1c4 040c 	rsb	r4, r4, #12
 80003fa:	f1c4 0220 	rsb	r2, r4, #32
 80003fe:	fa20 f002 	lsr.w	r0, r0, r2
 8000402:	fa01 f304 	lsl.w	r3, r1, r4
 8000406:	ea40 0003 	orr.w	r0, r0, r3
 800040a:	4629      	mov	r1, r5
 800040c:	bd30      	pop	{r4, r5, pc}
 800040e:	fa21 f004 	lsr.w	r0, r1, r4
 8000412:	4629      	mov	r1, r5
 8000414:	bd30      	pop	{r4, r5, pc}
 8000416:	f094 0f00 	teq	r4, #0
 800041a:	f483 1380 	eor.w	r3, r3, #1048576	; 0x100000
 800041e:	bf06      	itte	eq
 8000420:	f481 1180 	eoreq.w	r1, r1, #1048576	; 0x100000
 8000424:	3401      	addeq	r4, #1
 8000426:	3d01      	subne	r5, #1
 8000428:	e74e      	b.n	80002c8 <__adddf3+0x8c>
 800042a:	ea7f 5c64 	mvns.w	ip, r4, asr #21
 800042e:	bf18      	it	ne
 8000430:	ea7f 5c65 	mvnsne.w	ip, r5, asr #21
 8000434:	d029      	beq.n	800048a <__adddf3+0x24e>
 8000436:	ea94 0f05 	teq	r4, r5
 800043a:	bf08      	it	eq
 800043c:	ea90 0f02 	teqeq	r0, r2
 8000440:	d005      	beq.n	800044e <__adddf3+0x212>
 8000442:	ea54 0c00 	orrs.w	ip, r4, r0
 8000446:	bf04      	itt	eq
 8000448:	4619      	moveq	r1, r3
 800044a:	4610      	moveq	r0, r2
 800044c:	bd30      	pop	{r4, r5, pc}
 800044e:	ea91 0f03 	teq	r1, r3
 8000452:	bf1e      	ittt	ne
 8000454:	2100      	movne	r1, #0
 8000456:	2000      	movne	r0, #0
 8000458:	bd30      	popne	{r4, r5, pc}
 800045a:	ea5f 5c54 	movs.w	ip, r4, lsr #21
 800045e:	d105      	bne.n	800046c <__adddf3+0x230>
 8000460:	0040      	lsls	r0, r0, #1
 8000462:	4149      	adcs	r1, r1
 8000464:	bf28      	it	cs
 8000466:	f041 4100 	orrcs.w	r1, r1, #2147483648	; 0x80000000
 800046a:	bd30      	pop	{r4, r5, pc}
 800046c:	f514 0480 	adds.w	r4, r4, #4194304	; 0x400000
 8000470:	bf3c      	itt	cc
 8000472:	f501 1180 	addcc.w	r1, r1, #1048576	; 0x100000
 8000476:	bd30      	popcc	{r4, r5, pc}
 8000478:	f001 4500 	and.w	r5, r1, #2147483648	; 0x80000000
 800047c:	f045 41fe 	orr.w	r1, r5, #2130706432	; 0x7f000000
 8000480:	f441 0170 	orr.w	r1, r1, #15728640	; 0xf00000
 8000484:	f04f 0000 	mov.w	r0, #0
 8000488:	bd30      	pop	{r4, r5, pc}
 800048a:	ea7f 5c64 	mvns.w	ip, r4, asr #21
 800048e:	bf1a      	itte	ne
 8000490:	4619      	movne	r1, r3
 8000492:	4610      	movne	r0, r2
 8000494:	ea7f 5c65 	mvnseq.w	ip, r5, asr #21
 8000498:	bf1c      	itt	ne
 800049a:	460b      	movne	r3, r1
 800049c:	4602      	movne	r2, r0
 800049e:	ea50 3401 	orrs.w	r4, r0, r1, lsl #12
 80004a2:	bf06      	itte	eq
 80004a4:	ea52 3503 	orrseq.w	r5, r2, r3, lsl #12
 80004a8:	ea91 0f03 	teqeq	r1, r3
 80004ac:	f441 2100 	orrne.w	r1, r1, #524288	; 0x80000
 80004b0:	bd30      	pop	{r4, r5, pc}
 80004b2:	bf00      	nop

080004b4 <__aeabi_ui2d>:
 80004b4:	f090 0f00 	teq	r0, #0
 80004b8:	bf04      	itt	eq
 80004ba:	2100      	moveq	r1, #0
 80004bc:	4770      	bxeq	lr
 80004be:	b530      	push	{r4, r5, lr}
 80004c0:	f44f 6480 	mov.w	r4, #1024	; 0x400
 80004c4:	f104 0432 	add.w	r4, r4, #50	; 0x32
 80004c8:	f04f 0500 	mov.w	r5, #0
 80004cc:	f04f 0100 	mov.w	r1, #0
 80004d0:	e750      	b.n	8000374 <__adddf3+0x138>
 80004d2:	bf00      	nop

080004d4 <__aeabi_i2d>:
 80004d4:	f090 0f00 	teq	r0, #0
 80004d8:	bf04      	itt	eq
 80004da:	2100      	moveq	r1, #0
 80004dc:	4770      	bxeq	lr
 80004de:	b530      	push	{r4, r5, lr}
 80004e0:	f44f 6480 	mov.w	r4, #1024	; 0x400
 80004e4:	f104 0432 	add.w	r4, r4, #50	; 0x32
 80004e8:	f010 4500 	ands.w	r5, r0, #2147483648	; 0x80000000
 80004ec:	bf48      	it	mi
 80004ee:	4240      	negmi	r0, r0
 80004f0:	f04f 0100 	mov.w	r1, #0
 80004f4:	e73e      	b.n	8000374 <__adddf3+0x138>
 80004f6:	bf00      	nop

080004f8 <__aeabi_f2d>:
 80004f8:	0042      	lsls	r2, r0, #1
 80004fa:	ea4f 01e2 	mov.w	r1, r2, asr #3
 80004fe:	ea4f 0131 	mov.w	r1, r1, rrx
 8000502:	ea4f 7002 	mov.w	r0, r2, lsl #28
 8000506:	bf1f      	itttt	ne
 8000508:	f012 437f 	andsne.w	r3, r2, #4278190080	; 0xff000000
 800050c:	f093 4f7f 	teqne	r3, #4278190080	; 0xff000000
 8000510:	f081 5160 	eorne.w	r1, r1, #939524096	; 0x38000000
 8000514:	4770      	bxne	lr
 8000516:	f032 427f 	bics.w	r2, r2, #4278190080	; 0xff000000
 800051a:	bf08      	it	eq
 800051c:	4770      	bxeq	lr
 800051e:	f093 4f7f 	teq	r3, #4278190080	; 0xff000000
 8000522:	bf04      	itt	eq
 8000524:	f441 2100 	orreq.w	r1, r1, #524288	; 0x80000
 8000528:	4770      	bxeq	lr
 800052a:	b530      	push	{r4, r5, lr}
 800052c:	f44f 7460 	mov.w	r4, #896	; 0x380
 8000530:	f001 4500 	and.w	r5, r1, #2147483648	; 0x80000000
 8000534:	f021 4100 	bic.w	r1, r1, #2147483648	; 0x80000000
 8000538:	e71c      	b.n	8000374 <__adddf3+0x138>
 800053a:	bf00      	nop

0800053c <__aeabi_ul2d>:
 800053c:	ea50 0201 	orrs.w	r2, r0, r1
 8000540:	bf08      	it	eq
 8000542:	4770      	bxeq	lr
 8000544:	b530      	push	{r4, r5, lr}
 8000546:	f04f 0500 	mov.w	r5, #0
 800054a:	e00a      	b.n	8000562 <__aeabi_l2d+0x16>

0800054c <__aeabi_l2d>:
 800054c:	ea50 0201 	orrs.w	r2, r0, r1
 8000550:	bf08      	it	eq
 8000552:	4770      	bxeq	lr
 8000554:	b530      	push	{r4, r5, lr}
 8000556:	f011 4500 	ands.w	r5, r1, #2147483648	; 0x80000000
 800055a:	d502      	bpl.n	8000562 <__aeabi_l2d+0x16>
 800055c:	4240      	negs	r0, r0
 800055e:	eb61 0141 	sbc.w	r1, r1, r1, lsl #1
 8000562:	f44f 6480 	mov.w	r4, #1024	; 0x400
 8000566:	f104 0432 	add.w	r4, r4, #50	; 0x32
 800056a:	ea5f 5c91 	movs.w	ip, r1, lsr #22
 800056e:	f43f aed8 	beq.w	8000322 <__adddf3+0xe6>
 8000572:	f04f 0203 	mov.w	r2, #3
 8000576:	ea5f 0cdc 	movs.w	ip, ip, lsr #3
 800057a:	bf18      	it	ne
 800057c:	3203      	addne	r2, #3
 800057e:	ea5f 0cdc 	movs.w	ip, ip, lsr #3
 8000582:	bf18      	it	ne
 8000584:	3203      	addne	r2, #3
 8000586:	eb02 02dc 	add.w	r2, r2, ip, lsr #3
 800058a:	f1c2 0320 	rsb	r3, r2, #32
 800058e:	fa00 fc03 	lsl.w	ip, r0, r3
 8000592:	fa20 f002 	lsr.w	r0, r0, r2
 8000596:	fa01 fe03 	lsl.w	lr, r1, r3
 800059a:	ea40 000e 	orr.w	r0, r0, lr
 800059e:	fa21 f102 	lsr.w	r1, r1, r2
 80005a2:	4414      	add	r4, r2
 80005a4:	e6bd      	b.n	8000322 <__adddf3+0xe6>
 80005a6:	bf00      	nop

080005a8 <__aeabi_dmul>:
 80005a8:	b570      	push	{r4, r5, r6, lr}
 80005aa:	f04f 0cff 	mov.w	ip, #255	; 0xff
 80005ae:	f44c 6ce0 	orr.w	ip, ip, #1792	; 0x700
 80005b2:	ea1c 5411 	ands.w	r4, ip, r1, lsr #20
 80005b6:	bf1d      	ittte	ne
 80005b8:	ea1c 5513 	andsne.w	r5, ip, r3, lsr #20
 80005bc:	ea94 0f0c 	teqne	r4, ip
 80005c0:	ea95 0f0c 	teqne	r5, ip
 80005c4:	f000 f8de 	bleq	8000784 <__aeabi_dmul+0x1dc>
 80005c8:	442c      	add	r4, r5
 80005ca:	ea81 0603 	eor.w	r6, r1, r3
 80005ce:	ea21 514c 	bic.w	r1, r1, ip, lsl #21
 80005d2:	ea23 534c 	bic.w	r3, r3, ip, lsl #21
 80005d6:	ea50 3501 	orrs.w	r5, r0, r1, lsl #12
 80005da:	bf18      	it	ne
 80005dc:	ea52 3503 	orrsne.w	r5, r2, r3, lsl #12
 80005e0:	f441 1180 	orr.w	r1, r1, #1048576	; 0x100000
 80005e4:	f443 1380 	orr.w	r3, r3, #1048576	; 0x100000
 80005e8:	d038      	beq.n	800065c <__aeabi_dmul+0xb4>
 80005ea:	fba0 ce02 	umull	ip, lr, r0, r2
 80005ee:	f04f 0500 	mov.w	r5, #0
 80005f2:	fbe1 e502 	umlal	lr, r5, r1, r2
 80005f6:	f006 4200 	and.w	r2, r6, #2147483648	; 0x80000000
 80005fa:	fbe0 e503 	umlal	lr, r5, r0, r3
 80005fe:	f04f 0600 	mov.w	r6, #0
 8000602:	fbe1 5603 	umlal	r5, r6, r1, r3
 8000606:	f09c 0f00 	teq	ip, #0
 800060a:	bf18      	it	ne
 800060c:	f04e 0e01 	orrne.w	lr, lr, #1
 8000610:	f1a4 04ff 	sub.w	r4, r4, #255	; 0xff
 8000614:	f5b6 7f00 	cmp.w	r6, #512	; 0x200
 8000618:	f564 7440 	sbc.w	r4, r4, #768	; 0x300
 800061c:	d204      	bcs.n	8000628 <__aeabi_dmul+0x80>
 800061e:	ea5f 0e4e 	movs.w	lr, lr, lsl #1
 8000622:	416d      	adcs	r5, r5
 8000624:	eb46 0606 	adc.w	r6, r6, r6
 8000628:	ea42 21c6 	orr.w	r1, r2, r6, lsl #11
 800062c:	ea41 5155 	orr.w	r1, r1, r5, lsr #21
 8000630:	ea4f 20c5 	mov.w	r0, r5, lsl #11
 8000634:	ea40 505e 	orr.w	r0, r0, lr, lsr #21
 8000638:	ea4f 2ece 	mov.w	lr, lr, lsl #11
 800063c:	f1b4 0cfd 	subs.w	ip, r4, #253	; 0xfd
 8000640:	bf88      	it	hi
 8000642:	f5bc 6fe0 	cmphi.w	ip, #1792	; 0x700
 8000646:	d81e      	bhi.n	8000686 <__aeabi_dmul+0xde>
 8000648:	f1be 4f00 	cmp.w	lr, #2147483648	; 0x80000000
 800064c:	bf08      	it	eq
 800064e:	ea5f 0e50 	movseq.w	lr, r0, lsr #1
 8000652:	f150 0000 	adcs.w	r0, r0, #0
 8000656:	eb41 5104 	adc.w	r1, r1, r4, lsl #20
 800065a:	bd70      	pop	{r4, r5, r6, pc}
 800065c:	f006 4600 	and.w	r6, r6, #2147483648	; 0x80000000
 8000660:	ea46 0101 	orr.w	r1, r6, r1
 8000664:	ea40 0002 	orr.w	r0, r0, r2
 8000668:	ea81 0103 	eor.w	r1, r1, r3
 800066c:	ebb4 045c 	subs.w	r4, r4, ip, lsr #1
 8000670:	bfc2      	ittt	gt
 8000672:	ebd4 050c 	rsbsgt	r5, r4, ip
 8000676:	ea41 5104 	orrgt.w	r1, r1, r4, lsl #20
 800067a:	bd70      	popgt	{r4, r5, r6, pc}
 800067c:	f441 1180 	orr.w	r1, r1, #1048576	; 0x100000
 8000680:	f04f 0e00 	mov.w	lr, #0
 8000684:	3c01      	subs	r4, #1
 8000686:	f300 80ab 	bgt.w	80007e0 <__aeabi_dmul+0x238>
 800068a:	f114 0f36 	cmn.w	r4, #54	; 0x36
 800068e:	bfde      	ittt	le
 8000690:	2000      	movle	r0, #0
 8000692:	f001 4100 	andle.w	r1, r1, #2147483648	; 0x80000000
 8000696:	bd70      	pople	{r4, r5, r6, pc}
 8000698:	f1c4 0400 	rsb	r4, r4, #0
 800069c:	3c20      	subs	r4, #32
 800069e:	da35      	bge.n	800070c <__aeabi_dmul+0x164>
 80006a0:	340c      	adds	r4, #12
 80006a2:	dc1b      	bgt.n	80006dc <__aeabi_dmul+0x134>
 80006a4:	f104 0414 	add.w	r4, r4, #20
 80006a8:	f1c4 0520 	rsb	r5, r4, #32
 80006ac:	fa00 f305 	lsl.w	r3, r0, r5
 80006b0:	fa20 f004 	lsr.w	r0, r0, r4
 80006b4:	fa01 f205 	lsl.w	r2, r1, r5
 80006b8:	ea40 0002 	orr.w	r0, r0, r2
 80006bc:	f001 4200 	and.w	r2, r1, #2147483648	; 0x80000000
 80006c0:	f021 4100 	bic.w	r1, r1, #2147483648	; 0x80000000
 80006c4:	eb10 70d3 	adds.w	r0, r0, r3, lsr #31
 80006c8:	fa21 f604 	lsr.w	r6, r1, r4
 80006cc:	eb42 0106 	adc.w	r1, r2, r6
 80006d0:	ea5e 0e43 	orrs.w	lr, lr, r3, lsl #1
 80006d4:	bf08      	it	eq
 80006d6:	ea20 70d3 	biceq.w	r0, r0, r3, lsr #31
 80006da:	bd70      	pop	{r4, r5, r6, pc}
 80006dc:	f1c4 040c 	rsb	r4, r4, #12
 80006e0:	f1c4 0520 	rsb	r5, r4, #32
 80006e4:	fa00 f304 	lsl.w	r3, r0, r4
 80006e8:	fa20 f005 	lsr.w	r0, r0, r5
 80006ec:	fa01 f204 	lsl.w	r2, r1, r4
 80006f0:	ea40 0002 	orr.w	r0, r0, r2
 80006f4:	f001 4100 	and.w	r1, r1, #2147483648	; 0x80000000
 80006f8:	eb10 70d3 	adds.w	r0, r0, r3, lsr #31
 80006fc:	f141 0100 	adc.w	r1, r1, #0
 8000700:	ea5e 0e43 	orrs.w	lr, lr, r3, lsl #1
 8000704:	bf08      	it	eq
 8000706:	ea20 70d3 	biceq.w	r0, r0, r3, lsr #31
 800070a:	bd70      	pop	{r4, r5, r6, pc}
 800070c:	f1c4 0520 	rsb	r5, r4, #32
 8000710:	fa00 f205 	lsl.w	r2, r0, r5
 8000714:	ea4e 0e02 	orr.w	lr, lr, r2
 8000718:	fa20 f304 	lsr.w	r3, r0, r4
 800071c:	fa01 f205 	lsl.w	r2, r1, r5
 8000720:	ea43 0302 	orr.w	r3, r3, r2
 8000724:	fa21 f004 	lsr.w	r0, r1, r4
 8000728:	f001 4100 	and.w	r1, r1, #2147483648	; 0x80000000
 800072c:	fa21 f204 	lsr.w	r2, r1, r4
 8000730:	ea20 0002 	bic.w	r0, r0, r2
 8000734:	eb00 70d3 	add.w	r0, r0, r3, lsr #31
 8000738:	ea5e 0e43 	orrs.w	lr, lr, r3, lsl #1
 800073c:	bf08      	it	eq
 800073e:	ea20 70d3 	biceq.w	r0, r0, r3, lsr #31
 8000742:	bd70      	pop	{r4, r5, r6, pc}
 8000744:	f094 0f00 	teq	r4, #0
 8000748:	d10f      	bne.n	800076a <__aeabi_dmul+0x1c2>
 800074a:	f001 4600 	and.w	r6, r1, #2147483648	; 0x80000000
 800074e:	0040      	lsls	r0, r0, #1
 8000750:	eb41 0101 	adc.w	r1, r1, r1
 8000754:	f411 1f80 	tst.w	r1, #1048576	; 0x100000
 8000758:	bf08      	it	eq
 800075a:	3c01      	subeq	r4, #1
 800075c:	d0f7      	beq.n	800074e <__aeabi_dmul+0x1a6>
 800075e:	ea41 0106 	orr.w	r1, r1, r6
 8000762:	f095 0f00 	teq	r5, #0
 8000766:	bf18      	it	ne
 8000768:	4770      	bxne	lr
 800076a:	f003 4600 	and.w	r6, r3, #2147483648	; 0x80000000
 800076e:	0052      	lsls	r2, r2, #1
 8000770:	eb43 0303 	adc.w	r3, r3, r3
 8000774:	f413 1f80 	tst.w	r3, #1048576	; 0x100000
 8000778:	bf08      	it	eq
 800077a:	3d01      	subeq	r5, #1
 800077c:	d0f7      	beq.n	800076e <__aeabi_dmul+0x1c6>
 800077e:	ea43 0306 	orr.w	r3, r3, r6
 8000782:	4770      	bx	lr
 8000784:	ea94 0f0c 	teq	r4, ip
 8000788:	ea0c 5513 	and.w	r5, ip, r3, lsr #20
 800078c:	bf18      	it	ne
 800078e:	ea95 0f0c 	teqne	r5, ip
 8000792:	d00c      	beq.n	80007ae <__aeabi_dmul+0x206>
 8000794:	ea50 0641 	orrs.w	r6, r0, r1, lsl #1
 8000798:	bf18      	it	ne
 800079a:	ea52 0643 	orrsne.w	r6, r2, r3, lsl #1
 800079e:	d1d1      	bne.n	8000744 <__aeabi_dmul+0x19c>
 80007a0:	ea81 0103 	eor.w	r1, r1, r3
 80007a4:	f001 4100 	and.w	r1, r1, #2147483648	; 0x80000000
 80007a8:	f04f 0000 	mov.w	r0, #0
 80007ac:	bd70      	pop	{r4, r5, r6, pc}
 80007ae:	ea50 0641 	orrs.w	r6, r0, r1, lsl #1
 80007b2:	bf06      	itte	eq
 80007b4:	4610      	moveq	r0, r2
 80007b6:	4619      	moveq	r1, r3
 80007b8:	ea52 0643 	orrsne.w	r6, r2, r3, lsl #1
 80007bc:	d019      	beq.n	80007f2 <__aeabi_dmul+0x24a>
 80007be:	ea94 0f0c 	teq	r4, ip
 80007c2:	d102      	bne.n	80007ca <__aeabi_dmul+0x222>
 80007c4:	ea50 3601 	orrs.w	r6, r0, r1, lsl #12
 80007c8:	d113      	bne.n	80007f2 <__aeabi_dmul+0x24a>
 80007ca:	ea95 0f0c 	teq	r5, ip
 80007ce:	d105      	bne.n	80007dc <__aeabi_dmul+0x234>
 80007d0:	ea52 3603 	orrs.w	r6, r2, r3, lsl #12
 80007d4:	bf1c      	itt	ne
 80007d6:	4610      	movne	r0, r2
 80007d8:	4619      	movne	r1, r3
 80007da:	d10a      	bne.n	80007f2 <__aeabi_dmul+0x24a>
 80007dc:	ea81 0103 	eor.w	r1, r1, r3
 80007e0:	f001 4100 	and.w	r1, r1, #2147483648	; 0x80000000
 80007e4:	f041 41fe 	orr.w	r1, r1, #2130706432	; 0x7f000000
 80007e8:	f441 0170 	orr.w	r1, r1, #15728640	; 0xf00000
 80007ec:	f04f 0000 	mov.w	r0, #0
 80007f0:	bd70      	pop	{r4, r5, r6, pc}
 80007f2:	f041 41fe 	orr.w	r1, r1, #2130706432	; 0x7f000000
 80007f6:	f441 0178 	orr.w	r1, r1, #16252928	; 0xf80000
 80007fa:	bd70      	pop	{r4, r5, r6, pc}

080007fc <__aeabi_ddiv>:
 80007fc:	b570      	push	{r4, r5, r6, lr}
 80007fe:	f04f 0cff 	mov.w	ip, #255	; 0xff
 8000802:	f44c 6ce0 	orr.w	ip, ip, #1792	; 0x700
 8000806:	ea1c 5411 	ands.w	r4, ip, r1, lsr #20
 800080a:	bf1d      	ittte	ne
 800080c:	ea1c 5513 	andsne.w	r5, ip, r3, lsr #20
 8000810:	ea94 0f0c 	teqne	r4, ip
 8000814:	ea95 0f0c 	teqne	r5, ip
 8000818:	f000 f8a7 	bleq	800096a <__aeabi_ddiv+0x16e>
 800081c:	eba4 0405 	sub.w	r4, r4, r5
 8000820:	ea81 0e03 	eor.w	lr, r1, r3
 8000824:	ea52 3503 	orrs.w	r5, r2, r3, lsl #12
 8000828:	ea4f 3101 	mov.w	r1, r1, lsl #12
 800082c:	f000 8088 	beq.w	8000940 <__aeabi_ddiv+0x144>
 8000830:	ea4f 3303 	mov.w	r3, r3, lsl #12
 8000834:	f04f 5580 	mov.w	r5, #268435456	; 0x10000000
 8000838:	ea45 1313 	orr.w	r3, r5, r3, lsr #4
 800083c:	ea43 6312 	orr.w	r3, r3, r2, lsr #24
 8000840:	ea4f 2202 	mov.w	r2, r2, lsl #8
 8000844:	ea45 1511 	orr.w	r5, r5, r1, lsr #4
 8000848:	ea45 6510 	orr.w	r5, r5, r0, lsr #24
 800084c:	ea4f 2600 	mov.w	r6, r0, lsl #8
 8000850:	f00e 4100 	and.w	r1, lr, #2147483648	; 0x80000000
 8000854:	429d      	cmp	r5, r3
 8000856:	bf08      	it	eq
 8000858:	4296      	cmpeq	r6, r2
 800085a:	f144 04fd 	adc.w	r4, r4, #253	; 0xfd
 800085e:	f504 7440 	add.w	r4, r4, #768	; 0x300
 8000862:	d202      	bcs.n	800086a <__aeabi_ddiv+0x6e>
 8000864:	085b      	lsrs	r3, r3, #1
 8000866:	ea4f 0232 	mov.w	r2, r2, rrx
 800086a:	1ab6      	subs	r6, r6, r2
 800086c:	eb65 0503 	sbc.w	r5, r5, r3
 8000870:	085b      	lsrs	r3, r3, #1
 8000872:	ea4f 0232 	mov.w	r2, r2, rrx
 8000876:	f44f 1080 	mov.w	r0, #1048576	; 0x100000
 800087a:	f44f 2c00 	mov.w	ip, #524288	; 0x80000
 800087e:	ebb6 0e02 	subs.w	lr, r6, r2
 8000882:	eb75 0e03 	sbcs.w	lr, r5, r3
 8000886:	bf22      	ittt	cs
 8000888:	1ab6      	subcs	r6, r6, r2
 800088a:	4675      	movcs	r5, lr
 800088c:	ea40 000c 	orrcs.w	r0, r0, ip
 8000890:	085b      	lsrs	r3, r3, #1
 8000892:	ea4f 0232 	mov.w	r2, r2, rrx
 8000896:	ebb6 0e02 	subs.w	lr, r6, r2
 800089a:	eb75 0e03 	sbcs.w	lr, r5, r3
 800089e:	bf22      	ittt	cs
 80008a0:	1ab6      	subcs	r6, r6, r2
 80008a2:	4675      	movcs	r5, lr
 80008a4:	ea40 005c 	orrcs.w	r0, r0, ip, lsr #1
 80008a8:	085b      	lsrs	r3, r3, #1
 80008aa:	ea4f 0232 	mov.w	r2, r2, rrx
 80008ae:	ebb6 0e02 	subs.w	lr, r6, r2
 80008b2:	eb75 0e03 	sbcs.w	lr, r5, r3
 80008b6:	bf22      	ittt	cs
 80008b8:	1ab6      	subcs	r6, r6, r2
 80008ba:	4675      	movcs	r5, lr
 80008bc:	ea40 009c 	orrcs.w	r0, r0, ip, lsr #2
 80008c0:	085b      	lsrs	r3, r3, #1
 80008c2:	ea4f 0232 	mov.w	r2, r2, rrx
 80008c6:	ebb6 0e02 	subs.w	lr, r6, r2
 80008ca:	eb75 0e03 	sbcs.w	lr, r5, r3
 80008ce:	bf22      	ittt	cs
 80008d0:	1ab6      	subcs	r6, r6, r2
 80008d2:	4675      	movcs	r5, lr
 80008d4:	ea40 00dc 	orrcs.w	r0, r0, ip, lsr #3
 80008d8:	ea55 0e06 	orrs.w	lr, r5, r6
 80008dc:	d018      	beq.n	8000910 <__aeabi_ddiv+0x114>
 80008de:	ea4f 1505 	mov.w	r5, r5, lsl #4
 80008e2:	ea45 7516 	orr.w	r5, r5, r6, lsr #28
 80008e6:	ea4f 1606 	mov.w	r6, r6, lsl #4
 80008ea:	ea4f 03c3 	mov.w	r3, r3, lsl #3
 80008ee:	ea43 7352 	orr.w	r3, r3, r2, lsr #29
 80008f2:	ea4f 02c2 	mov.w	r2, r2, lsl #3
 80008f6:	ea5f 1c1c 	movs.w	ip, ip, lsr #4
 80008fa:	d1c0      	bne.n	800087e <__aeabi_ddiv+0x82>
 80008fc:	f411 1f80 	tst.w	r1, #1048576	; 0x100000
 8000900:	d10b      	bne.n	800091a <__aeabi_ddiv+0x11e>
 8000902:	ea41 0100 	orr.w	r1, r1, r0
 8000906:	f04f 0000 	mov.w	r0, #0
 800090a:	f04f 4c00 	mov.w	ip, #2147483648	; 0x80000000
 800090e:	e7b6      	b.n	800087e <__aeabi_ddiv+0x82>
 8000910:	f411 1f80 	tst.w	r1, #1048576	; 0x100000
 8000914:	bf04      	itt	eq
 8000916:	4301      	orreq	r1, r0
 8000918:	2000      	moveq	r0, #0
 800091a:	f1b4 0cfd 	subs.w	ip, r4, #253	; 0xfd
 800091e:	bf88      	it	hi
 8000920:	f5bc 6fe0 	cmphi.w	ip, #1792	; 0x700
 8000924:	f63f aeaf 	bhi.w	8000686 <__aeabi_dmul+0xde>
 8000928:	ebb5 0c03 	subs.w	ip, r5, r3
 800092c:	bf04      	itt	eq
 800092e:	ebb6 0c02 	subseq.w	ip, r6, r2
 8000932:	ea5f 0c50 	movseq.w	ip, r0, lsr #1
 8000936:	f150 0000 	adcs.w	r0, r0, #0
 800093a:	eb41 5104 	adc.w	r1, r1, r4, lsl #20
 800093e:	bd70      	pop	{r4, r5, r6, pc}
 8000940:	f00e 4e00 	and.w	lr, lr, #2147483648	; 0x80000000
 8000944:	ea4e 3111 	orr.w	r1, lr, r1, lsr #12
 8000948:	eb14 045c 	adds.w	r4, r4, ip, lsr #1
 800094c:	bfc2      	ittt	gt
 800094e:	ebd4 050c 	rsbsgt	r5, r4, ip
 8000952:	ea41 5104 	orrgt.w	r1, r1, r4, lsl #20
 8000956:	bd70      	popgt	{r4, r5, r6, pc}
 8000958:	f441 1180 	orr.w	r1, r1, #1048576	; 0x100000
 800095c:	f04f 0e00 	mov.w	lr, #0
 8000960:	3c01      	subs	r4, #1
 8000962:	e690      	b.n	8000686 <__aeabi_dmul+0xde>
 8000964:	ea45 0e06 	orr.w	lr, r5, r6
 8000968:	e68d      	b.n	8000686 <__aeabi_dmul+0xde>
 800096a:	ea0c 5513 	and.w	r5, ip, r3, lsr #20
 800096e:	ea94 0f0c 	teq	r4, ip
 8000972:	bf08      	it	eq
 8000974:	ea95 0f0c 	teqeq	r5, ip
 8000978:	f43f af3b 	beq.w	80007f2 <__aeabi_dmul+0x24a>
 800097c:	ea94 0f0c 	teq	r4, ip
 8000980:	d10a      	bne.n	8000998 <__aeabi_ddiv+0x19c>
 8000982:	ea50 3401 	orrs.w	r4, r0, r1, lsl #12
 8000986:	f47f af34 	bne.w	80007f2 <__aeabi_dmul+0x24a>
 800098a:	ea95 0f0c 	teq	r5, ip
 800098e:	f47f af25 	bne.w	80007dc <__aeabi_dmul+0x234>
 8000992:	4610      	mov	r0, r2
 8000994:	4619      	mov	r1, r3
 8000996:	e72c      	b.n	80007f2 <__aeabi_dmul+0x24a>
 8000998:	ea95 0f0c 	teq	r5, ip
 800099c:	d106      	bne.n	80009ac <__aeabi_ddiv+0x1b0>
 800099e:	ea52 3503 	orrs.w	r5, r2, r3, lsl #12
 80009a2:	f43f aefd 	beq.w	80007a0 <__aeabi_dmul+0x1f8>
 80009a6:	4610      	mov	r0, r2
 80009a8:	4619      	mov	r1, r3
 80009aa:	e722      	b.n	80007f2 <__aeabi_dmul+0x24a>
 80009ac:	ea50 0641 	orrs.w	r6, r0, r1, lsl #1
 80009b0:	bf18      	it	ne
 80009b2:	ea52 0643 	orrsne.w	r6, r2, r3, lsl #1
 80009b6:	f47f aec5 	bne.w	8000744 <__aeabi_dmul+0x19c>
 80009ba:	ea50 0441 	orrs.w	r4, r0, r1, lsl #1
 80009be:	f47f af0d 	bne.w	80007dc <__aeabi_dmul+0x234>
 80009c2:	ea52 0543 	orrs.w	r5, r2, r3, lsl #1
 80009c6:	f47f aeeb 	bne.w	80007a0 <__aeabi_dmul+0x1f8>
 80009ca:	e712      	b.n	80007f2 <__aeabi_dmul+0x24a>

080009cc <__aeabi_d2uiz>:
 80009cc:	004a      	lsls	r2, r1, #1
 80009ce:	d211      	bcs.n	80009f4 <__aeabi_d2uiz+0x28>
 80009d0:	f512 1200 	adds.w	r2, r2, #2097152	; 0x200000
 80009d4:	d211      	bcs.n	80009fa <__aeabi_d2uiz+0x2e>
 80009d6:	d50d      	bpl.n	80009f4 <__aeabi_d2uiz+0x28>
 80009d8:	f46f 7378 	mvn.w	r3, #992	; 0x3e0
 80009dc:	ebb3 5262 	subs.w	r2, r3, r2, asr #21
 80009e0:	d40e      	bmi.n	8000a00 <__aeabi_d2uiz+0x34>
 80009e2:	ea4f 23c1 	mov.w	r3, r1, lsl #11
 80009e6:	f043 4300 	orr.w	r3, r3, #2147483648	; 0x80000000
 80009ea:	ea43 5350 	orr.w	r3, r3, r0, lsr #21
 80009ee:	fa23 f002 	lsr.w	r0, r3, r2
 80009f2:	4770      	bx	lr
 80009f4:	f04f 0000 	mov.w	r0, #0
 80009f8:	4770      	bx	lr
 80009fa:	ea50 3001 	orrs.w	r0, r0, r1, lsl #12
 80009fe:	d102      	bne.n	8000a06 <__aeabi_d2uiz+0x3a>
 8000a00:	f04f 30ff 	mov.w	r0, #4294967295
 8000a04:	4770      	bx	lr
 8000a06:	f04f 0000 	mov.w	r0, #0
 8000a0a:	4770      	bx	lr

08000a0c <MicrostepDriver_Ini>:
#include  "MicrostepDriver.h"


void MicrostepDriver_Ini(void)
{
 8000a0c:	b580      	push	{r7, lr}
 8000a0e:	af00      	add	r7, sp, #0
    htim3.Init.Prescaler = 7199; // Предделитель таймера 3
 8000a10:	4b08      	ldr	r3, [pc, #32]	; (8000a34 <MicrostepDriver_Ini+0x28>)
 8000a12:	f641 421f 	movw	r2, #7199	; 0x1c1f
 8000a16:	605a      	str	r2, [r3, #4]
    htim3.Init.Period = 10000; // Период ШИМа
 8000a18:	4b06      	ldr	r3, [pc, #24]	; (8000a34 <MicrostepDriver_Ini+0x28>)
 8000a1a:	f242 7210 	movw	r2, #10000	; 0x2710
 8000a1e:	60da      	str	r2, [r3, #12]
    TIM3->CCR1 = 5000; // Длительность импульса
 8000a20:	4b05      	ldr	r3, [pc, #20]	; (8000a38 <MicrostepDriver_Ini+0x2c>)
 8000a22:	f241 3288 	movw	r2, #5000	; 0x1388
 8000a26:	635a      	str	r2, [r3, #52]	; 0x34
    HAL_TIM_Base_Init(&htim3);
 8000a28:	4802      	ldr	r0, [pc, #8]	; (8000a34 <MicrostepDriver_Ini+0x28>)
 8000a2a:	f005 f88b 	bl	8005b44 <HAL_TIM_Base_Init>
}
 8000a2e:	bf00      	nop
 8000a30:	bd80      	pop	{r7, pc}
 8000a32:	bf00      	nop
 8000a34:	20004dd4 	.word	0x20004dd4
 8000a38:	40000400 	.word	0x40000400

08000a3c <MicrostepDriver_Run>:


void MicrostepDriver_Run (uint16_t freq, uint8_t dir, GPIO_TypeDef *EN1_Port, uint16_t EN1_Pin, GPIO_TypeDef *DIR1_Port, uint16_t DIR1_Pin, uint32_t PWM_Channel)
{
 8000a3c:	b580      	push	{r7, lr}
 8000a3e:	b084      	sub	sp, #16
 8000a40:	af00      	add	r7, sp, #0
 8000a42:	60ba      	str	r2, [r7, #8]
 8000a44:	461a      	mov	r2, r3
 8000a46:	4603      	mov	r3, r0
 8000a48:	81fb      	strh	r3, [r7, #14]
 8000a4a:	460b      	mov	r3, r1
 8000a4c:	737b      	strb	r3, [r7, #13]
 8000a4e:	4613      	mov	r3, r2
 8000a50:	80fb      	strh	r3, [r7, #6]
	if (freq != 0)
 8000a52:	89fb      	ldrh	r3, [r7, #14]
 8000a54:	2b00      	cmp	r3, #0
 8000a56:	d024      	beq.n	8000aa2 <MicrostepDriver_Run+0x66>
	{

	htim3.Init.Period = (htim3.Init.Prescaler /  freq) / MICRO_STEP_DEV; // Расчет периода следования импульсов
 8000a58:	4b16      	ldr	r3, [pc, #88]	; (8000ab4 <MicrostepDriver_Run+0x78>)
 8000a5a:	685a      	ldr	r2, [r3, #4]
 8000a5c:	89fb      	ldrh	r3, [r7, #14]
 8000a5e:	fbb2 f3f3 	udiv	r3, r2, r3
 8000a62:	089b      	lsrs	r3, r3, #2
 8000a64:	4a13      	ldr	r2, [pc, #76]	; (8000ab4 <MicrostepDriver_Run+0x78>)
 8000a66:	60d3      	str	r3, [r2, #12]
	TIM3->CCR1 = htim3.Init.Period / 2; // Расчет коэффицента заполнения
 8000a68:	4b12      	ldr	r3, [pc, #72]	; (8000ab4 <MicrostepDriver_Run+0x78>)
 8000a6a:	68db      	ldr	r3, [r3, #12]
 8000a6c:	4a12      	ldr	r2, [pc, #72]	; (8000ab8 <MicrostepDriver_Run+0x7c>)
 8000a6e:	085b      	lsrs	r3, r3, #1
 8000a70:	6353      	str	r3, [r2, #52]	; 0x34
	HAL_TIM_Base_Init(&htim3);
 8000a72:	4810      	ldr	r0, [pc, #64]	; (8000ab4 <MicrostepDriver_Run+0x78>)
 8000a74:	f005 f866 	bl	8005b44 <HAL_TIM_Base_Init>

	if (dir == 0) // Направление вращения
 8000a78:	7b7b      	ldrb	r3, [r7, #13]
 8000a7a:	2b00      	cmp	r3, #0
 8000a7c:	d106      	bne.n	8000a8c <MicrostepDriver_Run+0x50>
	{
		HAL_GPIO_WritePin(DIR1_Port, DIR1_Pin, GPIO_PIN_RESET);
 8000a7e:	8bbb      	ldrh	r3, [r7, #28]
 8000a80:	2200      	movs	r2, #0
 8000a82:	4619      	mov	r1, r3
 8000a84:	69b8      	ldr	r0, [r7, #24]
 8000a86:	f003 fdd4 	bl	8004632 <HAL_GPIO_WritePin>
 8000a8a:	e005      	b.n	8000a98 <MicrostepDriver_Run+0x5c>

	}
	else
	{
		HAL_GPIO_WritePin(DIR1_Port, DIR1_Pin, GPIO_PIN_SET);
 8000a8c:	8bbb      	ldrh	r3, [r7, #28]
 8000a8e:	2201      	movs	r2, #1
 8000a90:	4619      	mov	r1, r3
 8000a92:	69b8      	ldr	r0, [r7, #24]
 8000a94:	f003 fdcd 	bl	8004632 <HAL_GPIO_WritePin>
	}


	HAL_TIM_PWM_Start(&htim3, PWM_Channel); // Начало генерации ШИМ сигнала
 8000a98:	6a39      	ldr	r1, [r7, #32]
 8000a9a:	4806      	ldr	r0, [pc, #24]	; (8000ab4 <MicrostepDriver_Run+0x78>)
 8000a9c:	f005 f8fa 	bl	8005c94 <HAL_TIM_PWM_Start>
	else // Если частота задана как 0, то останов ШД
	{
		HAL_TIM_PWM_Stop(&htim3, PWM_Channel);
	}

}
 8000aa0:	e003      	b.n	8000aaa <MicrostepDriver_Run+0x6e>
		HAL_TIM_PWM_Stop(&htim3, PWM_Channel);
 8000aa2:	6a39      	ldr	r1, [r7, #32]
 8000aa4:	4803      	ldr	r0, [pc, #12]	; (8000ab4 <MicrostepDriver_Run+0x78>)
 8000aa6:	f005 f9af 	bl	8005e08 <HAL_TIM_PWM_Stop>
}
 8000aaa:	bf00      	nop
 8000aac:	3710      	adds	r7, #16
 8000aae:	46bd      	mov	sp, r7
 8000ab0:	bd80      	pop	{r7, pc}
 8000ab2:	bf00      	nop
 8000ab4:	20004dd4 	.word	0x20004dd4
 8000ab8:	40000400 	.word	0x40000400

08000abc <IndicatorPanel_Ini>:
#include "PCB_WELDER.h"

void IndicatorPanel_Ini (void)
{
 8000abc:	b580      	push	{r7, lr}
 8000abe:	af00      	add	r7, sp, #0
	STLED316S_Ini(oSTLED316S_STB1_GPIO_Port, oSTLED316S_STB1_Pin); // Индикатор "ВЛЕВО"
 8000ac0:	2110      	movs	r1, #16
 8000ac2:	4808      	ldr	r0, [pc, #32]	; (8000ae4 <IndicatorPanel_Ini+0x28>)
 8000ac4:	f000 fc22 	bl	800130c <STLED316S_Ini>
	STLED316S_Ini(oSTLED316S_STB2_GPIO_Port, oSTLED316S_STB2_Pin); // Индикатор "ВПРАВО"
 8000ac8:	2120      	movs	r1, #32
 8000aca:	4806      	ldr	r0, [pc, #24]	; (8000ae4 <IndicatorPanel_Ini+0x28>)
 8000acc:	f000 fc1e 	bl	800130c <STLED316S_Ini>
	STLED316S_Ini(oSTLED316S_STB3_GPIO_Port, oSTLED316S_STB3_Pin); // Индикаторы "СКОРОСТЬ" (ст. 3 разряда) и "ПРОГРАММА" (мл. 3 разряда)
 8000ad0:	2101      	movs	r1, #1
 8000ad2:	4805      	ldr	r0, [pc, #20]	; (8000ae8 <IndicatorPanel_Ini+0x2c>)
 8000ad4:	f000 fc1a 	bl	800130c <STLED316S_Ini>
  //STLED316S_Ini(oSTLED316S_STB4_GPIO_Port, oSTLED316S_STB4_Pin); // Микросхема не установлена, резерв
	STLED316S_Ini(oSTLED316S_STB5_GPIO_Port, oSTLED316S_STB5_Pin); // Индикаторы "ЗАДЕРЖКА" (слева, ст. 2 разряда) "ЗАДЕРЖКА" (справа, 2 и 3  разряды драйвера)
 8000ad8:	2140      	movs	r1, #64	; 0x40
 8000ada:	4804      	ldr	r0, [pc, #16]	; (8000aec <IndicatorPanel_Ini+0x30>)
 8000adc:	f000 fc16 	bl	800130c <STLED316S_Ini>
}
 8000ae0:	bf00      	nop
 8000ae2:	bd80      	pop	{r7, pc}
 8000ae4:	40011000 	.word	0x40011000
 8000ae8:	40010c00 	.word	0x40010c00
 8000aec:	40010800 	.word	0x40010800

08000af0 <IndicatorPanel_SetValue>:

void IndicatorPanel_SetValue (IndicatorValues *IndicatorPanel0)
{
 8000af0:	b580      	push	{r7, lr}
 8000af2:	b086      	sub	sp, #24
 8000af4:	af02      	add	r7, sp, #8
 8000af6:	6078      	str	r0, [r7, #4]
	uint8_t num;

	uint8_t LEDsOut;

	LEDsOut = 0;
 8000af8:	2300      	movs	r3, #0
 8000afa:	737b      	strb	r3, [r7, #13]

	for(uint8_t i = 0; i < 6; i++)
 8000afc:	2300      	movs	r3, #0
 8000afe:	73fb      	strb	r3, [r7, #15]
 8000b00:	e006      	b.n	8000b10 <IndicatorPanel_SetValue+0x20>
	{
		STLED_digVal[i] = 0;
 8000b02:	7bfb      	ldrb	r3, [r7, #15]
 8000b04:	4a5b      	ldr	r2, [pc, #364]	; (8000c74 <IndicatorPanel_SetValue+0x184>)
 8000b06:	2100      	movs	r1, #0
 8000b08:	54d1      	strb	r1, [r2, r3]
	for(uint8_t i = 0; i < 6; i++)
 8000b0a:	7bfb      	ldrb	r3, [r7, #15]
 8000b0c:	3301      	adds	r3, #1
 8000b0e:	73fb      	strb	r3, [r7, #15]
 8000b10:	7bfb      	ldrb	r3, [r7, #15]
 8000b12:	2b05      	cmp	r3, #5
 8000b14:	d9f5      	bls.n	8000b02 <IndicatorPanel_SetValue+0x12>
	}

	//uint8_t gg = 11;

	// Индикатор "ВЛЕВО"
	num = separate(IndicatorPanel0->Xs,  &STLED_digVal[0]);
 8000b16:	687b      	ldr	r3, [r7, #4]
 8000b18:	881b      	ldrh	r3, [r3, #0]
 8000b1a:	4956      	ldr	r1, [pc, #344]	; (8000c74 <IndicatorPanel_SetValue+0x184>)
 8000b1c:	4618      	mov	r0, r3
 8000b1e:	f000 f8e9 	bl	8000cf4 <separate>
 8000b22:	4603      	mov	r3, r0
 8000b24:	73bb      	strb	r3, [r7, #14]
	IndicatorPanel_offset_4dig(num, STLED_digVal);
 8000b26:	7bbb      	ldrb	r3, [r7, #14]
 8000b28:	4952      	ldr	r1, [pc, #328]	; (8000c74 <IndicatorPanel_SetValue+0x184>)
 8000b2a:	4618      	mov	r0, r3
 8000b2c:	f000 f926 	bl	8000d7c <IndicatorPanel_offset_4dig>
	STLED316S_OutData(STLED_digVal, 4, oSTLED316S_STB1_GPIO_Port, oSTLED316S_STB1_Pin);
 8000b30:	2310      	movs	r3, #16
 8000b32:	4a51      	ldr	r2, [pc, #324]	; (8000c78 <IndicatorPanel_SetValue+0x188>)
 8000b34:	2104      	movs	r1, #4
 8000b36:	484f      	ldr	r0, [pc, #316]	; (8000c74 <IndicatorPanel_SetValue+0x184>)
 8000b38:	f000 fc1c 	bl	8001374 <STLED316S_OutData>

	// Индикатор "ВПРАВО"
	num = separate(IndicatorPanel0->Xf,  &STLED_digVal[0]);
 8000b3c:	687b      	ldr	r3, [r7, #4]
 8000b3e:	885b      	ldrh	r3, [r3, #2]
 8000b40:	494c      	ldr	r1, [pc, #304]	; (8000c74 <IndicatorPanel_SetValue+0x184>)
 8000b42:	4618      	mov	r0, r3
 8000b44:	f000 f8d6 	bl	8000cf4 <separate>
 8000b48:	4603      	mov	r3, r0
 8000b4a:	73bb      	strb	r3, [r7, #14]
	IndicatorPanel_offset_4dig(num, STLED_digVal);
 8000b4c:	7bbb      	ldrb	r3, [r7, #14]
 8000b4e:	4949      	ldr	r1, [pc, #292]	; (8000c74 <IndicatorPanel_SetValue+0x184>)
 8000b50:	4618      	mov	r0, r3
 8000b52:	f000 f913 	bl	8000d7c <IndicatorPanel_offset_4dig>
	STLED316S_OutData(STLED_digVal, 4, oSTLED316S_STB2_GPIO_Port, oSTLED316S_STB2_Pin);
 8000b56:	2320      	movs	r3, #32
 8000b58:	4a47      	ldr	r2, [pc, #284]	; (8000c78 <IndicatorPanel_SetValue+0x188>)
 8000b5a:	2104      	movs	r1, #4
 8000b5c:	4845      	ldr	r0, [pc, #276]	; (8000c74 <IndicatorPanel_SetValue+0x184>)
 8000b5e:	f000 fc09 	bl	8001374 <STLED316S_OutData>

	// Вывод пред и пост задержки
	num = separate(IndicatorPanel0->Delay_s, &STLED_digVal[0]);
 8000b62:	687b      	ldr	r3, [r7, #4]
 8000b64:	791b      	ldrb	r3, [r3, #4]
 8000b66:	b29b      	uxth	r3, r3
 8000b68:	4942      	ldr	r1, [pc, #264]	; (8000c74 <IndicatorPanel_SetValue+0x184>)
 8000b6a:	4618      	mov	r0, r3
 8000b6c:	f000 f8c2 	bl	8000cf4 <separate>
 8000b70:	4603      	mov	r3, r0
 8000b72:	73bb      	strb	r3, [r7, #14]
	//IndicatorPanel_offset_2dig(num, &STLED_digVal[0]);
	num = separate(IndicatorPanel0->Delay_f, &STLED_digVal[2]);
 8000b74:	687b      	ldr	r3, [r7, #4]
 8000b76:	795b      	ldrb	r3, [r3, #5]
 8000b78:	b29b      	uxth	r3, r3
 8000b7a:	4940      	ldr	r1, [pc, #256]	; (8000c7c <IndicatorPanel_SetValue+0x18c>)
 8000b7c:	4618      	mov	r0, r3
 8000b7e:	f000 f8b9 	bl	8000cf4 <separate>
 8000b82:	4603      	mov	r3, r0
 8000b84:	73bb      	strb	r3, [r7, #14]
	//IndicatorPanel_offset_2dig(num, &STLED_digVal[2]);
	//STLED316S_OutData(STLED_digVal, 4, oSTLED316S_STB5_GPIO_Port, oSTLED316S_STB5_Pin);

	STLED316S_Single_Out(&STLED_digVal[0], 6, 1, oSTLED316S_STB5_GPIO_Port, oSTLED316S_STB5_Pin);
 8000b86:	2340      	movs	r3, #64	; 0x40
 8000b88:	9300      	str	r3, [sp, #0]
 8000b8a:	4b3d      	ldr	r3, [pc, #244]	; (8000c80 <IndicatorPanel_SetValue+0x190>)
 8000b8c:	2201      	movs	r2, #1
 8000b8e:	2106      	movs	r1, #6
 8000b90:	4838      	ldr	r0, [pc, #224]	; (8000c74 <IndicatorPanel_SetValue+0x184>)
 8000b92:	f000 fc4d 	bl	8001430 <STLED316S_Single_Out>
	STLED316S_Single_Out(&STLED_digVal[1], 5, 0, oSTLED316S_STB5_GPIO_Port, oSTLED316S_STB5_Pin);
 8000b96:	2340      	movs	r3, #64	; 0x40
 8000b98:	9300      	str	r3, [sp, #0]
 8000b9a:	4b39      	ldr	r3, [pc, #228]	; (8000c80 <IndicatorPanel_SetValue+0x190>)
 8000b9c:	2200      	movs	r2, #0
 8000b9e:	2105      	movs	r1, #5
 8000ba0:	4838      	ldr	r0, [pc, #224]	; (8000c84 <IndicatorPanel_SetValue+0x194>)
 8000ba2:	f000 fc45 	bl	8001430 <STLED316S_Single_Out>
	STLED316S_Single_Out(&STLED_digVal[2], 4, 1, oSTLED316S_STB5_GPIO_Port, oSTLED316S_STB5_Pin);
 8000ba6:	2340      	movs	r3, #64	; 0x40
 8000ba8:	9300      	str	r3, [sp, #0]
 8000baa:	4b35      	ldr	r3, [pc, #212]	; (8000c80 <IndicatorPanel_SetValue+0x190>)
 8000bac:	2201      	movs	r2, #1
 8000bae:	2104      	movs	r1, #4
 8000bb0:	4832      	ldr	r0, [pc, #200]	; (8000c7c <IndicatorPanel_SetValue+0x18c>)
 8000bb2:	f000 fc3d 	bl	8001430 <STLED316S_Single_Out>
	STLED316S_Single_Out(&STLED_digVal[3], 3, 0, oSTLED316S_STB5_GPIO_Port, oSTLED316S_STB5_Pin);
 8000bb6:	2340      	movs	r3, #64	; 0x40
 8000bb8:	9300      	str	r3, [sp, #0]
 8000bba:	4b31      	ldr	r3, [pc, #196]	; (8000c80 <IndicatorPanel_SetValue+0x190>)
 8000bbc:	2200      	movs	r2, #0
 8000bbe:	2103      	movs	r1, #3
 8000bc0:	4831      	ldr	r0, [pc, #196]	; (8000c88 <IndicatorPanel_SetValue+0x198>)
 8000bc2:	f000 fc35 	bl	8001430 <STLED316S_Single_Out>


	// Индикаторы "СКОРОСТЬ" (ст. 3 разряда) и "ПРОГРАММА" (мл. 3 разряда)
	num = separate(IndicatorPanel0->Speed, &STLED_digVal[0]);
 8000bc6:	687b      	ldr	r3, [r7, #4]
 8000bc8:	88db      	ldrh	r3, [r3, #6]
 8000bca:	492a      	ldr	r1, [pc, #168]	; (8000c74 <IndicatorPanel_SetValue+0x184>)
 8000bcc:	4618      	mov	r0, r3
 8000bce:	f000 f891 	bl	8000cf4 <separate>
 8000bd2:	4603      	mov	r3, r0
 8000bd4:	73bb      	strb	r3, [r7, #14]
	IndicatorPanel_offset_3dig(num, &STLED_digVal[0]);
 8000bd6:	7bbb      	ldrb	r3, [r7, #14]
 8000bd8:	4926      	ldr	r1, [pc, #152]	; (8000c74 <IndicatorPanel_SetValue+0x184>)
 8000bda:	4618      	mov	r0, r3
 8000bdc:	f000 f920 	bl	8000e20 <IndicatorPanel_offset_3dig>

	num = separate(IndicatorPanel0->Program, &STLED_digVal[3]);
 8000be0:	687b      	ldr	r3, [r7, #4]
 8000be2:	891b      	ldrh	r3, [r3, #8]
 8000be4:	4928      	ldr	r1, [pc, #160]	; (8000c88 <IndicatorPanel_SetValue+0x198>)
 8000be6:	4618      	mov	r0, r3
 8000be8:	f000 f884 	bl	8000cf4 <separate>
 8000bec:	4603      	mov	r3, r0
 8000bee:	73bb      	strb	r3, [r7, #14]
	IndicatorPanel_offset_3dig(num, &STLED_digVal[3]);
 8000bf0:	7bbb      	ldrb	r3, [r7, #14]
 8000bf2:	4925      	ldr	r1, [pc, #148]	; (8000c88 <IndicatorPanel_SetValue+0x198>)
 8000bf4:	4618      	mov	r0, r3
 8000bf6:	f000 f913 	bl	8000e20 <IndicatorPanel_offset_3dig>
	STLED316S_OutData(STLED_digVal, 6, oSTLED316S_STB3_GPIO_Port, oSTLED316S_STB3_Pin);
 8000bfa:	2301      	movs	r3, #1
 8000bfc:	4a23      	ldr	r2, [pc, #140]	; (8000c8c <IndicatorPanel_SetValue+0x19c>)
 8000bfe:	2106      	movs	r1, #6
 8000c00:	481c      	ldr	r0, [pc, #112]	; (8000c74 <IndicatorPanel_SetValue+0x184>)
 8000c02:	f000 fbb7 	bl	8001374 <STLED316S_OutData>


	if((IndicatorPanel0->LEDsState & LED_AUTO) == LED_AUTO)
 8000c06:	687b      	ldr	r3, [r7, #4]
 8000c08:	7bdb      	ldrb	r3, [r3, #15]
 8000c0a:	f003 0301 	and.w	r3, r3, #1
 8000c0e:	2b00      	cmp	r3, #0
 8000c10:	d004      	beq.n	8000c1c <IndicatorPanel_SetValue+0x12c>
	{
		LEDsOut |= 0x10;
 8000c12:	7b7b      	ldrb	r3, [r7, #13]
 8000c14:	f043 0310 	orr.w	r3, r3, #16
 8000c18:	b2db      	uxtb	r3, r3
 8000c1a:	737b      	strb	r3, [r7, #13]
	}

	if((IndicatorPanel0->LEDsState & LED_PARKING) == LED_PARKING)
 8000c1c:	687b      	ldr	r3, [r7, #4]
 8000c1e:	7bdb      	ldrb	r3, [r3, #15]
 8000c20:	f003 0302 	and.w	r3, r3, #2
 8000c24:	2b00      	cmp	r3, #0
 8000c26:	d004      	beq.n	8000c32 <IndicatorPanel_SetValue+0x142>
	{
		LEDsOut |= 0x20;
 8000c28:	7b7b      	ldrb	r3, [r7, #13]
 8000c2a:	f043 0320 	orr.w	r3, r3, #32
 8000c2e:	b2db      	uxtb	r3, r3
 8000c30:	737b      	strb	r3, [r7, #13]
	}

	if((IndicatorPanel0->LEDsState & LED_DOWN) == LED_DOWN)
 8000c32:	687b      	ldr	r3, [r7, #4]
 8000c34:	7bdb      	ldrb	r3, [r3, #15]
 8000c36:	f003 0304 	and.w	r3, r3, #4
 8000c3a:	2b00      	cmp	r3, #0
 8000c3c:	d004      	beq.n	8000c48 <IndicatorPanel_SetValue+0x158>
	{
		LEDsOut |= 0x40;
 8000c3e:	7b7b      	ldrb	r3, [r7, #13]
 8000c40:	f043 0340 	orr.w	r3, r3, #64	; 0x40
 8000c44:	b2db      	uxtb	r3, r3
 8000c46:	737b      	strb	r3, [r7, #13]
	}

	if((IndicatorPanel0->LEDsState & LED_UP) == LED_UP)
 8000c48:	687b      	ldr	r3, [r7, #4]
 8000c4a:	7bdb      	ldrb	r3, [r3, #15]
 8000c4c:	f003 0308 	and.w	r3, r3, #8
 8000c50:	2b00      	cmp	r3, #0
 8000c52:	d004      	beq.n	8000c5e <IndicatorPanel_SetValue+0x16e>
	{
		LEDsOut |= 0x80;
 8000c54:	7b7b      	ldrb	r3, [r7, #13]
 8000c56:	f063 037f 	orn	r3, r3, #127	; 0x7f
 8000c5a:	b2db      	uxtb	r3, r3
 8000c5c:	737b      	strb	r3, [r7, #13]
	}

	// Вывод состояния светодиодов
	STLED316S_Direct_Single_Out(&LEDsOut, 2, oSTLED316S_STB1_GPIO_Port, oSTLED316S_STB1_Pin); //Прямой вывод значения (не числа) в нужный разряд идкатора
 8000c5e:	f107 000d 	add.w	r0, r7, #13
 8000c62:	2310      	movs	r3, #16
 8000c64:	4a04      	ldr	r2, [pc, #16]	; (8000c78 <IndicatorPanel_SetValue+0x188>)
 8000c66:	2102      	movs	r1, #2
 8000c68:	f000 fc44 	bl	80014f4 <STLED316S_Direct_Single_Out>
}
 8000c6c:	bf00      	nop
 8000c6e:	3710      	adds	r7, #16
 8000c70:	46bd      	mov	sp, r7
 8000c72:	bd80      	pop	{r7, pc}
 8000c74:	20004dc8 	.word	0x20004dc8
 8000c78:	40011000 	.word	0x40011000
 8000c7c:	20004dca 	.word	0x20004dca
 8000c80:	40010800 	.word	0x40010800
 8000c84:	20004dc9 	.word	0x20004dc9
 8000c88:	20004dcb 	.word	0x20004dcb
 8000c8c:	40010c00 	.word	0x40010c00

08000c90 <IndicatorPanel_SetBrightness>:
	STLED316S_Direct_Single_Out(&LEDsOut, 2, oSTLED316S_STB1_GPIO_Port, oSTLED316S_STB1_Pin); //Прямой вывод значения (не числа) в нужный разряд идкатора

}

void IndicatorPanel_SetBrightness (IndicatorValues *IndicatorPanel0)
{
 8000c90:	b580      	push	{r7, lr}
 8000c92:	b082      	sub	sp, #8
 8000c94:	af00      	add	r7, sp, #0
 8000c96:	6078      	str	r0, [r7, #4]
	if (IndicatorPanel0->Brightness > 7)
 8000c98:	687b      	ldr	r3, [r7, #4]
 8000c9a:	7a9b      	ldrb	r3, [r3, #10]
 8000c9c:	2b07      	cmp	r3, #7
 8000c9e:	d902      	bls.n	8000ca6 <IndicatorPanel_SetBrightness+0x16>
	{
		IndicatorPanel0->Brightness = 7;
 8000ca0:	687b      	ldr	r3, [r7, #4]
 8000ca2:	2207      	movs	r2, #7
 8000ca4:	729a      	strb	r2, [r3, #10]
	}
	STLED316S_SetBrightness (IndicatorPanel0->Brightness, oSTLED316S_STB1_GPIO_Port, oSTLED316S_STB1_Pin);
 8000ca6:	687b      	ldr	r3, [r7, #4]
 8000ca8:	7a9b      	ldrb	r3, [r3, #10]
 8000caa:	2210      	movs	r2, #16
 8000cac:	490e      	ldr	r1, [pc, #56]	; (8000ce8 <IndicatorPanel_SetBrightness+0x58>)
 8000cae:	4618      	mov	r0, r3
 8000cb0:	f000 fc70 	bl	8001594 <STLED316S_SetBrightness>
	STLED316S_SetBrightness (IndicatorPanel0->Brightness, oSTLED316S_STB2_GPIO_Port, oSTLED316S_STB2_Pin);
 8000cb4:	687b      	ldr	r3, [r7, #4]
 8000cb6:	7a9b      	ldrb	r3, [r3, #10]
 8000cb8:	2220      	movs	r2, #32
 8000cba:	490b      	ldr	r1, [pc, #44]	; (8000ce8 <IndicatorPanel_SetBrightness+0x58>)
 8000cbc:	4618      	mov	r0, r3
 8000cbe:	f000 fc69 	bl	8001594 <STLED316S_SetBrightness>
	STLED316S_SetBrightness (IndicatorPanel0->Brightness, oSTLED316S_STB3_GPIO_Port, oSTLED316S_STB3_Pin);
 8000cc2:	687b      	ldr	r3, [r7, #4]
 8000cc4:	7a9b      	ldrb	r3, [r3, #10]
 8000cc6:	2201      	movs	r2, #1
 8000cc8:	4908      	ldr	r1, [pc, #32]	; (8000cec <IndicatorPanel_SetBrightness+0x5c>)
 8000cca:	4618      	mov	r0, r3
 8000ccc:	f000 fc62 	bl	8001594 <STLED316S_SetBrightness>
	STLED316S_SetBrightness (IndicatorPanel0->Brightness, oSTLED316S_STB5_GPIO_Port, oSTLED316S_STB5_Pin);
 8000cd0:	687b      	ldr	r3, [r7, #4]
 8000cd2:	7a9b      	ldrb	r3, [r3, #10]
 8000cd4:	2240      	movs	r2, #64	; 0x40
 8000cd6:	4906      	ldr	r1, [pc, #24]	; (8000cf0 <IndicatorPanel_SetBrightness+0x60>)
 8000cd8:	4618      	mov	r0, r3
 8000cda:	f000 fc5b 	bl	8001594 <STLED316S_SetBrightness>
}
 8000cde:	bf00      	nop
 8000ce0:	3708      	adds	r7, #8
 8000ce2:	46bd      	mov	sp, r7
 8000ce4:	bd80      	pop	{r7, pc}
 8000ce6:	bf00      	nop
 8000ce8:	40011000 	.word	0x40011000
 8000cec:	40010c00 	.word	0x40010c00
 8000cf0:	40010800 	.word	0x40010800

08000cf4 <separate>:

int32_t separate (uint16_t in_data, uint8_t *out_data)
{
 8000cf4:	b480      	push	{r7}
 8000cf6:	b087      	sub	sp, #28
 8000cf8:	af00      	add	r7, sp, #0
 8000cfa:	4603      	mov	r3, r0
 8000cfc:	6039      	str	r1, [r7, #0]
 8000cfe:	80fb      	strh	r3, [r7, #6]
    int32_t k,i,m;
    k = in_data;
 8000d00:	88fb      	ldrh	r3, [r7, #6]
 8000d02:	617b      	str	r3, [r7, #20]
    m = 0;
 8000d04:	2300      	movs	r3, #0
 8000d06:	60fb      	str	r3, [r7, #12]

    while(k != 0)       //цикл чтобы найти количество цифр в числе
 8000d08:	e00a      	b.n	8000d20 <separate+0x2c>
    {
        k = k / 10;
 8000d0a:	697b      	ldr	r3, [r7, #20]
 8000d0c:	4a19      	ldr	r2, [pc, #100]	; (8000d74 <separate+0x80>)
 8000d0e:	fb82 1203 	smull	r1, r2, r2, r3
 8000d12:	1092      	asrs	r2, r2, #2
 8000d14:	17db      	asrs	r3, r3, #31
 8000d16:	1ad3      	subs	r3, r2, r3
 8000d18:	617b      	str	r3, [r7, #20]
        m++;
 8000d1a:	68fb      	ldr	r3, [r7, #12]
 8000d1c:	3301      	adds	r3, #1
 8000d1e:	60fb      	str	r3, [r7, #12]
    while(k != 0)       //цикл чтобы найти количество цифр в числе
 8000d20:	697b      	ldr	r3, [r7, #20]
 8000d22:	2b00      	cmp	r3, #0
 8000d24:	d1f1      	bne.n	8000d0a <separate+0x16>
    }

    for(i=m-1;i>=0;i--)
 8000d26:	68fb      	ldr	r3, [r7, #12]
 8000d28:	3b01      	subs	r3, #1
 8000d2a:	613b      	str	r3, [r7, #16]
 8000d2c:	e018      	b.n	8000d60 <separate+0x6c>
    {
    	out_data[i] = in_data%10;      //берем последнюю цифру с числа
 8000d2e:	88fa      	ldrh	r2, [r7, #6]
 8000d30:	4b11      	ldr	r3, [pc, #68]	; (8000d78 <separate+0x84>)
 8000d32:	fba3 1302 	umull	r1, r3, r3, r2
 8000d36:	08d9      	lsrs	r1, r3, #3
 8000d38:	460b      	mov	r3, r1
 8000d3a:	009b      	lsls	r3, r3, #2
 8000d3c:	440b      	add	r3, r1
 8000d3e:	005b      	lsls	r3, r3, #1
 8000d40:	1ad3      	subs	r3, r2, r3
 8000d42:	b299      	uxth	r1, r3
 8000d44:	693b      	ldr	r3, [r7, #16]
 8000d46:	683a      	ldr	r2, [r7, #0]
 8000d48:	4413      	add	r3, r2
 8000d4a:	b2ca      	uxtb	r2, r1
 8000d4c:	701a      	strb	r2, [r3, #0]
    	in_data = in_data / 10;         //забираем эту цифру с числа
 8000d4e:	88fb      	ldrh	r3, [r7, #6]
 8000d50:	4a09      	ldr	r2, [pc, #36]	; (8000d78 <separate+0x84>)
 8000d52:	fba2 2303 	umull	r2, r3, r2, r3
 8000d56:	08db      	lsrs	r3, r3, #3
 8000d58:	80fb      	strh	r3, [r7, #6]
    for(i=m-1;i>=0;i--)
 8000d5a:	693b      	ldr	r3, [r7, #16]
 8000d5c:	3b01      	subs	r3, #1
 8000d5e:	613b      	str	r3, [r7, #16]
 8000d60:	693b      	ldr	r3, [r7, #16]
 8000d62:	2b00      	cmp	r3, #0
 8000d64:	dae3      	bge.n	8000d2e <separate+0x3a>
    }

    return m;
 8000d66:	68fb      	ldr	r3, [r7, #12]
}
 8000d68:	4618      	mov	r0, r3
 8000d6a:	371c      	adds	r7, #28
 8000d6c:	46bd      	mov	sp, r7
 8000d6e:	bc80      	pop	{r7}
 8000d70:	4770      	bx	lr
 8000d72:	bf00      	nop
 8000d74:	66666667 	.word	0x66666667
 8000d78:	cccccccd 	.word	0xcccccccd

08000d7c <IndicatorPanel_offset_4dig>:

void IndicatorPanel_offset_4dig (uint8_t num, uint8_t *dataArray)
{
 8000d7c:	b480      	push	{r7}
 8000d7e:	b083      	sub	sp, #12
 8000d80:	af00      	add	r7, sp, #0
 8000d82:	4603      	mov	r3, r0
 8000d84:	6039      	str	r1, [r7, #0]
 8000d86:	71fb      	strb	r3, [r7, #7]
	switch(num)
 8000d88:	79fb      	ldrb	r3, [r7, #7]
 8000d8a:	3b01      	subs	r3, #1
 8000d8c:	2b03      	cmp	r3, #3
 8000d8e:	d841      	bhi.n	8000e14 <IndicatorPanel_offset_4dig+0x98>
 8000d90:	a201      	add	r2, pc, #4	; (adr r2, 8000d98 <IndicatorPanel_offset_4dig+0x1c>)
 8000d92:	f852 f023 	ldr.w	pc, [r2, r3, lsl #2]
 8000d96:	bf00      	nop
 8000d98:	08000da9 	.word	0x08000da9
 8000d9c:	08000dcb 	.word	0x08000dcb
 8000da0:	08000def 	.word	0x08000def
 8000da4:	08000e15 	.word	0x08000e15
	{

	case 1:
	{
		dataArray[3] = dataArray[0];
 8000da8:	683b      	ldr	r3, [r7, #0]
 8000daa:	3303      	adds	r3, #3
 8000dac:	683a      	ldr	r2, [r7, #0]
 8000dae:	7812      	ldrb	r2, [r2, #0]
 8000db0:	701a      	strb	r2, [r3, #0]
		dataArray[2] = 0;
 8000db2:	683b      	ldr	r3, [r7, #0]
 8000db4:	3302      	adds	r3, #2
 8000db6:	2200      	movs	r2, #0
 8000db8:	701a      	strb	r2, [r3, #0]
		dataArray[1] = 0;
 8000dba:	683b      	ldr	r3, [r7, #0]
 8000dbc:	3301      	adds	r3, #1
 8000dbe:	2200      	movs	r2, #0
 8000dc0:	701a      	strb	r2, [r3, #0]
		dataArray[0] = 0;
 8000dc2:	683b      	ldr	r3, [r7, #0]
 8000dc4:	2200      	movs	r2, #0
 8000dc6:	701a      	strb	r2, [r3, #0]
		break;
 8000dc8:	e025      	b.n	8000e16 <IndicatorPanel_offset_4dig+0x9a>
	}

	case 2:
	{
		dataArray[3] = dataArray[1];
 8000dca:	683b      	ldr	r3, [r7, #0]
 8000dcc:	3303      	adds	r3, #3
 8000dce:	683a      	ldr	r2, [r7, #0]
 8000dd0:	7852      	ldrb	r2, [r2, #1]
 8000dd2:	701a      	strb	r2, [r3, #0]
		dataArray[2] = dataArray[0];
 8000dd4:	683b      	ldr	r3, [r7, #0]
 8000dd6:	3302      	adds	r3, #2
 8000dd8:	683a      	ldr	r2, [r7, #0]
 8000dda:	7812      	ldrb	r2, [r2, #0]
 8000ddc:	701a      	strb	r2, [r3, #0]
		dataArray[1] = 0;
 8000dde:	683b      	ldr	r3, [r7, #0]
 8000de0:	3301      	adds	r3, #1
 8000de2:	2200      	movs	r2, #0
 8000de4:	701a      	strb	r2, [r3, #0]
		dataArray[0] = 0;
 8000de6:	683b      	ldr	r3, [r7, #0]
 8000de8:	2200      	movs	r2, #0
 8000dea:	701a      	strb	r2, [r3, #0]
		break;
 8000dec:	e013      	b.n	8000e16 <IndicatorPanel_offset_4dig+0x9a>
	}

	case 3:
	{
		dataArray[3] = dataArray[2];
 8000dee:	683b      	ldr	r3, [r7, #0]
 8000df0:	3303      	adds	r3, #3
 8000df2:	683a      	ldr	r2, [r7, #0]
 8000df4:	7892      	ldrb	r2, [r2, #2]
 8000df6:	701a      	strb	r2, [r3, #0]
		dataArray[2] = dataArray[1];
 8000df8:	683b      	ldr	r3, [r7, #0]
 8000dfa:	3302      	adds	r3, #2
 8000dfc:	683a      	ldr	r2, [r7, #0]
 8000dfe:	7852      	ldrb	r2, [r2, #1]
 8000e00:	701a      	strb	r2, [r3, #0]
		dataArray[1] = dataArray[0];
 8000e02:	683b      	ldr	r3, [r7, #0]
 8000e04:	3301      	adds	r3, #1
 8000e06:	683a      	ldr	r2, [r7, #0]
 8000e08:	7812      	ldrb	r2, [r2, #0]
 8000e0a:	701a      	strb	r2, [r3, #0]
		dataArray[0] = 0;
 8000e0c:	683b      	ldr	r3, [r7, #0]
 8000e0e:	2200      	movs	r2, #0
 8000e10:	701a      	strb	r2, [r3, #0]

		break;
 8000e12:	e000      	b.n	8000e16 <IndicatorPanel_offset_4dig+0x9a>
		break;
	}

default:
{
	break;
 8000e14:	bf00      	nop
}

	}

}
 8000e16:	bf00      	nop
 8000e18:	370c      	adds	r7, #12
 8000e1a:	46bd      	mov	sp, r7
 8000e1c:	bc80      	pop	{r7}
 8000e1e:	4770      	bx	lr

08000e20 <IndicatorPanel_offset_3dig>:

}


void IndicatorPanel_offset_3dig (uint8_t num, uint8_t *dataArray)
{
 8000e20:	b480      	push	{r7}
 8000e22:	b083      	sub	sp, #12
 8000e24:	af00      	add	r7, sp, #0
 8000e26:	4603      	mov	r3, r0
 8000e28:	6039      	str	r1, [r7, #0]
 8000e2a:	71fb      	strb	r3, [r7, #7]
	switch(num)
 8000e2c:	79fb      	ldrb	r3, [r7, #7]
 8000e2e:	2b03      	cmp	r3, #3
 8000e30:	d021      	beq.n	8000e76 <IndicatorPanel_offset_3dig+0x56>
 8000e32:	2b03      	cmp	r3, #3
 8000e34:	dc21      	bgt.n	8000e7a <IndicatorPanel_offset_3dig+0x5a>
 8000e36:	2b01      	cmp	r3, #1
 8000e38:	d002      	beq.n	8000e40 <IndicatorPanel_offset_3dig+0x20>
 8000e3a:	2b02      	cmp	r3, #2
 8000e3c:	d00d      	beq.n	8000e5a <IndicatorPanel_offset_3dig+0x3a>
		break;
	}

default:
{
	break;
 8000e3e:	e01c      	b.n	8000e7a <IndicatorPanel_offset_3dig+0x5a>
		dataArray[2] = dataArray[0];
 8000e40:	683b      	ldr	r3, [r7, #0]
 8000e42:	3302      	adds	r3, #2
 8000e44:	683a      	ldr	r2, [r7, #0]
 8000e46:	7812      	ldrb	r2, [r2, #0]
 8000e48:	701a      	strb	r2, [r3, #0]
		dataArray[1] = 0;
 8000e4a:	683b      	ldr	r3, [r7, #0]
 8000e4c:	3301      	adds	r3, #1
 8000e4e:	2200      	movs	r2, #0
 8000e50:	701a      	strb	r2, [r3, #0]
		dataArray[0] = 0;
 8000e52:	683b      	ldr	r3, [r7, #0]
 8000e54:	2200      	movs	r2, #0
 8000e56:	701a      	strb	r2, [r3, #0]
		break;
 8000e58:	e010      	b.n	8000e7c <IndicatorPanel_offset_3dig+0x5c>
		dataArray[2] = dataArray[1];
 8000e5a:	683b      	ldr	r3, [r7, #0]
 8000e5c:	3302      	adds	r3, #2
 8000e5e:	683a      	ldr	r2, [r7, #0]
 8000e60:	7852      	ldrb	r2, [r2, #1]
 8000e62:	701a      	strb	r2, [r3, #0]
		dataArray[1] = dataArray[0];
 8000e64:	683b      	ldr	r3, [r7, #0]
 8000e66:	3301      	adds	r3, #1
 8000e68:	683a      	ldr	r2, [r7, #0]
 8000e6a:	7812      	ldrb	r2, [r2, #0]
 8000e6c:	701a      	strb	r2, [r3, #0]
		dataArray[0] = 0;
 8000e6e:	683b      	ldr	r3, [r7, #0]
 8000e70:	2200      	movs	r2, #0
 8000e72:	701a      	strb	r2, [r3, #0]
		break;
 8000e74:	e002      	b.n	8000e7c <IndicatorPanel_offset_3dig+0x5c>
		break;
 8000e76:	bf00      	nop
 8000e78:	e000      	b.n	8000e7c <IndicatorPanel_offset_3dig+0x5c>
	break;
 8000e7a:	bf00      	nop
}

	}

}
 8000e7c:	bf00      	nop
 8000e7e:	370c      	adds	r7, #12
 8000e80:	46bd      	mov	sp, r7
 8000e82:	bc80      	pop	{r7}
 8000e84:	4770      	bx	lr
	...

08000e88 <Carriage_Move>:

void Carriage_Move (uint16_t Speed, uint8_t Dir, uint8_t NumSM)
{
 8000e88:	b580      	push	{r7, lr}
 8000e8a:	b088      	sub	sp, #32
 8000e8c:	af04      	add	r7, sp, #16
 8000e8e:	4603      	mov	r3, r0
 8000e90:	80fb      	strh	r3, [r7, #6]
 8000e92:	460b      	mov	r3, r1
 8000e94:	717b      	strb	r3, [r7, #5]
 8000e96:	4613      	mov	r3, r2
 8000e98:	713b      	strb	r3, [r7, #4]

uint16_t freq_pwm;

	freq_pwm = ((Speed / (60/10)) * STEPS_PER_ROTATE) / DISTANCE_PER_ROTATE; // Вычисление частоты ШИМ для скорости в см/мин
 8000e9a:	88fb      	ldrh	r3, [r7, #6]
 8000e9c:	4a19      	ldr	r2, [pc, #100]	; (8000f04 <Carriage_Move+0x7c>)
 8000e9e:	fba2 2303 	umull	r2, r3, r2, r3
 8000ea2:	089b      	lsrs	r3, r3, #2
 8000ea4:	b29b      	uxth	r3, r3
 8000ea6:	4618      	mov	r0, r3
 8000ea8:	f7ff fb14 	bl	80004d4 <__aeabi_i2d>
 8000eac:	f04f 0200 	mov.w	r2, #0
 8000eb0:	4b15      	ldr	r3, [pc, #84]	; (8000f08 <Carriage_Move+0x80>)
 8000eb2:	f7ff fb79 	bl	80005a8 <__aeabi_dmul>
 8000eb6:	4602      	mov	r2, r0
 8000eb8:	460b      	mov	r3, r1
 8000eba:	4610      	mov	r0, r2
 8000ebc:	4619      	mov	r1, r3
 8000ebe:	f04f 0200 	mov.w	r2, #0
 8000ec2:	4b12      	ldr	r3, [pc, #72]	; (8000f0c <Carriage_Move+0x84>)
 8000ec4:	f7ff fc9a 	bl	80007fc <__aeabi_ddiv>
 8000ec8:	4602      	mov	r2, r0
 8000eca:	460b      	mov	r3, r1
 8000ecc:	4610      	mov	r0, r2
 8000ece:	4619      	mov	r1, r3
 8000ed0:	f7ff fd7c 	bl	80009cc <__aeabi_d2uiz>
 8000ed4:	4603      	mov	r3, r0
 8000ed6:	81fb      	strh	r3, [r7, #14]

	if (NumSM == 1)
 8000ed8:	793b      	ldrb	r3, [r7, #4]
 8000eda:	2b01      	cmp	r3, #1
 8000edc:	d10d      	bne.n	8000efa <Carriage_Move+0x72>
	{
		MicrostepDriver_Run (freq_pwm, Dir, oSMD_EN1_GPIO_Port, oSMD_EN1_Pin, oDIR1_GPIO_Port,  oDIR1_Pin, TIM_CHANNEL_1);
 8000ede:	7979      	ldrb	r1, [r7, #5]
 8000ee0:	89f8      	ldrh	r0, [r7, #14]
 8000ee2:	2300      	movs	r3, #0
 8000ee4:	9302      	str	r3, [sp, #8]
 8000ee6:	f44f 7380 	mov.w	r3, #256	; 0x100
 8000eea:	9301      	str	r3, [sp, #4]
 8000eec:	4b08      	ldr	r3, [pc, #32]	; (8000f10 <Carriage_Move+0x88>)
 8000eee:	9300      	str	r3, [sp, #0]
 8000ef0:	f44f 6300 	mov.w	r3, #2048	; 0x800
 8000ef4:	4a07      	ldr	r2, [pc, #28]	; (8000f14 <Carriage_Move+0x8c>)
 8000ef6:	f7ff fda1 	bl	8000a3c <MicrostepDriver_Run>
	}
}
 8000efa:	bf00      	nop
 8000efc:	3710      	adds	r7, #16
 8000efe:	46bd      	mov	sp, r7
 8000f00:	bd80      	pop	{r7, pc}
 8000f02:	bf00      	nop
 8000f04:	aaaaaaab 	.word	0xaaaaaaab
 8000f08:	40690000 	.word	0x40690000
 8000f0c:	404e0000 	.word	0x404e0000
 8000f10:	40011000 	.word	0x40011000
 8000f14:	40010800 	.word	0x40010800

08000f18 <PCB_KeyScan>:

void PCB_KeyScan (void)
{
 8000f18:	b580      	push	{r7, lr}
 8000f1a:	af00      	add	r7, sp, #0
	STLED316S_ReciveData(&WelderUnit.IndicatorPanel.KeyState[0], oSTLED316S_STB5_GPIO_Port, oSTLED316S_STB5_Pin);
 8000f1c:	2240      	movs	r2, #64	; 0x40
 8000f1e:	4905      	ldr	r1, [pc, #20]	; (8000f34 <PCB_KeyScan+0x1c>)
 8000f20:	4805      	ldr	r0, [pc, #20]	; (8000f38 <PCB_KeyScan+0x20>)
 8000f22:	f000 fb91 	bl	8001648 <STLED316S_ReciveData>
	STLED316S_ReciveData(&WelderUnit.IndicatorPanel.KeyState[2], oSTLED316S_STB3_GPIO_Port, oSTLED316S_STB3_Pin);
 8000f26:	2201      	movs	r2, #1
 8000f28:	4904      	ldr	r1, [pc, #16]	; (8000f3c <PCB_KeyScan+0x24>)
 8000f2a:	4805      	ldr	r0, [pc, #20]	; (8000f40 <PCB_KeyScan+0x28>)
 8000f2c:	f000 fb8c 	bl	8001648 <STLED316S_ReciveData>
}
 8000f30:	bf00      	nop
 8000f32:	bd80      	pop	{r7, pc}
 8000f34:	40010800 	.word	0x40010800
 8000f38:	20004559 	.word	0x20004559
 8000f3c:	40010c00 	.word	0x40010c00
 8000f40:	2000455b 	.word	0x2000455b

08000f44 <PCB_InputsScan>:

void PCB_InputsScan (void)
{
 8000f44:	b580      	push	{r7, lr}
 8000f46:	af00      	add	r7, sp, #0
	if (HAL_GPIO_ReadPin(iPedal_L_GPIO_Port, iPedal_L_Pin)) // Если Нажата педаль для зажима левой части заготовки, то установить бит, иначе сбросить
 8000f48:	2101      	movs	r1, #1
 8000f4a:	482e      	ldr	r0, [pc, #184]	; (8001004 <PCB_InputsScan+0xc0>)
 8000f4c:	f003 fb5a 	bl	8004604 <HAL_GPIO_ReadPin>
 8000f50:	4603      	mov	r3, r0
 8000f52:	2b00      	cmp	r3, #0
 8000f54:	d00c      	beq.n	8000f70 <PCB_InputsScan+0x2c>
	{
		WelderUnit.State |= WELDER_STATE_PEDAL_L;
 8000f56:	4b2c      	ldr	r3, [pc, #176]	; (8001008 <PCB_InputsScan+0xc4>)
 8000f58:	7c1b      	ldrb	r3, [r3, #16]
 8000f5a:	f043 0320 	orr.w	r3, r3, #32
 8000f5e:	b2da      	uxtb	r2, r3
 8000f60:	4b29      	ldr	r3, [pc, #164]	; (8001008 <PCB_InputsScan+0xc4>)
 8000f62:	741a      	strb	r2, [r3, #16]
		Valve_L_CLOSE
 8000f64:	2201      	movs	r2, #1
 8000f66:	2180      	movs	r1, #128	; 0x80
 8000f68:	4828      	ldr	r0, [pc, #160]	; (800100c <PCB_InputsScan+0xc8>)
 8000f6a:	f003 fb62 	bl	8004632 <HAL_GPIO_WritePin>
 8000f6e:	e00b      	b.n	8000f88 <PCB_InputsScan+0x44>
	}
	else
	{
		WelderUnit.State &= ~WELDER_STATE_PEDAL_L;
 8000f70:	4b25      	ldr	r3, [pc, #148]	; (8001008 <PCB_InputsScan+0xc4>)
 8000f72:	7c1b      	ldrb	r3, [r3, #16]
 8000f74:	f023 0320 	bic.w	r3, r3, #32
 8000f78:	b2da      	uxtb	r2, r3
 8000f7a:	4b23      	ldr	r3, [pc, #140]	; (8001008 <PCB_InputsScan+0xc4>)
 8000f7c:	741a      	strb	r2, [r3, #16]
		Valve_L_OPEN
 8000f7e:	2200      	movs	r2, #0
 8000f80:	2180      	movs	r1, #128	; 0x80
 8000f82:	4822      	ldr	r0, [pc, #136]	; (800100c <PCB_InputsScan+0xc8>)
 8000f84:	f003 fb55 	bl	8004632 <HAL_GPIO_WritePin>
	}

	if (HAL_GPIO_ReadPin(iPedal_R_GPIO_Port, iPedal_R_Pin)) // Если Нажата педаль для зажима правой части заготовки, то установить бит, иначе сбросить
 8000f88:	2108      	movs	r1, #8
 8000f8a:	481e      	ldr	r0, [pc, #120]	; (8001004 <PCB_InputsScan+0xc0>)
 8000f8c:	f003 fb3a 	bl	8004604 <HAL_GPIO_ReadPin>
 8000f90:	4603      	mov	r3, r0
 8000f92:	2b00      	cmp	r3, #0
 8000f94:	d00c      	beq.n	8000fb0 <PCB_InputsScan+0x6c>
	{
		WelderUnit.State |= WELDER_STATE_PEDAL_R;
 8000f96:	4b1c      	ldr	r3, [pc, #112]	; (8001008 <PCB_InputsScan+0xc4>)
 8000f98:	7c1b      	ldrb	r3, [r3, #16]
 8000f9a:	f043 0340 	orr.w	r3, r3, #64	; 0x40
 8000f9e:	b2da      	uxtb	r2, r3
 8000fa0:	4b19      	ldr	r3, [pc, #100]	; (8001008 <PCB_InputsScan+0xc4>)
 8000fa2:	741a      	strb	r2, [r3, #16]
		Valve_R_CLOSE
 8000fa4:	2201      	movs	r2, #1
 8000fa6:	2140      	movs	r1, #64	; 0x40
 8000fa8:	4818      	ldr	r0, [pc, #96]	; (800100c <PCB_InputsScan+0xc8>)
 8000faa:	f003 fb42 	bl	8004632 <HAL_GPIO_WritePin>
 8000fae:	e00b      	b.n	8000fc8 <PCB_InputsScan+0x84>
	}
	else
	{
		WelderUnit.State &= ~WELDER_STATE_PEDAL_R;
 8000fb0:	4b15      	ldr	r3, [pc, #84]	; (8001008 <PCB_InputsScan+0xc4>)
 8000fb2:	7c1b      	ldrb	r3, [r3, #16]
 8000fb4:	f023 0340 	bic.w	r3, r3, #64	; 0x40
 8000fb8:	b2da      	uxtb	r2, r3
 8000fba:	4b13      	ldr	r3, [pc, #76]	; (8001008 <PCB_InputsScan+0xc4>)
 8000fbc:	741a      	strb	r2, [r3, #16]
		Valve_R_OPEN
 8000fbe:	2200      	movs	r2, #0
 8000fc0:	2140      	movs	r1, #64	; 0x40
 8000fc2:	4812      	ldr	r0, [pc, #72]	; (800100c <PCB_InputsScan+0xc8>)
 8000fc4:	f003 fb35 	bl	8004632 <HAL_GPIO_WritePin>
	}

	if (HAL_GPIO_ReadPin(iBackDoor_GPIO_Port, iBackDoor_Pin)) // Если задняя дверца закрыта, то установить бит, иначе сбросить
 8000fc8:	f44f 5180 	mov.w	r1, #4096	; 0x1000
 8000fcc:	480f      	ldr	r0, [pc, #60]	; (800100c <PCB_InputsScan+0xc8>)
 8000fce:	f003 fb19 	bl	8004604 <HAL_GPIO_ReadPin>
 8000fd2:	4603      	mov	r3, r0
 8000fd4:	2b00      	cmp	r3, #0
 8000fd6:	d00c      	beq.n	8000ff2 <PCB_InputsScan+0xae>
	{
		WelderUnit.State |= WELDER_STATE_BACK_DOOR_CLOSE;
 8000fd8:	4b0b      	ldr	r3, [pc, #44]	; (8001008 <PCB_InputsScan+0xc4>)
 8000fda:	7c1b      	ldrb	r3, [r3, #16]
 8000fdc:	f043 0310 	orr.w	r3, r3, #16
 8000fe0:	b2da      	uxtb	r2, r3
 8000fe2:	4b09      	ldr	r3, [pc, #36]	; (8001008 <PCB_InputsScan+0xc4>)
 8000fe4:	741a      	strb	r2, [r3, #16]
		WELDER_HEAD_UP
 8000fe6:	2201      	movs	r2, #1
 8000fe8:	2106      	movs	r1, #6
 8000fea:	4809      	ldr	r0, [pc, #36]	; (8001010 <PCB_InputsScan+0xcc>)
 8000fec:	f003 fb21 	bl	8004632 <HAL_GPIO_WritePin>
	}
	else
	{
		WelderUnit.State &= ~WELDER_STATE_BACK_DOOR_CLOSE;
	}
}
 8000ff0:	e006      	b.n	8001000 <PCB_InputsScan+0xbc>
		WelderUnit.State &= ~WELDER_STATE_BACK_DOOR_CLOSE;
 8000ff2:	4b05      	ldr	r3, [pc, #20]	; (8001008 <PCB_InputsScan+0xc4>)
 8000ff4:	7c1b      	ldrb	r3, [r3, #16]
 8000ff6:	f023 0310 	bic.w	r3, r3, #16
 8000ffa:	b2da      	uxtb	r2, r3
 8000ffc:	4b02      	ldr	r3, [pc, #8]	; (8001008 <PCB_InputsScan+0xc4>)
 8000ffe:	741a      	strb	r2, [r3, #16]
}
 8001000:	bf00      	nop
 8001002:	bd80      	pop	{r7, pc}
 8001004:	40010800 	.word	0x40010800
 8001008:	2000453c 	.word	0x2000453c
 800100c:	40010c00 	.word	0x40010c00
 8001010:	40011000 	.word	0x40011000

08001014 <HAL_GPIO_EXTI_Callback>:

void HAL_GPIO_EXTI_Callback(uint16_t GPIO_Pin)
{
 8001014:	b580      	push	{r7, lr}
 8001016:	b082      	sub	sp, #8
 8001018:	af00      	add	r7, sp, #0
 800101a:	4603      	mov	r3, r0
 800101c:	80fb      	strh	r3, [r7, #6]
	if (HAL_GPIO_ReadPin(iSTLED316S_IRQN5_GPIO_Port, iSTLED316S_IRQN5_Pin) == GPIO_PIN_RESET)
 800101e:	f44f 6100 	mov.w	r1, #2048	; 0x800
 8001022:	4822      	ldr	r0, [pc, #136]	; (80010ac <HAL_GPIO_EXTI_Callback+0x98>)
 8001024:	f003 faee 	bl	8004604 <HAL_GPIO_ReadPin>

	}



	if (HAL_GPIO_ReadPin(iFB_STEP1_GPIO_Port, iFB_STEP1_Pin) == GPIO_PIN_SET)
 8001028:	f44f 5180 	mov.w	r1, #4096	; 0x1000
 800102c:	4820      	ldr	r0, [pc, #128]	; (80010b0 <HAL_GPIO_EXTI_Callback+0x9c>)
 800102e:	f003 fae9 	bl	8004604 <HAL_GPIO_ReadPin>
 8001032:	4603      	mov	r3, r0
 8001034:	2b01      	cmp	r3, #1
 8001036:	d10e      	bne.n	8001056 <HAL_GPIO_EXTI_Callback+0x42>
		//#define configASSERT( x ) if ((x) == 0) {taskDISABLE_INTERRUPTS(); for( ;; );}
		// Без этого не работают семафоры


		static portBASE_TYPE xHigherPriorityTaskWoken;
		  xHigherPriorityTaskWoken = pdFALSE; // Не переключать контекст
 8001038:	4b1e      	ldr	r3, [pc, #120]	; (80010b4 <HAL_GPIO_EXTI_Callback+0xa0>)
 800103a:	2200      	movs	r2, #0
 800103c:	601a      	str	r2, [r3, #0]

		  //WelderUnit.Position = WelderUnit.Steps * DISTANCE_PER_ROTATE / STEPS_PER_ROTATE; // Вычисление текущей позиции каретки, мм

			  xSemaphoreGiveFromISR(xSemaphore_StepCount,&xHigherPriorityTaskWoken);
 800103e:	4b1e      	ldr	r3, [pc, #120]	; (80010b8 <HAL_GPIO_EXTI_Callback+0xa4>)
 8001040:	681b      	ldr	r3, [r3, #0]
 8001042:	491c      	ldr	r1, [pc, #112]	; (80010b4 <HAL_GPIO_EXTI_Callback+0xa0>)
 8001044:	4618      	mov	r0, r3
 8001046:	f006 f909 	bl	800725c <xQueueGiveFromISR>


		if( xHigherPriorityTaskWoken == pdTRUE )
 800104a:	4b1a      	ldr	r3, [pc, #104]	; (80010b4 <HAL_GPIO_EXTI_Callback+0xa0>)
 800104c:	681b      	ldr	r3, [r3, #0]
 800104e:	2b01      	cmp	r3, #1
 8001050:	d101      	bne.n	8001056 <HAL_GPIO_EXTI_Callback+0x42>
				вместе с портом FreeRTOS. */
			 //portSWITCH_CONTEXT();
			//vTaskSwitchContext();
			//portYIELD_FROM_ISR(NULL);

			vTaskMissedYield(); // Переключение контекста. Нужно тестить, возможно переключение контекста не происходит
 8001052:	f007 f94d 	bl	80082f0 <vTaskMissedYield>

		  }
	}

	if (HAL_GPIO_ReadPin(iCarriageStop_GPIO_Port, iCarriageStop_Pin) == GPIO_PIN_SET)
 8001056:	f44f 7100 	mov.w	r1, #512	; 0x200
 800105a:	4814      	ldr	r0, [pc, #80]	; (80010ac <HAL_GPIO_EXTI_Callback+0x98>)
 800105c:	f003 fad2 	bl	8004604 <HAL_GPIO_ReadPin>
 8001060:	4603      	mov	r3, r0
 8001062:	2b01      	cmp	r3, #1
 8001064:	d116      	bne.n	8001094 <HAL_GPIO_EXTI_Callback+0x80>
		// В файле FreeRTOSConfig.h закомментировать
		//#define configASSERT( x ) if ((x) == 0) {taskDISABLE_INTERRUPTS(); for( ;; );}
		// Без этого не работают семафоры

		static portBASE_TYPE xHigherPriorityTaskWoken2;
		  xHigherPriorityTaskWoken2 = pdFALSE; // Не переключать контекст
 8001066:	4b15      	ldr	r3, [pc, #84]	; (80010bc <HAL_GPIO_EXTI_Callback+0xa8>)
 8001068:	2200      	movs	r2, #0
 800106a:	601a      	str	r2, [r3, #0]

		  //WelderUnit.Position = WelderUnit.Steps * DISTANCE_PER_ROTATE / STEPS_PER_ROTATE; // Вычисление текущей позиции каретки, мм

			  xSemaphoreGiveFromISR(xSemaphore_Calibration, &xHigherPriorityTaskWoken2);
 800106c:	4b14      	ldr	r3, [pc, #80]	; (80010c0 <HAL_GPIO_EXTI_Callback+0xac>)
 800106e:	681b      	ldr	r3, [r3, #0]
 8001070:	4912      	ldr	r1, [pc, #72]	; (80010bc <HAL_GPIO_EXTI_Callback+0xa8>)
 8001072:	4618      	mov	r0, r3
 8001074:	f006 f8f2 	bl	800725c <xQueueGiveFromISR>

			  WelderUnit.State |= 1<<3; // 3 бит - Состояние вывода iCarriageStop, 1 - коневик нажат кареткой
 8001078:	4b12      	ldr	r3, [pc, #72]	; (80010c4 <HAL_GPIO_EXTI_Callback+0xb0>)
 800107a:	7c1b      	ldrb	r3, [r3, #16]
 800107c:	f043 0308 	orr.w	r3, r3, #8
 8001080:	b2da      	uxtb	r2, r3
 8001082:	4b10      	ldr	r3, [pc, #64]	; (80010c4 <HAL_GPIO_EXTI_Callback+0xb0>)
 8001084:	741a      	strb	r2, [r3, #16]


		if( xHigherPriorityTaskWoken2 == pdTRUE )
 8001086:	4b0d      	ldr	r3, [pc, #52]	; (80010bc <HAL_GPIO_EXTI_Callback+0xa8>)
 8001088:	681b      	ldr	r3, [r3, #0]
 800108a:	2b01      	cmp	r3, #1
 800108c:	d109      	bne.n	80010a2 <HAL_GPIO_EXTI_Callback+0x8e>
		  {
			vTaskMissedYield(); // Переключение контекста. Нужно тестить, возможно переключение контекста не происходит
 800108e:	f007 f92f 	bl	80082f0 <vTaskMissedYield>
	{
		WelderUnit.State &= ~0x08; //// 3 бит - Состояние вывода iCarriageStop 0 - коневик отжат.

	}

}
 8001092:	e006      	b.n	80010a2 <HAL_GPIO_EXTI_Callback+0x8e>
		WelderUnit.State &= ~0x08; //// 3 бит - Состояние вывода iCarriageStop 0 - коневик отжат.
 8001094:	4b0b      	ldr	r3, [pc, #44]	; (80010c4 <HAL_GPIO_EXTI_Callback+0xb0>)
 8001096:	7c1b      	ldrb	r3, [r3, #16]
 8001098:	f023 0308 	bic.w	r3, r3, #8
 800109c:	b2da      	uxtb	r2, r3
 800109e:	4b09      	ldr	r3, [pc, #36]	; (80010c4 <HAL_GPIO_EXTI_Callback+0xb0>)
 80010a0:	741a      	strb	r2, [r3, #16]
}
 80010a2:	bf00      	nop
 80010a4:	3708      	adds	r7, #8
 80010a6:	46bd      	mov	sp, r7
 80010a8:	bd80      	pop	{r7, pc}
 80010aa:	bf00      	nop
 80010ac:	40010c00 	.word	0x40010c00
 80010b0:	40011000 	.word	0x40011000
 80010b4:	2000002c 	.word	0x2000002c
 80010b8:	20004560 	.word	0x20004560
 80010bc:	20000030 	.word	0x20000030
 80010c0:	20004dc4 	.word	0x20004dc4
 80010c4:	2000453c 	.word	0x2000453c

080010c8 <SaveProgramToFlash2>:

void SaveProgramToFlash2()
{
 80010c8:	b580      	push	{r7, lr}
 80010ca:	b082      	sub	sp, #8
 80010cc:	af00      	add	r7, sp, #0
	uint32_t *p; // Указатель на считваемые из flash памяти данные

	uint16_t offset = 0;
 80010ce:	2300      	movs	r3, #0
 80010d0:	80bb      	strh	r3, [r7, #4]

	p = (uint32_t*)PAGE; // p содержит начальный адрес записи параметров программы
 80010d2:	4b3c      	ldr	r3, [pc, #240]	; (80011c4 <SaveProgramToFlash2+0xfc>)
 80010d4:	603b      	str	r3, [r7, #0]

	for(uint16_t i = 0; i < 256; i++)
 80010d6:	2300      	movs	r3, #0
 80010d8:	80fb      	strh	r3, [r7, #6]
 80010da:	e010      	b.n	80010fe <SaveProgramToFlash2+0x36>
	{
		ReadFlashPage[i] = *(p + i);
 80010dc:	88fb      	ldrh	r3, [r7, #6]
 80010de:	009b      	lsls	r3, r3, #2
 80010e0:	683a      	ldr	r2, [r7, #0]
 80010e2:	4413      	add	r3, r2
 80010e4:	681b      	ldr	r3, [r3, #0]
 80010e6:	88f9      	ldrh	r1, [r7, #6]
 80010e8:	461a      	mov	r2, r3
 80010ea:	f04f 0300 	mov.w	r3, #0
 80010ee:	4836      	ldr	r0, [pc, #216]	; (80011c8 <SaveProgramToFlash2+0x100>)
 80010f0:	00c9      	lsls	r1, r1, #3
 80010f2:	4401      	add	r1, r0
 80010f4:	e9c1 2300 	strd	r2, r3, [r1]
	for(uint16_t i = 0; i < 256; i++)
 80010f8:	88fb      	ldrh	r3, [r7, #6]
 80010fa:	3301      	adds	r3, #1
 80010fc:	80fb      	strh	r3, [r7, #6]
 80010fe:	88fb      	ldrh	r3, [r7, #6]
 8001100:	2bff      	cmp	r3, #255	; 0xff
 8001102:	d9eb      	bls.n	80010dc <SaveProgramToFlash2+0x14>
	}

	offset = WelderUnit.Program * 6;
 8001104:	4b31      	ldr	r3, [pc, #196]	; (80011cc <SaveProgramToFlash2+0x104>)
 8001106:	899b      	ldrh	r3, [r3, #12]
 8001108:	461a      	mov	r2, r3
 800110a:	0052      	lsls	r2, r2, #1
 800110c:	4413      	add	r3, r2
 800110e:	005b      	lsls	r3, r3, #1
 8001110:	80bb      	strh	r3, [r7, #4]

	ReadFlashPage[offset] = WelderUnit.Program;
 8001112:	4b2e      	ldr	r3, [pc, #184]	; (80011cc <SaveProgramToFlash2+0x104>)
 8001114:	899b      	ldrh	r3, [r3, #12]
 8001116:	88b9      	ldrh	r1, [r7, #4]
 8001118:	b29a      	uxth	r2, r3
 800111a:	f04f 0300 	mov.w	r3, #0
 800111e:	482a      	ldr	r0, [pc, #168]	; (80011c8 <SaveProgramToFlash2+0x100>)
 8001120:	00c9      	lsls	r1, r1, #3
 8001122:	4401      	add	r1, r0
 8001124:	e9c1 2300 	strd	r2, r3, [r1]
	ReadFlashPage[offset + 1] = WelderUnit.Xs;
 8001128:	4b28      	ldr	r3, [pc, #160]	; (80011cc <SaveProgramToFlash2+0x104>)
 800112a:	881b      	ldrh	r3, [r3, #0]
 800112c:	88ba      	ldrh	r2, [r7, #4]
 800112e:	1c51      	adds	r1, r2, #1
 8001130:	b29a      	uxth	r2, r3
 8001132:	f04f 0300 	mov.w	r3, #0
 8001136:	4824      	ldr	r0, [pc, #144]	; (80011c8 <SaveProgramToFlash2+0x100>)
 8001138:	00c9      	lsls	r1, r1, #3
 800113a:	4401      	add	r1, r0
 800113c:	e9c1 2300 	strd	r2, r3, [r1]
	ReadFlashPage[offset + 2] = WelderUnit.Xf;
 8001140:	4b22      	ldr	r3, [pc, #136]	; (80011cc <SaveProgramToFlash2+0x104>)
 8001142:	885b      	ldrh	r3, [r3, #2]
 8001144:	88ba      	ldrh	r2, [r7, #4]
 8001146:	1c91      	adds	r1, r2, #2
 8001148:	b29a      	uxth	r2, r3
 800114a:	f04f 0300 	mov.w	r3, #0
 800114e:	481e      	ldr	r0, [pc, #120]	; (80011c8 <SaveProgramToFlash2+0x100>)
 8001150:	00c9      	lsls	r1, r1, #3
 8001152:	4401      	add	r1, r0
 8001154:	e9c1 2300 	strd	r2, r3, [r1]
	ReadFlashPage[offset + 3] = WelderUnit.Speed;
 8001158:	4b1c      	ldr	r3, [pc, #112]	; (80011cc <SaveProgramToFlash2+0x104>)
 800115a:	88db      	ldrh	r3, [r3, #6]
 800115c:	88ba      	ldrh	r2, [r7, #4]
 800115e:	1cd1      	adds	r1, r2, #3
 8001160:	b29a      	uxth	r2, r3
 8001162:	f04f 0300 	mov.w	r3, #0
 8001166:	4818      	ldr	r0, [pc, #96]	; (80011c8 <SaveProgramToFlash2+0x100>)
 8001168:	00c9      	lsls	r1, r1, #3
 800116a:	4401      	add	r1, r0
 800116c:	e9c1 2300 	strd	r2, r3, [r1]
	ReadFlashPage[offset + 4] = WelderUnit.Delay_s;
 8001170:	4b16      	ldr	r3, [pc, #88]	; (80011cc <SaveProgramToFlash2+0x104>)
 8001172:	7a9b      	ldrb	r3, [r3, #10]
 8001174:	88ba      	ldrh	r2, [r7, #4]
 8001176:	1d11      	adds	r1, r2, #4
 8001178:	b2da      	uxtb	r2, r3
 800117a:	f04f 0300 	mov.w	r3, #0
 800117e:	4812      	ldr	r0, [pc, #72]	; (80011c8 <SaveProgramToFlash2+0x100>)
 8001180:	00c9      	lsls	r1, r1, #3
 8001182:	4401      	add	r1, r0
 8001184:	e9c1 2300 	strd	r2, r3, [r1]
	ReadFlashPage[offset + 5] = WelderUnit.Delay_f;
 8001188:	4b10      	ldr	r3, [pc, #64]	; (80011cc <SaveProgramToFlash2+0x104>)
 800118a:	7adb      	ldrb	r3, [r3, #11]
 800118c:	88ba      	ldrh	r2, [r7, #4]
 800118e:	1d51      	adds	r1, r2, #5
 8001190:	b2da      	uxtb	r2, r3
 8001192:	f04f 0300 	mov.w	r3, #0
 8001196:	480c      	ldr	r0, [pc, #48]	; (80011c8 <SaveProgramToFlash2+0x100>)
 8001198:	00c9      	lsls	r1, r1, #3
 800119a:	4401      	add	r1, r0
 800119c:	e9c1 2300 	strd	r2, r3, [r1]

	STM32_WriteToFlash3(ReadFlashPage, 64);
 80011a0:	2140      	movs	r1, #64	; 0x40
 80011a2:	4809      	ldr	r0, [pc, #36]	; (80011c8 <SaveProgramToFlash2+0x100>)
 80011a4:	f000 face 	bl	8001744 <STM32_WriteToFlash3>

	p = (uint32_t*)PAGE + offset/4; // p содержит начальный адрес записи параметров программы
 80011a8:	88bb      	ldrh	r3, [r7, #4]
 80011aa:	089b      	lsrs	r3, r3, #2
 80011ac:	b29b      	uxth	r3, r3
 80011ae:	009b      	lsls	r3, r3, #2
 80011b0:	f103 6300 	add.w	r3, r3, #134217728	; 0x8000000
 80011b4:	f503 337e 	add.w	r3, r3, #260096	; 0x3f800
 80011b8:	603b      	str	r3, [r7, #0]

}
 80011ba:	bf00      	nop
 80011bc:	3708      	adds	r7, #8
 80011be:	46bd      	mov	sp, r7
 80011c0:	bd80      	pop	{r7, pc}
 80011c2:	bf00      	nop
 80011c4:	0803f800 	.word	0x0803f800
 80011c8:	20004570 	.word	0x20004570
 80011cc:	2000453c 	.word	0x2000453c

080011d0 <ReadProgramFromFlash2>:

void ReadProgramFromFlash2()
{
 80011d0:	e92d 03b0 	stmdb	sp!, {r4, r5, r7, r8, r9}
 80011d4:	b083      	sub	sp, #12
 80011d6:	af00      	add	r7, sp, #0
	uint32_t *p; // Указатель на считваемые из flash памяти данные

	uint16_t offset = 0;
 80011d8:	2300      	movs	r3, #0
 80011da:	80bb      	strh	r3, [r7, #4]

	p = (uint32_t*)PAGE; // p содержит начальный адрес записи параметров программы
 80011dc:	4b48      	ldr	r3, [pc, #288]	; (8001300 <ReadProgramFromFlash2+0x130>)
 80011de:	603b      	str	r3, [r7, #0]

	for(uint16_t i = 0; i < 256; i++)
 80011e0:	2300      	movs	r3, #0
 80011e2:	80fb      	strh	r3, [r7, #6]
 80011e4:	e010      	b.n	8001208 <ReadProgramFromFlash2+0x38>
	{
		ReadFlashPage[i] = *(p + i);
 80011e6:	88fb      	ldrh	r3, [r7, #6]
 80011e8:	009b      	lsls	r3, r3, #2
 80011ea:	683a      	ldr	r2, [r7, #0]
 80011ec:	4413      	add	r3, r2
 80011ee:	681b      	ldr	r3, [r3, #0]
 80011f0:	88f9      	ldrh	r1, [r7, #6]
 80011f2:	461a      	mov	r2, r3
 80011f4:	f04f 0300 	mov.w	r3, #0
 80011f8:	4842      	ldr	r0, [pc, #264]	; (8001304 <ReadProgramFromFlash2+0x134>)
 80011fa:	00c9      	lsls	r1, r1, #3
 80011fc:	4401      	add	r1, r0
 80011fe:	e9c1 2300 	strd	r2, r3, [r1]
	for(uint16_t i = 0; i < 256; i++)
 8001202:	88fb      	ldrh	r3, [r7, #6]
 8001204:	3301      	adds	r3, #1
 8001206:	80fb      	strh	r3, [r7, #6]
 8001208:	88fb      	ldrh	r3, [r7, #6]
 800120a:	2bff      	cmp	r3, #255	; 0xff
 800120c:	d9eb      	bls.n	80011e6 <ReadProgramFromFlash2+0x16>
	}

	offset = WelderUnit.Program * 6;
 800120e:	4b3e      	ldr	r3, [pc, #248]	; (8001308 <ReadProgramFromFlash2+0x138>)
 8001210:	899b      	ldrh	r3, [r3, #12]
 8001212:	461a      	mov	r2, r3
 8001214:	0052      	lsls	r2, r2, #1
 8001216:	4413      	add	r3, r2
 8001218:	005b      	lsls	r3, r3, #1
 800121a:	80bb      	strh	r3, [r7, #4]

	if (WelderUnit.Program - ReadFlashPage[offset] <= 1 || ReadFlashPage[offset] - WelderUnit.Program <= 1)
 800121c:	4b3a      	ldr	r3, [pc, #232]	; (8001308 <ReadProgramFromFlash2+0x138>)
 800121e:	899b      	ldrh	r3, [r3, #12]
 8001220:	b298      	uxth	r0, r3
 8001222:	f04f 0100 	mov.w	r1, #0
 8001226:	88bb      	ldrh	r3, [r7, #4]
 8001228:	4a36      	ldr	r2, [pc, #216]	; (8001304 <ReadProgramFromFlash2+0x134>)
 800122a:	00db      	lsls	r3, r3, #3
 800122c:	4413      	add	r3, r2
 800122e:	e9d3 2300 	ldrd	r2, r3, [r3]
 8001232:	ebb0 0802 	subs.w	r8, r0, r2
 8001236:	eb61 0903 	sbc.w	r9, r1, r3
 800123a:	f1b9 0f00 	cmp.w	r9, #0
 800123e:	bf08      	it	eq
 8001240:	f1b8 0f02 	cmpeq.w	r8, #2
 8001244:	d311      	bcc.n	800126a <ReadProgramFromFlash2+0x9a>
 8001246:	88bb      	ldrh	r3, [r7, #4]
 8001248:	4a2e      	ldr	r2, [pc, #184]	; (8001304 <ReadProgramFromFlash2+0x134>)
 800124a:	00db      	lsls	r3, r3, #3
 800124c:	4413      	add	r3, r2
 800124e:	e9d3 0100 	ldrd	r0, r1, [r3]
 8001252:	4b2d      	ldr	r3, [pc, #180]	; (8001308 <ReadProgramFromFlash2+0x138>)
 8001254:	899b      	ldrh	r3, [r3, #12]
 8001256:	b29a      	uxth	r2, r3
 8001258:	f04f 0300 	mov.w	r3, #0
 800125c:	1a84      	subs	r4, r0, r2
 800125e:	eb61 0503 	sbc.w	r5, r1, r3
 8001262:	2d00      	cmp	r5, #0
 8001264:	bf08      	it	eq
 8001266:	2c02      	cmpeq	r4, #2
 8001268:	d244      	bcs.n	80012f4 <ReadProgramFromFlash2+0x124>
	{
		if (ReadFlashPage[offset] <= PROGRAM_MAX)
 800126a:	88bb      	ldrh	r3, [r7, #4]
 800126c:	4a25      	ldr	r2, [pc, #148]	; (8001304 <ReadProgramFromFlash2+0x134>)
 800126e:	00db      	lsls	r3, r3, #3
 8001270:	4413      	add	r3, r2
 8001272:	e9d3 2300 	ldrd	r2, r3, [r3]
 8001276:	2b00      	cmp	r3, #0
 8001278:	bf08      	it	eq
 800127a:	2a47      	cmpeq	r2, #71	; 0x47
 800127c:	d23a      	bcs.n	80012f4 <ReadProgramFromFlash2+0x124>
		{
			WelderUnit.Program = ReadFlashPage[offset];
 800127e:	88bb      	ldrh	r3, [r7, #4]
 8001280:	4a20      	ldr	r2, [pc, #128]	; (8001304 <ReadProgramFromFlash2+0x134>)
 8001282:	00db      	lsls	r3, r3, #3
 8001284:	4413      	add	r3, r2
 8001286:	e9d3 2300 	ldrd	r2, r3, [r3]
 800128a:	b292      	uxth	r2, r2
 800128c:	4b1e      	ldr	r3, [pc, #120]	; (8001308 <ReadProgramFromFlash2+0x138>)
 800128e:	819a      	strh	r2, [r3, #12]
			WelderUnit.Xs = ReadFlashPage[offset + 1];
 8001290:	88bb      	ldrh	r3, [r7, #4]
 8001292:	3301      	adds	r3, #1
 8001294:	4a1b      	ldr	r2, [pc, #108]	; (8001304 <ReadProgramFromFlash2+0x134>)
 8001296:	00db      	lsls	r3, r3, #3
 8001298:	4413      	add	r3, r2
 800129a:	e9d3 2300 	ldrd	r2, r3, [r3]
 800129e:	b292      	uxth	r2, r2
 80012a0:	4b19      	ldr	r3, [pc, #100]	; (8001308 <ReadProgramFromFlash2+0x138>)
 80012a2:	801a      	strh	r2, [r3, #0]
			WelderUnit.Xf = ReadFlashPage[offset + 2];
 80012a4:	88bb      	ldrh	r3, [r7, #4]
 80012a6:	3302      	adds	r3, #2
 80012a8:	4a16      	ldr	r2, [pc, #88]	; (8001304 <ReadProgramFromFlash2+0x134>)
 80012aa:	00db      	lsls	r3, r3, #3
 80012ac:	4413      	add	r3, r2
 80012ae:	e9d3 2300 	ldrd	r2, r3, [r3]
 80012b2:	b292      	uxth	r2, r2
 80012b4:	4b14      	ldr	r3, [pc, #80]	; (8001308 <ReadProgramFromFlash2+0x138>)
 80012b6:	805a      	strh	r2, [r3, #2]
			WelderUnit.Speed = ReadFlashPage[offset + 3];
 80012b8:	88bb      	ldrh	r3, [r7, #4]
 80012ba:	3303      	adds	r3, #3
 80012bc:	4a11      	ldr	r2, [pc, #68]	; (8001304 <ReadProgramFromFlash2+0x134>)
 80012be:	00db      	lsls	r3, r3, #3
 80012c0:	4413      	add	r3, r2
 80012c2:	e9d3 2300 	ldrd	r2, r3, [r3]
 80012c6:	b292      	uxth	r2, r2
 80012c8:	4b0f      	ldr	r3, [pc, #60]	; (8001308 <ReadProgramFromFlash2+0x138>)
 80012ca:	80da      	strh	r2, [r3, #6]
			WelderUnit.Delay_s = ReadFlashPage[offset + 4];
 80012cc:	88bb      	ldrh	r3, [r7, #4]
 80012ce:	3304      	adds	r3, #4
 80012d0:	4a0c      	ldr	r2, [pc, #48]	; (8001304 <ReadProgramFromFlash2+0x134>)
 80012d2:	00db      	lsls	r3, r3, #3
 80012d4:	4413      	add	r3, r2
 80012d6:	e9d3 2300 	ldrd	r2, r3, [r3]
 80012da:	b2d2      	uxtb	r2, r2
 80012dc:	4b0a      	ldr	r3, [pc, #40]	; (8001308 <ReadProgramFromFlash2+0x138>)
 80012de:	729a      	strb	r2, [r3, #10]
			WelderUnit.Delay_f = ReadFlashPage[offset + 5];
 80012e0:	88bb      	ldrh	r3, [r7, #4]
 80012e2:	3305      	adds	r3, #5
 80012e4:	4a07      	ldr	r2, [pc, #28]	; (8001304 <ReadProgramFromFlash2+0x134>)
 80012e6:	00db      	lsls	r3, r3, #3
 80012e8:	4413      	add	r3, r2
 80012ea:	e9d3 2300 	ldrd	r2, r3, [r3]
 80012ee:	b2d2      	uxtb	r2, r2
 80012f0:	4b05      	ldr	r3, [pc, #20]	; (8001308 <ReadProgramFromFlash2+0x138>)
 80012f2:	72da      	strb	r2, [r3, #11]

//	STM32_WriteToFlash3(ReadFlashPage, 64);
//
//	p = (uint32_t*)PAGE + offset/4; // p содержит начальный адрес записи параметров программы

}
 80012f4:	bf00      	nop
 80012f6:	370c      	adds	r7, #12
 80012f8:	46bd      	mov	sp, r7
 80012fa:	e8bd 03b0 	ldmia.w	sp!, {r4, r5, r7, r8, r9}
 80012fe:	4770      	bx	lr
 8001300:	0803f800 	.word	0x0803f800
 8001304:	20004570 	.word	0x20004570
 8001308:	2000453c 	.word	0x2000453c

0800130c <STLED316S_Ini>:
};



void STLED316S_Ini (GPIO_TypeDef *STLED_PORT_STB, uint16_t STLED_PIN_STB)
{
 800130c:	b580      	push	{r7, lr}
 800130e:	b082      	sub	sp, #8
 8001310:	af00      	add	r7, sp, #0
 8001312:	6078      	str	r0, [r7, #4]
 8001314:	460b      	mov	r3, r1
 8001316:	807b      	strh	r3, [r7, #2]

	STLED316S_SetBrightness(7, STLED_PORT_STB, STLED_PIN_STB);
 8001318:	887b      	ldrh	r3, [r7, #2]
 800131a:	461a      	mov	r2, r3
 800131c:	6879      	ldr	r1, [r7, #4]
 800131e:	2007      	movs	r0, #7
 8001320:	f000 f938 	bl	8001594 <STLED316S_SetBrightness>


	STLED_TxData[0] = 0x0D; // Включить дисплей
 8001324:	4b11      	ldr	r3, [pc, #68]	; (800136c <STLED316S_Ini+0x60>)
 8001326:	220d      	movs	r2, #13
 8001328:	701a      	strb	r2, [r3, #0]

	HAL_GPIO_WritePin(STLED_PORT_STB, STLED_PIN_STB, GPIO_PIN_RESET);
 800132a:	887b      	ldrh	r3, [r7, #2]
 800132c:	2200      	movs	r2, #0
 800132e:	4619      	mov	r1, r3
 8001330:	6878      	ldr	r0, [r7, #4]
 8001332:	f003 f97e 	bl	8004632 <HAL_GPIO_WritePin>
	DelayMicro(DELAY_US);
 8001336:	2005      	movs	r0, #5
 8001338:	f000 f9e6 	bl	8001708 <DelayMicro>
	HAL_SPI_Transmit(&hspi1, STLED_TxData, 1, 10000);
 800133c:	f242 7310 	movw	r3, #10000	; 0x2710
 8001340:	2201      	movs	r2, #1
 8001342:	490a      	ldr	r1, [pc, #40]	; (800136c <STLED316S_Ini+0x60>)
 8001344:	480a      	ldr	r0, [pc, #40]	; (8001370 <STLED316S_Ini+0x64>)
 8001346:	f003 fe11 	bl	8004f6c <HAL_SPI_Transmit>
	DelayMicro(DELAY_US);
 800134a:	2005      	movs	r0, #5
 800134c:	f000 f9dc 	bl	8001708 <DelayMicro>
	HAL_GPIO_WritePin(STLED_PORT_STB, STLED_PIN_STB, GPIO_PIN_SET);
 8001350:	887b      	ldrh	r3, [r7, #2]
 8001352:	2201      	movs	r2, #1
 8001354:	4619      	mov	r1, r3
 8001356:	6878      	ldr	r0, [r7, #4]
 8001358:	f003 f96b 	bl	8004632 <HAL_GPIO_WritePin>
	DelayMicro(DELAY_US);
 800135c:	2005      	movs	r0, #5
 800135e:	f000 f9d3 	bl	8001708 <DelayMicro>
}
 8001362:	bf00      	nop
 8001364:	3708      	adds	r7, #8
 8001366:	46bd      	mov	sp, r7
 8001368:	bd80      	pop	{r7, pc}
 800136a:	bf00      	nop
 800136c:	20004d98 	.word	0x20004d98
 8001370:	20004e1c 	.word	0x20004e1c

08001374 <STLED316S_OutData>:


void STLED316S_OutData (uint8_t *data, uint8_t num, GPIO_TypeDef *STLED_PORT_STB, uint16_t STLED_PIN_STB)
{
 8001374:	b580      	push	{r7, lr}
 8001376:	b086      	sub	sp, #24
 8001378:	af00      	add	r7, sp, #0
 800137a:	60f8      	str	r0, [r7, #12]
 800137c:	607a      	str	r2, [r7, #4]
 800137e:	461a      	mov	r2, r3
 8001380:	460b      	mov	r3, r1
 8001382:	72fb      	strb	r3, [r7, #11]
 8001384:	4613      	mov	r3, r2
 8001386:	813b      	strh	r3, [r7, #8]
	STLED_TxData[0] = 0x00; // Вывод с автоикрементом адреса
 8001388:	4b26      	ldr	r3, [pc, #152]	; (8001424 <STLED316S_OutData+0xb0>)
 800138a:	2200      	movs	r2, #0
 800138c:	701a      	strb	r2, [r3, #0]

	STLED_TxData[1] = 0x00;
 800138e:	4b25      	ldr	r3, [pc, #148]	; (8001424 <STLED316S_OutData+0xb0>)
 8001390:	2200      	movs	r2, #0
 8001392:	705a      	strb	r2, [r3, #1]
	STLED_TxData[2] = 0x00;
 8001394:	4b23      	ldr	r3, [pc, #140]	; (8001424 <STLED316S_OutData+0xb0>)
 8001396:	2200      	movs	r2, #0
 8001398:	709a      	strb	r2, [r3, #2]
	STLED_TxData[3] = 0x00;
 800139a:	4b22      	ldr	r3, [pc, #136]	; (8001424 <STLED316S_OutData+0xb0>)
 800139c:	2200      	movs	r2, #0
 800139e:	70da      	strb	r2, [r3, #3]
	STLED_TxData[4] = 0x00;
 80013a0:	4b20      	ldr	r3, [pc, #128]	; (8001424 <STLED316S_OutData+0xb0>)
 80013a2:	2200      	movs	r2, #0
 80013a4:	711a      	strb	r2, [r3, #4]
	STLED_TxData[5] = 0x00;
 80013a6:	4b1f      	ldr	r3, [pc, #124]	; (8001424 <STLED316S_OutData+0xb0>)
 80013a8:	2200      	movs	r2, #0
 80013aa:	715a      	strb	r2, [r3, #5]
	STLED_TxData[6] = 0x00;
 80013ac:	4b1d      	ldr	r3, [pc, #116]	; (8001424 <STLED316S_OutData+0xb0>)
 80013ae:	2200      	movs	r2, #0
 80013b0:	719a      	strb	r2, [r3, #6]

	for(uint8_t i = 0; i < num; i++)
 80013b2:	2300      	movs	r3, #0
 80013b4:	75fb      	strb	r3, [r7, #23]
 80013b6:	e00d      	b.n	80013d4 <STLED316S_OutData+0x60>
	{
		STLED_TxData[i + 1] = code_digit[data[i]];
 80013b8:	7dfb      	ldrb	r3, [r7, #23]
 80013ba:	68fa      	ldr	r2, [r7, #12]
 80013bc:	4413      	add	r3, r2
 80013be:	781b      	ldrb	r3, [r3, #0]
 80013c0:	4619      	mov	r1, r3
 80013c2:	7dfb      	ldrb	r3, [r7, #23]
 80013c4:	3301      	adds	r3, #1
 80013c6:	4a18      	ldr	r2, [pc, #96]	; (8001428 <STLED316S_OutData+0xb4>)
 80013c8:	5c51      	ldrb	r1, [r2, r1]
 80013ca:	4a16      	ldr	r2, [pc, #88]	; (8001424 <STLED316S_OutData+0xb0>)
 80013cc:	54d1      	strb	r1, [r2, r3]
	for(uint8_t i = 0; i < num; i++)
 80013ce:	7dfb      	ldrb	r3, [r7, #23]
 80013d0:	3301      	adds	r3, #1
 80013d2:	75fb      	strb	r3, [r7, #23]
 80013d4:	7dfa      	ldrb	r2, [r7, #23]
 80013d6:	7afb      	ldrb	r3, [r7, #11]
 80013d8:	429a      	cmp	r2, r3
 80013da:	d3ed      	bcc.n	80013b8 <STLED316S_OutData+0x44>
	}

	HAL_GPIO_WritePin(STLED_PORT_STB, STLED_PIN_STB, GPIO_PIN_RESET);
 80013dc:	893b      	ldrh	r3, [r7, #8]
 80013de:	2200      	movs	r2, #0
 80013e0:	4619      	mov	r1, r3
 80013e2:	6878      	ldr	r0, [r7, #4]
 80013e4:	f003 f925 	bl	8004632 <HAL_GPIO_WritePin>
	DelayMicro(DELAY_US);
 80013e8:	2005      	movs	r0, #5
 80013ea:	f000 f98d 	bl	8001708 <DelayMicro>
	HAL_SPI_Transmit(&hspi1, &STLED_TxData[0], num + 1, 10000);
 80013ee:	7afb      	ldrb	r3, [r7, #11]
 80013f0:	b29b      	uxth	r3, r3
 80013f2:	3301      	adds	r3, #1
 80013f4:	b29a      	uxth	r2, r3
 80013f6:	f242 7310 	movw	r3, #10000	; 0x2710
 80013fa:	490a      	ldr	r1, [pc, #40]	; (8001424 <STLED316S_OutData+0xb0>)
 80013fc:	480b      	ldr	r0, [pc, #44]	; (800142c <STLED316S_OutData+0xb8>)
 80013fe:	f003 fdb5 	bl	8004f6c <HAL_SPI_Transmit>
	DelayMicro(DELAY_US);
 8001402:	2005      	movs	r0, #5
 8001404:	f000 f980 	bl	8001708 <DelayMicro>
	HAL_GPIO_WritePin(STLED_PORT_STB, STLED_PIN_STB, GPIO_PIN_SET);
 8001408:	893b      	ldrh	r3, [r7, #8]
 800140a:	2201      	movs	r2, #1
 800140c:	4619      	mov	r1, r3
 800140e:	6878      	ldr	r0, [r7, #4]
 8001410:	f003 f90f 	bl	8004632 <HAL_GPIO_WritePin>
	DelayMicro(DELAY_US);
 8001414:	2005      	movs	r0, #5
 8001416:	f000 f977 	bl	8001708 <DelayMicro>
}
 800141a:	bf00      	nop
 800141c:	3718      	adds	r7, #24
 800141e:	46bd      	mov	sp, r7
 8001420:	bd80      	pop	{r7, pc}
 8001422:	bf00      	nop
 8001424:	20004d98 	.word	0x20004d98
 8001428:	080093c8 	.word	0x080093c8
 800142c:	20004e1c 	.word	0x20004e1c

08001430 <STLED316S_Single_Out>:

void STLED316S_Single_Out (uint8_t *data, uint8_t num, uint8_t DP, GPIO_TypeDef *STLED_PORT_STB, uint16_t STLED_PIN_STB)
{
 8001430:	b580      	push	{r7, lr}
 8001432:	b084      	sub	sp, #16
 8001434:	af00      	add	r7, sp, #0
 8001436:	60f8      	str	r0, [r7, #12]
 8001438:	607b      	str	r3, [r7, #4]
 800143a:	460b      	mov	r3, r1
 800143c:	72fb      	strb	r3, [r7, #11]
 800143e:	4613      	mov	r3, r2
 8001440:	72bb      	strb	r3, [r7, #10]
	STLED_TxData[0] = 0x00;
 8001442:	4b29      	ldr	r3, [pc, #164]	; (80014e8 <STLED316S_Single_Out+0xb8>)
 8001444:	2200      	movs	r2, #0
 8001446:	701a      	strb	r2, [r3, #0]
	STLED_TxData[1] = 0x00;
 8001448:	4b27      	ldr	r3, [pc, #156]	; (80014e8 <STLED316S_Single_Out+0xb8>)
 800144a:	2200      	movs	r2, #0
 800144c:	705a      	strb	r2, [r3, #1]

	STLED_TxData[0] |= 0x20; // Вывод значения без автоинкремента, в заданный разряд
 800144e:	4b26      	ldr	r3, [pc, #152]	; (80014e8 <STLED316S_Single_Out+0xb8>)
 8001450:	781b      	ldrb	r3, [r3, #0]
 8001452:	f043 0320 	orr.w	r3, r3, #32
 8001456:	b2da      	uxtb	r2, r3
 8001458:	4b23      	ldr	r3, [pc, #140]	; (80014e8 <STLED316S_Single_Out+0xb8>)
 800145a:	701a      	strb	r2, [r3, #0]
	STLED_TxData[0] |= ((6-num) & 0x07); // В какой разряд выводить
 800145c:	4b22      	ldr	r3, [pc, #136]	; (80014e8 <STLED316S_Single_Out+0xb8>)
 800145e:	781b      	ldrb	r3, [r3, #0]
 8001460:	b25a      	sxtb	r2, r3
 8001462:	7afb      	ldrb	r3, [r7, #11]
 8001464:	f1c3 0306 	rsb	r3, r3, #6
 8001468:	b2db      	uxtb	r3, r3
 800146a:	b25b      	sxtb	r3, r3
 800146c:	f003 0307 	and.w	r3, r3, #7
 8001470:	b25b      	sxtb	r3, r3
 8001472:	4313      	orrs	r3, r2
 8001474:	b25b      	sxtb	r3, r3
 8001476:	b2da      	uxtb	r2, r3
 8001478:	4b1b      	ldr	r3, [pc, #108]	; (80014e8 <STLED316S_Single_Out+0xb8>)
 800147a:	701a      	strb	r2, [r3, #0]

	STLED_TxData[1] = *data; // Выводимое значение
 800147c:	68fb      	ldr	r3, [r7, #12]
 800147e:	781a      	ldrb	r2, [r3, #0]
 8001480:	4b19      	ldr	r3, [pc, #100]	; (80014e8 <STLED316S_Single_Out+0xb8>)
 8001482:	705a      	strb	r2, [r3, #1]


	STLED_TxData[1] = code_digit[data[0]];
 8001484:	68fb      	ldr	r3, [r7, #12]
 8001486:	781b      	ldrb	r3, [r3, #0]
 8001488:	461a      	mov	r2, r3
 800148a:	4b18      	ldr	r3, [pc, #96]	; (80014ec <STLED316S_Single_Out+0xbc>)
 800148c:	5c9a      	ldrb	r2, [r3, r2]
 800148e:	4b16      	ldr	r3, [pc, #88]	; (80014e8 <STLED316S_Single_Out+0xb8>)
 8001490:	705a      	strb	r2, [r3, #1]

	if(DP) // Вывод точки
 8001492:	7abb      	ldrb	r3, [r7, #10]
 8001494:	2b00      	cmp	r3, #0
 8001496:	d006      	beq.n	80014a6 <STLED316S_Single_Out+0x76>
	{
		STLED_TxData[1] |= 0x80;
 8001498:	4b13      	ldr	r3, [pc, #76]	; (80014e8 <STLED316S_Single_Out+0xb8>)
 800149a:	785b      	ldrb	r3, [r3, #1]
 800149c:	f063 037f 	orn	r3, r3, #127	; 0x7f
 80014a0:	b2da      	uxtb	r2, r3
 80014a2:	4b11      	ldr	r3, [pc, #68]	; (80014e8 <STLED316S_Single_Out+0xb8>)
 80014a4:	705a      	strb	r2, [r3, #1]
	}

	HAL_GPIO_WritePin(STLED_PORT_STB, STLED_PIN_STB, GPIO_PIN_RESET);
 80014a6:	8b3b      	ldrh	r3, [r7, #24]
 80014a8:	2200      	movs	r2, #0
 80014aa:	4619      	mov	r1, r3
 80014ac:	6878      	ldr	r0, [r7, #4]
 80014ae:	f003 f8c0 	bl	8004632 <HAL_GPIO_WritePin>
	DelayMicro(DELAY_US);
 80014b2:	2005      	movs	r0, #5
 80014b4:	f000 f928 	bl	8001708 <DelayMicro>
	HAL_SPI_Transmit(&hspi1, &STLED_TxData[0], 2, 10000);
 80014b8:	f242 7310 	movw	r3, #10000	; 0x2710
 80014bc:	2202      	movs	r2, #2
 80014be:	490a      	ldr	r1, [pc, #40]	; (80014e8 <STLED316S_Single_Out+0xb8>)
 80014c0:	480b      	ldr	r0, [pc, #44]	; (80014f0 <STLED316S_Single_Out+0xc0>)
 80014c2:	f003 fd53 	bl	8004f6c <HAL_SPI_Transmit>
	DelayMicro(DELAY_US);
 80014c6:	2005      	movs	r0, #5
 80014c8:	f000 f91e 	bl	8001708 <DelayMicro>
	HAL_GPIO_WritePin(STLED_PORT_STB, STLED_PIN_STB, GPIO_PIN_SET);
 80014cc:	8b3b      	ldrh	r3, [r7, #24]
 80014ce:	2201      	movs	r2, #1
 80014d0:	4619      	mov	r1, r3
 80014d2:	6878      	ldr	r0, [r7, #4]
 80014d4:	f003 f8ad 	bl	8004632 <HAL_GPIO_WritePin>
	DelayMicro(DELAY_US + 100); // Без доп задержки 100 мкС зависает (Hard Fault)
 80014d8:	2069      	movs	r0, #105	; 0x69
 80014da:	f000 f915 	bl	8001708 <DelayMicro>
}
 80014de:	bf00      	nop
 80014e0:	3710      	adds	r7, #16
 80014e2:	46bd      	mov	sp, r7
 80014e4:	bd80      	pop	{r7, pc}
 80014e6:	bf00      	nop
 80014e8:	20004d98 	.word	0x20004d98
 80014ec:	080093c8 	.word	0x080093c8
 80014f0:	20004e1c 	.word	0x20004e1c

080014f4 <STLED316S_Direct_Single_Out>:

void STLED316S_Direct_Single_Out (uint8_t *data, uint8_t num, GPIO_TypeDef *STLED_PORT_STB, uint16_t STLED_PIN_STB)
{
 80014f4:	b580      	push	{r7, lr}
 80014f6:	b084      	sub	sp, #16
 80014f8:	af00      	add	r7, sp, #0
 80014fa:	60f8      	str	r0, [r7, #12]
 80014fc:	607a      	str	r2, [r7, #4]
 80014fe:	461a      	mov	r2, r3
 8001500:	460b      	mov	r3, r1
 8001502:	72fb      	strb	r3, [r7, #11]
 8001504:	4613      	mov	r3, r2
 8001506:	813b      	strh	r3, [r7, #8]
	STLED_TxData[0] = 0x00;
 8001508:	4b20      	ldr	r3, [pc, #128]	; (800158c <STLED316S_Direct_Single_Out+0x98>)
 800150a:	2200      	movs	r2, #0
 800150c:	701a      	strb	r2, [r3, #0]
	STLED_TxData[1] = 0x00;
 800150e:	4b1f      	ldr	r3, [pc, #124]	; (800158c <STLED316S_Direct_Single_Out+0x98>)
 8001510:	2200      	movs	r2, #0
 8001512:	705a      	strb	r2, [r3, #1]

	STLED_TxData[0] |= 0x20; // Вывод значения без автоинкремента, в заданный разряд
 8001514:	4b1d      	ldr	r3, [pc, #116]	; (800158c <STLED316S_Direct_Single_Out+0x98>)
 8001516:	781b      	ldrb	r3, [r3, #0]
 8001518:	f043 0320 	orr.w	r3, r3, #32
 800151c:	b2da      	uxtb	r2, r3
 800151e:	4b1b      	ldr	r3, [pc, #108]	; (800158c <STLED316S_Direct_Single_Out+0x98>)
 8001520:	701a      	strb	r2, [r3, #0]
	STLED_TxData[0] |= ((6-num) & 0x07); // В какой разряд выводить
 8001522:	4b1a      	ldr	r3, [pc, #104]	; (800158c <STLED316S_Direct_Single_Out+0x98>)
 8001524:	781b      	ldrb	r3, [r3, #0]
 8001526:	b25a      	sxtb	r2, r3
 8001528:	7afb      	ldrb	r3, [r7, #11]
 800152a:	f1c3 0306 	rsb	r3, r3, #6
 800152e:	b2db      	uxtb	r3, r3
 8001530:	b25b      	sxtb	r3, r3
 8001532:	f003 0307 	and.w	r3, r3, #7
 8001536:	b25b      	sxtb	r3, r3
 8001538:	4313      	orrs	r3, r2
 800153a:	b25b      	sxtb	r3, r3
 800153c:	b2da      	uxtb	r2, r3
 800153e:	4b13      	ldr	r3, [pc, #76]	; (800158c <STLED316S_Direct_Single_Out+0x98>)
 8001540:	701a      	strb	r2, [r3, #0]

	STLED_TxData[1] = *data; // Выводимое значение
 8001542:	68fb      	ldr	r3, [r7, #12]
 8001544:	781a      	ldrb	r2, [r3, #0]
 8001546:	4b11      	ldr	r3, [pc, #68]	; (800158c <STLED316S_Direct_Single_Out+0x98>)
 8001548:	705a      	strb	r2, [r3, #1]

	HAL_GPIO_WritePin(STLED_PORT_STB, STLED_PIN_STB, GPIO_PIN_RESET);
 800154a:	893b      	ldrh	r3, [r7, #8]
 800154c:	2200      	movs	r2, #0
 800154e:	4619      	mov	r1, r3
 8001550:	6878      	ldr	r0, [r7, #4]
 8001552:	f003 f86e 	bl	8004632 <HAL_GPIO_WritePin>
	DelayMicro(DELAY_US);
 8001556:	2005      	movs	r0, #5
 8001558:	f000 f8d6 	bl	8001708 <DelayMicro>
	HAL_SPI_Transmit(&hspi1, &STLED_TxData[0], 2, 10000);
 800155c:	f242 7310 	movw	r3, #10000	; 0x2710
 8001560:	2202      	movs	r2, #2
 8001562:	490a      	ldr	r1, [pc, #40]	; (800158c <STLED316S_Direct_Single_Out+0x98>)
 8001564:	480a      	ldr	r0, [pc, #40]	; (8001590 <STLED316S_Direct_Single_Out+0x9c>)
 8001566:	f003 fd01 	bl	8004f6c <HAL_SPI_Transmit>
	DelayMicro(DELAY_US);
 800156a:	2005      	movs	r0, #5
 800156c:	f000 f8cc 	bl	8001708 <DelayMicro>
	HAL_GPIO_WritePin(STLED_PORT_STB, STLED_PIN_STB, GPIO_PIN_SET);
 8001570:	893b      	ldrh	r3, [r7, #8]
 8001572:	2201      	movs	r2, #1
 8001574:	4619      	mov	r1, r3
 8001576:	6878      	ldr	r0, [r7, #4]
 8001578:	f003 f85b 	bl	8004632 <HAL_GPIO_WritePin>
	DelayMicro(DELAY_US);
 800157c:	2005      	movs	r0, #5
 800157e:	f000 f8c3 	bl	8001708 <DelayMicro>
}
 8001582:	bf00      	nop
 8001584:	3710      	adds	r7, #16
 8001586:	46bd      	mov	sp, r7
 8001588:	bd80      	pop	{r7, pc}
 800158a:	bf00      	nop
 800158c:	20004d98 	.word	0x20004d98
 8001590:	20004e1c 	.word	0x20004e1c

08001594 <STLED316S_SetBrightness>:

void STLED316S_SetBrightness (uint8_t Bright, GPIO_TypeDef *STLED_PORT_STB, uint16_t STLED_PIN_STB)
{
 8001594:	b580      	push	{r7, lr}
 8001596:	b082      	sub	sp, #8
 8001598:	af00      	add	r7, sp, #0
 800159a:	4603      	mov	r3, r0
 800159c:	6039      	str	r1, [r7, #0]
 800159e:	71fb      	strb	r3, [r7, #7]
 80015a0:	4613      	mov	r3, r2
 80015a2:	80bb      	strh	r3, [r7, #4]
	STLED_TxData[0] = 0x10;
 80015a4:	4b26      	ldr	r3, [pc, #152]	; (8001640 <STLED316S_SetBrightness+0xac>)
 80015a6:	2210      	movs	r2, #16
 80015a8:	701a      	strb	r2, [r3, #0]
	STLED_TxData[1] = 0xE5; // E5 - LSB2:0 - кол разряд (0b101 = 6 разрадам), LSB4:3 - режим яркости, LSB7:5 - яркость
 80015aa:	4b25      	ldr	r3, [pc, #148]	; (8001640 <STLED316S_SetBrightness+0xac>)
 80015ac:	22e5      	movs	r2, #229	; 0xe5
 80015ae:	705a      	strb	r2, [r3, #1]

	STLED_TxData[2] = 0x00;
 80015b0:	4b23      	ldr	r3, [pc, #140]	; (8001640 <STLED316S_SetBrightness+0xac>)
 80015b2:	2200      	movs	r2, #0
 80015b4:	709a      	strb	r2, [r3, #2]
	STLED_TxData[3] = 0x00;
 80015b6:	4b22      	ldr	r3, [pc, #136]	; (8001640 <STLED316S_SetBrightness+0xac>)
 80015b8:	2200      	movs	r2, #0
 80015ba:	70da      	strb	r2, [r3, #3]
	STLED_TxData[4] = 0x00;
 80015bc:	4b20      	ldr	r3, [pc, #128]	; (8001640 <STLED316S_SetBrightness+0xac>)
 80015be:	2200      	movs	r2, #0
 80015c0:	711a      	strb	r2, [r3, #4]

	STLED_TxData[2] = (Bright<<4) | (Bright);
 80015c2:	79fb      	ldrb	r3, [r7, #7]
 80015c4:	011b      	lsls	r3, r3, #4
 80015c6:	b25a      	sxtb	r2, r3
 80015c8:	f997 3007 	ldrsb.w	r3, [r7, #7]
 80015cc:	4313      	orrs	r3, r2
 80015ce:	b25b      	sxtb	r3, r3
 80015d0:	b2da      	uxtb	r2, r3
 80015d2:	4b1b      	ldr	r3, [pc, #108]	; (8001640 <STLED316S_SetBrightness+0xac>)
 80015d4:	709a      	strb	r2, [r3, #2]
	STLED_TxData[3] = (Bright<<4) | (Bright);
 80015d6:	79fb      	ldrb	r3, [r7, #7]
 80015d8:	011b      	lsls	r3, r3, #4
 80015da:	b25a      	sxtb	r2, r3
 80015dc:	f997 3007 	ldrsb.w	r3, [r7, #7]
 80015e0:	4313      	orrs	r3, r2
 80015e2:	b25b      	sxtb	r3, r3
 80015e4:	b2da      	uxtb	r2, r3
 80015e6:	4b16      	ldr	r3, [pc, #88]	; (8001640 <STLED316S_SetBrightness+0xac>)
 80015e8:	70da      	strb	r2, [r3, #3]
	STLED_TxData[4] = (Bright<<4) | (Bright);
 80015ea:	79fb      	ldrb	r3, [r7, #7]
 80015ec:	011b      	lsls	r3, r3, #4
 80015ee:	b25a      	sxtb	r2, r3
 80015f0:	f997 3007 	ldrsb.w	r3, [r7, #7]
 80015f4:	4313      	orrs	r3, r2
 80015f6:	b25b      	sxtb	r3, r3
 80015f8:	b2da      	uxtb	r2, r3
 80015fa:	4b11      	ldr	r3, [pc, #68]	; (8001640 <STLED316S_SetBrightness+0xac>)
 80015fc:	711a      	strb	r2, [r3, #4]


	HAL_GPIO_WritePin(STLED_PORT_STB, STLED_PIN_STB, GPIO_PIN_RESET);
 80015fe:	88bb      	ldrh	r3, [r7, #4]
 8001600:	2200      	movs	r2, #0
 8001602:	4619      	mov	r1, r3
 8001604:	6838      	ldr	r0, [r7, #0]
 8001606:	f003 f814 	bl	8004632 <HAL_GPIO_WritePin>
	DelayMicro(DELAY_US);
 800160a:	2005      	movs	r0, #5
 800160c:	f000 f87c 	bl	8001708 <DelayMicro>
	HAL_SPI_Transmit(&hspi1, &STLED_TxData[0], 5, 10000);
 8001610:	f242 7310 	movw	r3, #10000	; 0x2710
 8001614:	2205      	movs	r2, #5
 8001616:	490a      	ldr	r1, [pc, #40]	; (8001640 <STLED316S_SetBrightness+0xac>)
 8001618:	480a      	ldr	r0, [pc, #40]	; (8001644 <STLED316S_SetBrightness+0xb0>)
 800161a:	f003 fca7 	bl	8004f6c <HAL_SPI_Transmit>
	DelayMicro(DELAY_US);
 800161e:	2005      	movs	r0, #5
 8001620:	f000 f872 	bl	8001708 <DelayMicro>
	HAL_GPIO_WritePin(STLED_PORT_STB, STLED_PIN_STB, GPIO_PIN_SET);
 8001624:	88bb      	ldrh	r3, [r7, #4]
 8001626:	2201      	movs	r2, #1
 8001628:	4619      	mov	r1, r3
 800162a:	6838      	ldr	r0, [r7, #0]
 800162c:	f003 f801 	bl	8004632 <HAL_GPIO_WritePin>
	DelayMicro(DELAY_US);
 8001630:	2005      	movs	r0, #5
 8001632:	f000 f869 	bl	8001708 <DelayMicro>

}
 8001636:	bf00      	nop
 8001638:	3708      	adds	r7, #8
 800163a:	46bd      	mov	sp, r7
 800163c:	bd80      	pop	{r7, pc}
 800163e:	bf00      	nop
 8001640:	20004d98 	.word	0x20004d98
 8001644:	20004e1c 	.word	0x20004e1c

08001648 <STLED316S_ReciveData>:
	HAL_GPIO_WritePin(STLED_PORT_STB, STLED_PIN_STB, GPIO_PIN_SET);
	DelayMicro(DELAY_US);
}

void STLED316S_ReciveData (uint8_t *data, GPIO_TypeDef *STLED_PORT_STB, uint16_t STLED_PIN_STB)
{
 8001648:	b580      	push	{r7, lr}
 800164a:	b086      	sub	sp, #24
 800164c:	af00      	add	r7, sp, #0
 800164e:	60f8      	str	r0, [r7, #12]
 8001650:	60b9      	str	r1, [r7, #8]
 8001652:	4613      	mov	r3, r2
 8001654:	80fb      	strh	r3, [r7, #6]
	STLED_TxData[0] = 0x49;
 8001656:	4b29      	ldr	r3, [pc, #164]	; (80016fc <STLED316S_ReciveData+0xb4>)
 8001658:	2249      	movs	r2, #73	; 0x49
 800165a:	701a      	strb	r2, [r3, #0]
	STLED_TxData[1] = 0x00;
 800165c:	4b27      	ldr	r3, [pc, #156]	; (80016fc <STLED316S_ReciveData+0xb4>)
 800165e:	2200      	movs	r2, #0
 8001660:	705a      	strb	r2, [r3, #1]
	STLED_TxData[2] = 0x00;
 8001662:	4b26      	ldr	r3, [pc, #152]	; (80016fc <STLED316S_ReciveData+0xb4>)
 8001664:	2200      	movs	r2, #0
 8001666:	709a      	strb	r2, [r3, #2]
	STLED_TxData[3] = 0x00;
 8001668:	4b24      	ldr	r3, [pc, #144]	; (80016fc <STLED316S_ReciveData+0xb4>)
 800166a:	2200      	movs	r2, #0
 800166c:	70da      	strb	r2, [r3, #3]

	STLED_Rx[0] = 0x49;
 800166e:	4b24      	ldr	r3, [pc, #144]	; (8001700 <STLED316S_ReciveData+0xb8>)
 8001670:	2249      	movs	r2, #73	; 0x49
 8001672:	701a      	strb	r2, [r3, #0]
	STLED_Rx[1] = 0x02;
 8001674:	4b22      	ldr	r3, [pc, #136]	; (8001700 <STLED316S_ReciveData+0xb8>)
 8001676:	2202      	movs	r2, #2
 8001678:	705a      	strb	r2, [r3, #1]
	STLED_Rx[2] = 0x02;
 800167a:	4b21      	ldr	r3, [pc, #132]	; (8001700 <STLED316S_ReciveData+0xb8>)
 800167c:	2202      	movs	r2, #2
 800167e:	709a      	strb	r2, [r3, #2]
	STLED_Rx[3] = 0x02;
 8001680:	4b1f      	ldr	r3, [pc, #124]	; (8001700 <STLED316S_ReciveData+0xb8>)
 8001682:	2202      	movs	r2, #2
 8001684:	70da      	strb	r2, [r3, #3]

	for(uint8_t i = 0; i < 8; i++)
 8001686:	2300      	movs	r3, #0
 8001688:	75fb      	strb	r3, [r7, #23]
 800168a:	e006      	b.n	800169a <STLED316S_ReciveData+0x52>
	{
		STLED_Rx[i] = 0;
 800168c:	7dfb      	ldrb	r3, [r7, #23]
 800168e:	4a1c      	ldr	r2, [pc, #112]	; (8001700 <STLED316S_ReciveData+0xb8>)
 8001690:	2100      	movs	r1, #0
 8001692:	54d1      	strb	r1, [r2, r3]
	for(uint8_t i = 0; i < 8; i++)
 8001694:	7dfb      	ldrb	r3, [r7, #23]
 8001696:	3301      	adds	r3, #1
 8001698:	75fb      	strb	r3, [r7, #23]
 800169a:	7dfb      	ldrb	r3, [r7, #23]
 800169c:	2b07      	cmp	r3, #7
 800169e:	d9f5      	bls.n	800168c <STLED316S_ReciveData+0x44>
	}

	HAL_GPIO_WritePin(STLED_PORT_STB, STLED_PIN_STB, GPIO_PIN_RESET);
 80016a0:	88fb      	ldrh	r3, [r7, #6]
 80016a2:	2200      	movs	r2, #0
 80016a4:	4619      	mov	r1, r3
 80016a6:	68b8      	ldr	r0, [r7, #8]
 80016a8:	f002 ffc3 	bl	8004632 <HAL_GPIO_WritePin>
	DelayMicro(DELAY_US);
 80016ac:	2005      	movs	r0, #5
 80016ae:	f000 f82b 	bl	8001708 <DelayMicro>
	//SPI1->CR1 |= SPI_CR1_BIDIOE; // Перевод SPI в режим передачи
	HAL_SPI_Transmit(&hspi1, STLED_TxData, 1, 1000);
 80016b2:	f44f 737a 	mov.w	r3, #1000	; 0x3e8
 80016b6:	2201      	movs	r2, #1
 80016b8:	4910      	ldr	r1, [pc, #64]	; (80016fc <STLED316S_ReciveData+0xb4>)
 80016ba:	4812      	ldr	r0, [pc, #72]	; (8001704 <STLED316S_ReciveData+0xbc>)
 80016bc:	f003 fc56 	bl	8004f6c <HAL_SPI_Transmit>
	//SPI1->CR1 &= ~SPI_CR1_BIDIOE; // // Перевод SPI в режим приема
	//HAL_SPI_TransmitReceive(&hspi1, STLED_TxData, STLED_Rx, 1, 1000);
	HAL_SPI_Receive(&hspi1, STLED_Rx, 2, 1000);
 80016c0:	f44f 737a 	mov.w	r3, #1000	; 0x3e8
 80016c4:	2202      	movs	r2, #2
 80016c6:	490e      	ldr	r1, [pc, #56]	; (8001700 <STLED316S_ReciveData+0xb8>)
 80016c8:	480e      	ldr	r0, [pc, #56]	; (8001704 <STLED316S_ReciveData+0xbc>)
 80016ca:	f003 fd8b 	bl	80051e4 <HAL_SPI_Receive>
	HAL_GPIO_WritePin(STLED_PORT_STB, STLED_PIN_STB, GPIO_PIN_SET);
 80016ce:	88fb      	ldrh	r3, [r7, #6]
 80016d0:	2201      	movs	r2, #1
 80016d2:	4619      	mov	r1, r3
 80016d4:	68b8      	ldr	r0, [r7, #8]
 80016d6:	f002 ffac 	bl	8004632 <HAL_GPIO_WritePin>
	DelayMicro(DELAY_US);
 80016da:	2005      	movs	r0, #5
 80016dc:	f000 f814 	bl	8001708 <DelayMicro>

	data[0] = STLED_Rx[0];
 80016e0:	4b07      	ldr	r3, [pc, #28]	; (8001700 <STLED316S_ReciveData+0xb8>)
 80016e2:	781a      	ldrb	r2, [r3, #0]
 80016e4:	68fb      	ldr	r3, [r7, #12]
 80016e6:	701a      	strb	r2, [r3, #0]
	data[1]= STLED_Rx[1];
 80016e8:	68fb      	ldr	r3, [r7, #12]
 80016ea:	3301      	adds	r3, #1
 80016ec:	4a04      	ldr	r2, [pc, #16]	; (8001700 <STLED316S_ReciveData+0xb8>)
 80016ee:	7852      	ldrb	r2, [r2, #1]
 80016f0:	701a      	strb	r2, [r3, #0]

}
 80016f2:	bf00      	nop
 80016f4:	3718      	adds	r7, #24
 80016f6:	46bd      	mov	sp, r7
 80016f8:	bd80      	pop	{r7, pc}
 80016fa:	bf00      	nop
 80016fc:	20004d98 	.word	0x20004d98
 8001700:	20004564 	.word	0x20004564
 8001704:	20004e1c 	.word	0x20004e1c

08001708 <DelayMicro>:

 void DelayMicro(uint32_t __IO micros)
{
 8001708:	b480      	push	{r7}
 800170a:	b083      	sub	sp, #12
 800170c:	af00      	add	r7, sp, #0
 800170e:	6078      	str	r0, [r7, #4]
  micros *=(SystemCoreClock/1000000)/5;
 8001710:	4b0a      	ldr	r3, [pc, #40]	; (800173c <DelayMicro+0x34>)
 8001712:	681b      	ldr	r3, [r3, #0]
 8001714:	4a0a      	ldr	r2, [pc, #40]	; (8001740 <DelayMicro+0x38>)
 8001716:	fba2 2303 	umull	r2, r3, r2, r3
 800171a:	0d5b      	lsrs	r3, r3, #21
 800171c:	687a      	ldr	r2, [r7, #4]
 800171e:	fb02 f303 	mul.w	r3, r2, r3
 8001722:	607b      	str	r3, [r7, #4]
  while(micros--);
 8001724:	bf00      	nop
 8001726:	687b      	ldr	r3, [r7, #4]
 8001728:	1e5a      	subs	r2, r3, #1
 800172a:	607a      	str	r2, [r7, #4]
 800172c:	2b00      	cmp	r3, #0
 800172e:	d1fa      	bne.n	8001726 <DelayMicro+0x1e>
}
 8001730:	bf00      	nop
 8001732:	bf00      	nop
 8001734:	370c      	adds	r7, #12
 8001736:	46bd      	mov	sp, r7
 8001738:	bc80      	pop	{r7}
 800173a:	4770      	bx	lr
 800173c:	20000000 	.word	0x20000000
 8001740:	6b5fca6b 	.word	0x6b5fca6b

08001744 <STM32_WriteToFlash3>:

		 HAL_FLASH_Lock();
}

void STM32_WriteToFlash3 (uint64_t *Data, uint32_t Len)
{
 8001744:	b580      	push	{r7, lr}
 8001746:	b088      	sub	sp, #32
 8001748:	af00      	add	r7, sp, #0
 800174a:	6078      	str	r0, [r7, #4]
 800174c:	6039      	str	r1, [r7, #0]
	   HAL_FLASH_Unlock();
 800174e:	f002 fc35 	bl	8003fbc <HAL_FLASH_Unlock>

		FLASH_EraseInitTypeDef EraseInitStruct;
	   uint32_t PAGEError = 0;
 8001752:	2300      	movs	r3, #0
 8001754:	60bb      	str	r3, [r7, #8]
	   EraseInitStruct.TypeErase   = FLASH_TYPEERASE_PAGES;  // Тип стирания. FLASH_TYPEERASE_PAGES стирание одиночной страницы
 8001756:	2300      	movs	r3, #0
 8001758:	60fb      	str	r3, [r7, #12]
	   EraseInitStruct.PageAddress = PAGE; // Адрес первой стираемой ячейки в странице
 800175a:	4b16      	ldr	r3, [pc, #88]	; (80017b4 <STM32_WriteToFlash3+0x70>)
 800175c:	617b      	str	r3, [r7, #20]
	   EraseInitStruct.NbPages     = 1;       // Количесвто стираемых страниц
 800175e:	2301      	movs	r3, #1
 8001760:	61bb      	str	r3, [r7, #24]
	   HAL_FLASHEx_Erase(&EraseInitStruct,&PAGEError);
 8001762:	f107 0208 	add.w	r2, r7, #8
 8001766:	f107 030c 	add.w	r3, r7, #12
 800176a:	4611      	mov	r1, r2
 800176c:	4618      	mov	r0, r3
 800176e:	f002 fd0d 	bl	800418c <HAL_FLASHEx_Erase>

	   //Запись начиная с адреса 0x803F800
		 for(uint16_t i = 0; i < Len; i++)
 8001772:	2300      	movs	r3, #0
 8001774:	83fb      	strh	r3, [r7, #30]
 8001776:	e012      	b.n	800179e <STM32_WriteToFlash3+0x5a>
		 {
			HAL_FLASH_Program(FLASH_TYPEPROGRAM_WORD, PAGE + (i*4), Data[i]);  // FLASH_TYPEPROGRAM_WORD - запись 32 битного числа, адрес записи, данные
 8001778:	8bfb      	ldrh	r3, [r7, #30]
 800177a:	f103 7300 	add.w	r3, r3, #33554432	; 0x2000000
 800177e:	f503 437e 	add.w	r3, r3, #65024	; 0xfe00
 8001782:	009b      	lsls	r3, r3, #2
 8001784:	4619      	mov	r1, r3
 8001786:	8bfb      	ldrh	r3, [r7, #30]
 8001788:	00db      	lsls	r3, r3, #3
 800178a:	687a      	ldr	r2, [r7, #4]
 800178c:	4413      	add	r3, r2
 800178e:	e9d3 2300 	ldrd	r2, r3, [r3]
 8001792:	2002      	movs	r0, #2
 8001794:	f002 fba2 	bl	8003edc <HAL_FLASH_Program>
		 for(uint16_t i = 0; i < Len; i++)
 8001798:	8bfb      	ldrh	r3, [r7, #30]
 800179a:	3301      	adds	r3, #1
 800179c:	83fb      	strh	r3, [r7, #30]
 800179e:	8bfb      	ldrh	r3, [r7, #30]
 80017a0:	683a      	ldr	r2, [r7, #0]
 80017a2:	429a      	cmp	r2, r3
 80017a4:	d8e8      	bhi.n	8001778 <STM32_WriteToFlash3+0x34>
		 }

		 HAL_FLASH_Lock();
 80017a6:	f002 fc2f 	bl	8004008 <HAL_FLASH_Lock>
}
 80017aa:	bf00      	nop
 80017ac:	3720      	adds	r7, #32
 80017ae:	46bd      	mov	sp, r7
 80017b0:	bd80      	pop	{r7, pc}
 80017b2:	bf00      	nop
 80017b4:	0803f800 	.word	0x0803f800

080017b8 <freeRTOS_Tasks_Ini>:
	uint8_t STLED_Rx[8];



void freeRTOS_Tasks_Ini (void)
{
 80017b8:	b580      	push	{r7, lr}
 80017ba:	b082      	sub	sp, #8
 80017bc:	af02      	add	r7, sp, #8
	xSemaphore_StepCount = xQueueCreateCountingSemaphore(4, 0);
 80017be:	2100      	movs	r1, #0
 80017c0:	2004      	movs	r0, #4
 80017c2:	f005 fc31 	bl	8007028 <xQueueCreateCountingSemaphore>
 80017c6:	4603      	mov	r3, r0
 80017c8:	4a4a      	ldr	r2, [pc, #296]	; (80018f4 <freeRTOS_Tasks_Ini+0x13c>)
 80017ca:	6013      	str	r3, [r2, #0]

	//xSemaphore_Calibration = xQueueCreateCountingSemaphore(1, 0); // Первый аргмент - это максимальное количество счета, второй - начальное значение счетчика

	vSemaphoreCreateBinary(xSemaphore_Calibration); // Создание двоичного семафора
 80017cc:	2203      	movs	r2, #3
 80017ce:	2100      	movs	r1, #0
 80017d0:	2001      	movs	r0, #1
 80017d2:	f005 fbd6 	bl	8006f82 <xQueueGenericCreate>
 80017d6:	4603      	mov	r3, r0
 80017d8:	4a47      	ldr	r2, [pc, #284]	; (80018f8 <freeRTOS_Tasks_Ini+0x140>)
 80017da:	6013      	str	r3, [r2, #0]
 80017dc:	4b46      	ldr	r3, [pc, #280]	; (80018f8 <freeRTOS_Tasks_Ini+0x140>)
 80017de:	681b      	ldr	r3, [r3, #0]
 80017e0:	2b00      	cmp	r3, #0
 80017e2:	d006      	beq.n	80017f2 <freeRTOS_Tasks_Ini+0x3a>
 80017e4:	4b44      	ldr	r3, [pc, #272]	; (80018f8 <freeRTOS_Tasks_Ini+0x140>)
 80017e6:	6818      	ldr	r0, [r3, #0]
 80017e8:	2300      	movs	r3, #0
 80017ea:	2200      	movs	r2, #0
 80017ec:	2100      	movs	r1, #0
 80017ee:	f005 fc31 	bl	8007054 <xQueueGenericSend>

	qBeepMode = xQueueCreate(1, sizeof( uint8_t )); // Очередь для передачи режима работы бипера
 80017f2:	2200      	movs	r2, #0
 80017f4:	2101      	movs	r1, #1
 80017f6:	2001      	movs	r0, #1
 80017f8:	f005 fbc3 	bl	8006f82 <xQueueGenericCreate>
 80017fc:	4603      	mov	r3, r0
 80017fe:	4a3f      	ldr	r2, [pc, #252]	; (80018fc <freeRTOS_Tasks_Ini+0x144>)
 8001800:	6013      	str	r3, [r2, #0]

	qWelderCmd = xQueueCreate(1, sizeof( uint8_t )); // Очередь для передачи команд управления кареткой
 8001802:	2200      	movs	r2, #0
 8001804:	2101      	movs	r1, #1
 8001806:	2001      	movs	r0, #1
 8001808:	f005 fbbb 	bl	8006f82 <xQueueGenericCreate>
 800180c:	4603      	mov	r3, r0
 800180e:	4a3c      	ldr	r2, [pc, #240]	; (8001900 <freeRTOS_Tasks_Ini+0x148>)
 8001810:	6013      	str	r3, [r2, #0]

	qGoToResponse = xQueueCreate(1, sizeof( uint8_t )); // Требуемая позиция занята
 8001812:	2200      	movs	r2, #0
 8001814:	2101      	movs	r1, #1
 8001816:	2001      	movs	r0, #1
 8001818:	f005 fbb3 	bl	8006f82 <xQueueGenericCreate>
 800181c:	4603      	mov	r3, r0
 800181e:	4a39      	ldr	r2, [pc, #228]	; (8001904 <freeRTOS_Tasks_Ini+0x14c>)
 8001820:	6013      	str	r3, [r2, #0]

	//vSemaphoreCreateBinary(qDebug);

	qWelderRun = xQueueCreate(1, sizeof( uint8_t )); // Начать процесс варки
 8001822:	2200      	movs	r2, #0
 8001824:	2101      	movs	r1, #1
 8001826:	2001      	movs	r0, #1
 8001828:	f005 fbab 	bl	8006f82 <xQueueGenericCreate>
 800182c:	4603      	mov	r3, r0
 800182e:	4a36      	ldr	r2, [pc, #216]	; (8001908 <freeRTOS_Tasks_Ini+0x150>)
 8001830:	6013      	str	r3, [r2, #0]

	qWelderCalibrated = xQueueCreate(1, sizeof( uint8_t )); // Начать калибровку
 8001832:	2200      	movs	r2, #0
 8001834:	2101      	movs	r1, #1
 8001836:	2001      	movs	r0, #1
 8001838:	f005 fba3 	bl	8006f82 <xQueueGenericCreate>
 800183c:	4603      	mov	r3, r0
 800183e:	4a33      	ldr	r2, [pc, #204]	; (800190c <freeRTOS_Tasks_Ini+0x154>)
 8001840:	6013      	str	r3, [r2, #0]

	qKeyPress = xQueueCreate(1, sizeof( uint8_t )); // Предача события о нажатии кнопки
 8001842:	2200      	movs	r2, #0
 8001844:	2101      	movs	r1, #1
 8001846:	2001      	movs	r0, #1
 8001848:	f005 fb9b 	bl	8006f82 <xQueueGenericCreate>
 800184c:	4603      	mov	r3, r0
 800184e:	4a30      	ldr	r2, [pc, #192]	; (8001910 <freeRTOS_Tasks_Ini+0x158>)
 8001850:	6013      	str	r3, [r2, #0]

	MicrostepDriver_Ini();
 8001852:	f7ff f8db 	bl	8000a0c <MicrostepDriver_Ini>

	xTaskCreate(vIndicatorPanel_Out, "IndicatorPanel_Out", 500, NULL, 2, NULL); // З-а вывода значений на панель
 8001856:	2300      	movs	r3, #0
 8001858:	9301      	str	r3, [sp, #4]
 800185a:	2302      	movs	r3, #2
 800185c:	9300      	str	r3, [sp, #0]
 800185e:	2300      	movs	r3, #0
 8001860:	f44f 72fa 	mov.w	r2, #500	; 0x1f4
 8001864:	492b      	ldr	r1, [pc, #172]	; (8001914 <freeRTOS_Tasks_Ini+0x15c>)
 8001866:	482c      	ldr	r0, [pc, #176]	; (8001918 <freeRTOS_Tasks_Ini+0x160>)
 8001868:	f006 f90e 	bl	8007a88 <xTaskCreate>

	xTaskCreate(vKeyScan, "KeyScan", 400, NULL, 2, NULL); // З-а опроса кнопок
 800186c:	2300      	movs	r3, #0
 800186e:	9301      	str	r3, [sp, #4]
 8001870:	2302      	movs	r3, #2
 8001872:	9300      	str	r3, [sp, #0]
 8001874:	2300      	movs	r3, #0
 8001876:	f44f 72c8 	mov.w	r2, #400	; 0x190
 800187a:	4928      	ldr	r1, [pc, #160]	; (800191c <freeRTOS_Tasks_Ini+0x164>)
 800187c:	4828      	ldr	r0, [pc, #160]	; (8001920 <freeRTOS_Tasks_Ini+0x168>)
 800187e:	f006 f903 	bl	8007a88 <xTaskCreate>

	xTaskCreate(vBuzzer_beep, "Buzzer_beep", 100, NULL, 1, NULL); // З-а опроса кнопок
 8001882:	2300      	movs	r3, #0
 8001884:	9301      	str	r3, [sp, #4]
 8001886:	2301      	movs	r3, #1
 8001888:	9300      	str	r3, [sp, #0]
 800188a:	2300      	movs	r3, #0
 800188c:	2264      	movs	r2, #100	; 0x64
 800188e:	4925      	ldr	r1, [pc, #148]	; (8001924 <freeRTOS_Tasks_Ini+0x16c>)
 8001890:	4825      	ldr	r0, [pc, #148]	; (8001928 <freeRTOS_Tasks_Ini+0x170>)
 8001892:	f006 f8f9 	bl	8007a88 <xTaskCreate>

	xTaskCreate(vWelder_Run, "Weleder_Run", 250, NULL, 2, NULL);
 8001896:	2300      	movs	r3, #0
 8001898:	9301      	str	r3, [sp, #4]
 800189a:	2302      	movs	r3, #2
 800189c:	9300      	str	r3, [sp, #0]
 800189e:	2300      	movs	r3, #0
 80018a0:	22fa      	movs	r2, #250	; 0xfa
 80018a2:	4922      	ldr	r1, [pc, #136]	; (800192c <freeRTOS_Tasks_Ini+0x174>)
 80018a4:	4822      	ldr	r0, [pc, #136]	; (8001930 <freeRTOS_Tasks_Ini+0x178>)
 80018a6:	f006 f8ef 	bl	8007a88 <xTaskCreate>

	xTaskCreate(vCarriage_GoTo, "Carriage_GoTo", 400, NULL, 3, NULL); // З-а перемещения каретки в заданную точку
 80018aa:	2300      	movs	r3, #0
 80018ac:	9301      	str	r3, [sp, #4]
 80018ae:	2303      	movs	r3, #3
 80018b0:	9300      	str	r3, [sp, #0]
 80018b2:	2300      	movs	r3, #0
 80018b4:	f44f 72c8 	mov.w	r2, #400	; 0x190
 80018b8:	491e      	ldr	r1, [pc, #120]	; (8001934 <freeRTOS_Tasks_Ini+0x17c>)
 80018ba:	481f      	ldr	r0, [pc, #124]	; (8001938 <freeRTOS_Tasks_Ini+0x180>)
 80018bc:	f006 f8e4 	bl	8007a88 <xTaskCreate>

	xTaskCreate(vCarriage_Calibration, "Carriage_Calibration", 200, NULL, 2, NULL); // З-а перемещения каретки в заданную точку
 80018c0:	2300      	movs	r3, #0
 80018c2:	9301      	str	r3, [sp, #4]
 80018c4:	2302      	movs	r3, #2
 80018c6:	9300      	str	r3, [sp, #0]
 80018c8:	2300      	movs	r3, #0
 80018ca:	22c8      	movs	r2, #200	; 0xc8
 80018cc:	491b      	ldr	r1, [pc, #108]	; (800193c <freeRTOS_Tasks_Ini+0x184>)
 80018ce:	481c      	ldr	r0, [pc, #112]	; (8001940 <freeRTOS_Tasks_Ini+0x188>)
 80018d0:	f006 f8da 	bl	8007a88 <xTaskCreate>

	xTaskCreate(vKey_Action, "Key_Action", 200, NULL, 2, NULL); // З-а выполняет дейсвия в зависимости от нажатой кнопки и режима работы устройсво
 80018d4:	2300      	movs	r3, #0
 80018d6:	9301      	str	r3, [sp, #4]
 80018d8:	2302      	movs	r3, #2
 80018da:	9300      	str	r3, [sp, #0]
 80018dc:	2300      	movs	r3, #0
 80018de:	22c8      	movs	r2, #200	; 0xc8
 80018e0:	4918      	ldr	r1, [pc, #96]	; (8001944 <freeRTOS_Tasks_Ini+0x18c>)
 80018e2:	4819      	ldr	r0, [pc, #100]	; (8001948 <freeRTOS_Tasks_Ini+0x190>)
 80018e4:	f006 f8d0 	bl	8007a88 <xTaskCreate>

	vTaskStartScheduler();
 80018e8:	f006 fa1e 	bl	8007d28 <vTaskStartScheduler>

}
 80018ec:	bf00      	nop
 80018ee:	46bd      	mov	sp, r7
 80018f0:	bd80      	pop	{r7, pc}
 80018f2:	bf00      	nop
 80018f4:	20004560 	.word	0x20004560
 80018f8:	20004dc4 	.word	0x20004dc4
 80018fc:	20004538 	.word	0x20004538
 8001900:	20004d94 	.word	0x20004d94
 8001904:	20004d80 	.word	0x20004d80
 8001908:	20004d88 	.word	0x20004d88
 800190c:	20004d8c 	.word	0x20004d8c
 8001910:	20004d90 	.word	0x20004d90
 8001914:	0800932c 	.word	0x0800932c
 8001918:	080030a9 	.word	0x080030a9
 800191c:	08009340 	.word	0x08009340
 8001920:	0800267d 	.word	0x0800267d
 8001924:	08009348 	.word	0x08009348
 8001928:	0800316d 	.word	0x0800316d
 800192c:	08009354 	.word	0x08009354
 8001930:	08002201 	.word	0x08002201
 8001934:	08009360 	.word	0x08009360
 8001938:	080024e9 	.word	0x080024e9
 800193c:	08009370 	.word	0x08009370
 8001940:	080023e9 	.word	0x080023e9
 8001944:	08009388 	.word	0x08009388
 8001948:	0800194d 	.word	0x0800194d

0800194c <vKey_Action>:

void vKey_Action(void *pvParameters)
{
 800194c:	b580      	push	{r7, lr}
 800194e:	b084      	sub	sp, #16
 8001950:	af00      	add	r7, sp, #0
 8001952:	6078      	str	r0, [r7, #4]
	uint8_t KeyPressed; // Номер нажатой кнопки или комбинации кнопок
	uint8_t beep_mode_send = beep_click; // Режим работы бипера
 8001954:	2301      	movs	r3, #1
 8001956:	73bb      	strb	r3, [r7, #14]
	uint8_t Cal = Calibrated; // Передача команды калибровка
 8001958:	2304      	movs	r3, #4
 800195a:	737b      	strb	r3, [r7, #13]
	uint8_t Run; // Переменная для передачи команды начало варки
	uint8_t Carriage_cmd = Cmd_CarriageGoTo; //Передача команды для начала движения каретки в заданную точку
 800195c:	2301      	movs	r3, #1
 800195e:	72fb      	strb	r3, [r7, #11]


	for(;;)
	{
		xQueueReceive(qKeyPress, &KeyPressed, portMAX_DELAY ); // Ждать нажатия кнопки
 8001960:	4ba6      	ldr	r3, [pc, #664]	; (8001bfc <vKey_Action+0x2b0>)
 8001962:	681b      	ldr	r3, [r3, #0]
 8001964:	f107 010f 	add.w	r1, r7, #15
 8001968:	f04f 32ff 	mov.w	r2, #4294967295
 800196c:	4618      	mov	r0, r3
 800196e:	f005 fcc9 	bl	8007304 <xQueueReceive>

		switch(KeyPressed)
 8001972:	7bfb      	ldrb	r3, [r7, #15]
 8001974:	2b24      	cmp	r3, #36	; 0x24
 8001976:	d8f3      	bhi.n	8001960 <vKey_Action+0x14>
 8001978:	a201      	add	r2, pc, #4	; (adr r2, 8001980 <vKey_Action+0x34>)
 800197a:	f852 f023 	ldr.w	pc, [r2, r3, lsl #2]
 800197e:	bf00      	nop
 8001980:	08001961 	.word	0x08001961
 8001984:	08001a15 	.word	0x08001a15
 8001988:	08001a73 	.word	0x08001a73
 800198c:	08001a9b 	.word	0x08001a9b
 8001990:	08001b09 	.word	0x08001b09
 8001994:	08001b47 	.word	0x08001b47
 8001998:	08001bbb 	.word	0x08001bbb
 800199c:	08001c0d 	.word	0x08001c0d
 80019a0:	08001c77 	.word	0x08001c77
 80019a4:	08001cab 	.word	0x08001cab
 80019a8:	08001cd3 	.word	0x08001cd3
 80019ac:	08001cfb 	.word	0x08001cfb
 80019b0:	08001d23 	.word	0x08001d23
 80019b4:	08001d4b 	.word	0x08001d4b
 80019b8:	08001d73 	.word	0x08001d73
 80019bc:	08001d9b 	.word	0x08001d9b
 80019c0:	08001dc7 	.word	0x08001dc7
 80019c4:	08001df3 	.word	0x08001df3
 80019c8:	08001e1b 	.word	0x08001e1b
 80019cc:	08001e43 	.word	0x08001e43
 80019d0:	08001e6b 	.word	0x08001e6b
 80019d4:	08001e93 	.word	0x08001e93
 80019d8:	08001ecd 	.word	0x08001ecd
 80019dc:	08001ef5 	.word	0x08001ef5
 80019e0:	08001f21 	.word	0x08001f21
 80019e4:	08002015 	.word	0x08002015
 80019e8:	08002041 	.word	0x08002041
 80019ec:	0800205f 	.word	0x0800205f
 80019f0:	080020bf 	.word	0x080020bf
 80019f4:	080020dd 	.word	0x080020dd
 80019f8:	08002127 	.word	0x08002127
 80019fc:	08002135 	.word	0x08002135
 8001a00:	08001961 	.word	0x08001961
 8001a04:	08001f49 	.word	0x08001f49
 8001a08:	08001f97 	.word	0x08001f97
 8001a0c:	08001fa9 	.word	0x08001fa9
 8001a10:	08001fe9 	.word	0x08001fe9
			break;
		}

		case press_short_Xs_L:
		{
			xQueueSendToBack( qBeepMode, &beep_mode_send, 0 ); // Звук нажатия
 8001a14:	4b7a      	ldr	r3, [pc, #488]	; (8001c00 <vKey_Action+0x2b4>)
 8001a16:	6818      	ldr	r0, [r3, #0]
 8001a18:	f107 010e 	add.w	r1, r7, #14
 8001a1c:	2300      	movs	r3, #0
 8001a1e:	2200      	movs	r2, #0
 8001a20:	f005 fb18 	bl	8007054 <xQueueGenericSend>

			if (WelderUnit.Xs > XS_MIN) // Проверка на попадание в допустимый диапазон значений
 8001a24:	4b77      	ldr	r3, [pc, #476]	; (8001c04 <vKey_Action+0x2b8>)
 8001a26:	881b      	ldrh	r3, [r3, #0]
 8001a28:	2b0a      	cmp	r3, #10
 8001a2a:	f240 8390 	bls.w	800214e <vKey_Action+0x802>
			{
				WelderUnit.Xs--; // Исполнить
 8001a2e:	4b75      	ldr	r3, [pc, #468]	; (8001c04 <vKey_Action+0x2b8>)
 8001a30:	881b      	ldrh	r3, [r3, #0]
 8001a32:	3b01      	subs	r3, #1
 8001a34:	b29a      	uxth	r2, r3
 8001a36:	4b73      	ldr	r3, [pc, #460]	; (8001c04 <vKey_Action+0x2b8>)
 8001a38:	801a      	strh	r2, [r3, #0]

				// Если ручной режим и аппарат откалиброван, то двигать каретку при одиночных нажатиях кнопок "-", "+"
				if ((WelderUnit.Mode == WELDER_MODE_MANUAL) && (WelderUnit.State & WELDER_STATE_CALIBRATED))
 8001a3a:	4b72      	ldr	r3, [pc, #456]	; (8001c04 <vKey_Action+0x2b8>)
 8001a3c:	f893 3023 	ldrb.w	r3, [r3, #35]	; 0x23
 8001a40:	2b02      	cmp	r3, #2
 8001a42:	f040 8384 	bne.w	800214e <vKey_Action+0x802>
 8001a46:	4b6f      	ldr	r3, [pc, #444]	; (8001c04 <vKey_Action+0x2b8>)
 8001a48:	7c1b      	ldrb	r3, [r3, #16]
 8001a4a:	f003 0302 	and.w	r3, r3, #2
 8001a4e:	2b00      	cmp	r3, #0
 8001a50:	f000 837d 	beq.w	800214e <vKey_Action+0x802>
				{
					Carriage_cmd = Cmd_CarriageGoTo;
 8001a54:	2301      	movs	r3, #1
 8001a56:	72fb      	strb	r3, [r7, #11]
					WelderUnit.GoTo = WelderUnit.Xs;
 8001a58:	4b6a      	ldr	r3, [pc, #424]	; (8001c04 <vKey_Action+0x2b8>)
 8001a5a:	881a      	ldrh	r2, [r3, #0]
 8001a5c:	4b69      	ldr	r3, [pc, #420]	; (8001c04 <vKey_Action+0x2b8>)
 8001a5e:	811a      	strh	r2, [r3, #8]
					xQueueSendToBack( qWelderCmd, &Carriage_cmd, 0 ); // Идити к
 8001a60:	4b69      	ldr	r3, [pc, #420]	; (8001c08 <vKey_Action+0x2bc>)
 8001a62:	6818      	ldr	r0, [r3, #0]
 8001a64:	f107 010b 	add.w	r1, r7, #11
 8001a68:	2300      	movs	r3, #0
 8001a6a:	2200      	movs	r2, #0
 8001a6c:	f005 faf2 	bl	8007054 <xQueueGenericSend>

				}
			}
			break;
 8001a70:	e36d      	b.n	800214e <vKey_Action+0x802>
		}

		case press_long_Xs_L:
		{
			xQueueSendToBack( qBeepMode, &beep_mode_send, 0 ); // Звук нажатия
 8001a72:	4b63      	ldr	r3, [pc, #396]	; (8001c00 <vKey_Action+0x2b4>)
 8001a74:	6818      	ldr	r0, [r3, #0]
 8001a76:	f107 010e 	add.w	r1, r7, #14
 8001a7a:	2300      	movs	r3, #0
 8001a7c:	2200      	movs	r2, #0
 8001a7e:	f005 fae9 	bl	8007054 <xQueueGenericSend>
			if (WelderUnit.Xs > XS_MIN + 20) // Проверка на попадание в допустимый диапазон значений
 8001a82:	4b60      	ldr	r3, [pc, #384]	; (8001c04 <vKey_Action+0x2b8>)
 8001a84:	881b      	ldrh	r3, [r3, #0]
 8001a86:	2b1e      	cmp	r3, #30
 8001a88:	f240 8363 	bls.w	8002152 <vKey_Action+0x806>
			{
				WelderUnit.Xs -= 20; // Дейсвия при длинном нажатии
 8001a8c:	4b5d      	ldr	r3, [pc, #372]	; (8001c04 <vKey_Action+0x2b8>)
 8001a8e:	881b      	ldrh	r3, [r3, #0]
 8001a90:	3b14      	subs	r3, #20
 8001a92:	b29a      	uxth	r2, r3
 8001a94:	4b5b      	ldr	r3, [pc, #364]	; (8001c04 <vKey_Action+0x2b8>)
 8001a96:	801a      	strh	r2, [r3, #0]
			}
			break;
 8001a98:	e35b      	b.n	8002152 <vKey_Action+0x806>
		}

		case press_short_Xs_R:
		{
			xQueueSendToBack( qBeepMode, &beep_mode_send, 0 ); // Звук нажатия
 8001a9a:	4b59      	ldr	r3, [pc, #356]	; (8001c00 <vKey_Action+0x2b4>)
 8001a9c:	6818      	ldr	r0, [r3, #0]
 8001a9e:	f107 010e 	add.w	r1, r7, #14
 8001aa2:	2300      	movs	r3, #0
 8001aa4:	2200      	movs	r2, #0
 8001aa6:	f005 fad5 	bl	8007054 <xQueueGenericSend>
			if ((WelderUnit.Xs < XS_MAX) && (WelderUnit.Xs < WelderUnit.Xf)) // Проверка на попадание в допустимый диапазон значений  и что бы Xs была меньше Xf
 8001aaa:	4b56      	ldr	r3, [pc, #344]	; (8001c04 <vKey_Action+0x2b8>)
 8001aac:	881b      	ldrh	r3, [r3, #0]
 8001aae:	f5b3 6fc8 	cmp.w	r3, #1600	; 0x640
 8001ab2:	f080 8350 	bcs.w	8002156 <vKey_Action+0x80a>
 8001ab6:	4b53      	ldr	r3, [pc, #332]	; (8001c04 <vKey_Action+0x2b8>)
 8001ab8:	881a      	ldrh	r2, [r3, #0]
 8001aba:	4b52      	ldr	r3, [pc, #328]	; (8001c04 <vKey_Action+0x2b8>)
 8001abc:	885b      	ldrh	r3, [r3, #2]
 8001abe:	429a      	cmp	r2, r3
 8001ac0:	f080 8349 	bcs.w	8002156 <vKey_Action+0x80a>
			{

			WelderUnit.Xs++; // Исполнить
 8001ac4:	4b4f      	ldr	r3, [pc, #316]	; (8001c04 <vKey_Action+0x2b8>)
 8001ac6:	881b      	ldrh	r3, [r3, #0]
 8001ac8:	3301      	adds	r3, #1
 8001aca:	b29a      	uxth	r2, r3
 8001acc:	4b4d      	ldr	r3, [pc, #308]	; (8001c04 <vKey_Action+0x2b8>)
 8001ace:	801a      	strh	r2, [r3, #0]

			// Если ручной режим и аппарат откалиброван, то двигать каретку при одиночных нажатиях кнопок "-", "+"
			if ((WelderUnit.Mode == WELDER_MODE_MANUAL) && (WelderUnit.State & WELDER_STATE_CALIBRATED))
 8001ad0:	4b4c      	ldr	r3, [pc, #304]	; (8001c04 <vKey_Action+0x2b8>)
 8001ad2:	f893 3023 	ldrb.w	r3, [r3, #35]	; 0x23
 8001ad6:	2b02      	cmp	r3, #2
 8001ad8:	f040 833d 	bne.w	8002156 <vKey_Action+0x80a>
 8001adc:	4b49      	ldr	r3, [pc, #292]	; (8001c04 <vKey_Action+0x2b8>)
 8001ade:	7c1b      	ldrb	r3, [r3, #16]
 8001ae0:	f003 0302 	and.w	r3, r3, #2
 8001ae4:	2b00      	cmp	r3, #0
 8001ae6:	f000 8336 	beq.w	8002156 <vKey_Action+0x80a>
			{
				Carriage_cmd = Cmd_CarriageGoTo;
 8001aea:	2301      	movs	r3, #1
 8001aec:	72fb      	strb	r3, [r7, #11]
				WelderUnit.GoTo = WelderUnit.Xs;
 8001aee:	4b45      	ldr	r3, [pc, #276]	; (8001c04 <vKey_Action+0x2b8>)
 8001af0:	881a      	ldrh	r2, [r3, #0]
 8001af2:	4b44      	ldr	r3, [pc, #272]	; (8001c04 <vKey_Action+0x2b8>)
 8001af4:	811a      	strh	r2, [r3, #8]
				xQueueSendToBack( qWelderCmd, &Carriage_cmd, 0 ); // Идити к
 8001af6:	4b44      	ldr	r3, [pc, #272]	; (8001c08 <vKey_Action+0x2bc>)
 8001af8:	6818      	ldr	r0, [r3, #0]
 8001afa:	f107 010b 	add.w	r1, r7, #11
 8001afe:	2300      	movs	r3, #0
 8001b00:	2200      	movs	r2, #0
 8001b02:	f005 faa7 	bl	8007054 <xQueueGenericSend>

			}

			}
			break;
 8001b06:	e326      	b.n	8002156 <vKey_Action+0x80a>
		}

		case press_long_Xs_R:
		{
			xQueueSendToBack( qBeepMode, &beep_mode_send, 0 ); // Звук нажатия
 8001b08:	4b3d      	ldr	r3, [pc, #244]	; (8001c00 <vKey_Action+0x2b4>)
 8001b0a:	6818      	ldr	r0, [r3, #0]
 8001b0c:	f107 010e 	add.w	r1, r7, #14
 8001b10:	2300      	movs	r3, #0
 8001b12:	2200      	movs	r2, #0
 8001b14:	f005 fa9e 	bl	8007054 <xQueueGenericSend>
			if (WelderUnit.Xs < XS_MAX - 20 && WelderUnit.Xs < WelderUnit.Xf - 20) // Проверка на попадание в допустимый диапазон значений и что бы Xs была меньше Xf
 8001b18:	4b3a      	ldr	r3, [pc, #232]	; (8001c04 <vKey_Action+0x2b8>)
 8001b1a:	881b      	ldrh	r3, [r3, #0]
 8001b1c:	f240 622b 	movw	r2, #1579	; 0x62b
 8001b20:	4293      	cmp	r3, r2
 8001b22:	f200 831a 	bhi.w	800215a <vKey_Action+0x80e>
 8001b26:	4b37      	ldr	r3, [pc, #220]	; (8001c04 <vKey_Action+0x2b8>)
 8001b28:	881b      	ldrh	r3, [r3, #0]
 8001b2a:	461a      	mov	r2, r3
 8001b2c:	4b35      	ldr	r3, [pc, #212]	; (8001c04 <vKey_Action+0x2b8>)
 8001b2e:	885b      	ldrh	r3, [r3, #2]
 8001b30:	3b14      	subs	r3, #20
 8001b32:	429a      	cmp	r2, r3
 8001b34:	f280 8311 	bge.w	800215a <vKey_Action+0x80e>
			{
				WelderUnit.Xs += 20; // Дейсвия при длинном нажатии
 8001b38:	4b32      	ldr	r3, [pc, #200]	; (8001c04 <vKey_Action+0x2b8>)
 8001b3a:	881b      	ldrh	r3, [r3, #0]
 8001b3c:	3314      	adds	r3, #20
 8001b3e:	b29a      	uxth	r2, r3
 8001b40:	4b30      	ldr	r3, [pc, #192]	; (8001c04 <vKey_Action+0x2b8>)
 8001b42:	801a      	strh	r2, [r3, #0]
			}
			break;
 8001b44:	e309      	b.n	800215a <vKey_Action+0x80e>
		}

		case press_short_Xf_L:
		{
			xQueueSendToBack( qBeepMode, &beep_mode_send, 0 ); // Звук нажатия
 8001b46:	4b2e      	ldr	r3, [pc, #184]	; (8001c00 <vKey_Action+0x2b4>)
 8001b48:	6818      	ldr	r0, [r3, #0]
 8001b4a:	f107 010e 	add.w	r1, r7, #14
 8001b4e:	2300      	movs	r3, #0
 8001b50:	2200      	movs	r2, #0
 8001b52:	f005 fa7f 	bl	8007054 <xQueueGenericSend>
			if (WelderUnit.Xf > XF_MIN && WelderUnit.Xf > WelderUnit.Xs) // Проверка на попадание в допустимый диапазон значений
 8001b56:	4b2b      	ldr	r3, [pc, #172]	; (8001c04 <vKey_Action+0x2b8>)
 8001b58:	885b      	ldrh	r3, [r3, #2]
 8001b5a:	2b14      	cmp	r3, #20
 8001b5c:	f240 82ff 	bls.w	800215e <vKey_Action+0x812>
 8001b60:	4b28      	ldr	r3, [pc, #160]	; (8001c04 <vKey_Action+0x2b8>)
 8001b62:	885a      	ldrh	r2, [r3, #2]
 8001b64:	4b27      	ldr	r3, [pc, #156]	; (8001c04 <vKey_Action+0x2b8>)
 8001b66:	881b      	ldrh	r3, [r3, #0]
 8001b68:	429a      	cmp	r2, r3
 8001b6a:	f240 82f8 	bls.w	800215e <vKey_Action+0x812>
			{
				WelderUnit.Xf--; // Исполнить
 8001b6e:	4b25      	ldr	r3, [pc, #148]	; (8001c04 <vKey_Action+0x2b8>)
 8001b70:	885b      	ldrh	r3, [r3, #2]
 8001b72:	3b01      	subs	r3, #1
 8001b74:	b29a      	uxth	r2, r3
 8001b76:	4b23      	ldr	r3, [pc, #140]	; (8001c04 <vKey_Action+0x2b8>)
 8001b78:	805a      	strh	r2, [r3, #2]
				WelderUnit.GoTo = WelderUnit.Xf;
 8001b7a:	4b22      	ldr	r3, [pc, #136]	; (8001c04 <vKey_Action+0x2b8>)
 8001b7c:	885a      	ldrh	r2, [r3, #2]
 8001b7e:	4b21      	ldr	r3, [pc, #132]	; (8001c04 <vKey_Action+0x2b8>)
 8001b80:	811a      	strh	r2, [r3, #8]

				// Если ручной режим и аппарат откалиброван, то двигать каретку при одиночных нажатиях кнопок "-", "+"
				if ((WelderUnit.Mode == WELDER_MODE_MANUAL) && (WelderUnit.State & WELDER_STATE_CALIBRATED))
 8001b82:	4b20      	ldr	r3, [pc, #128]	; (8001c04 <vKey_Action+0x2b8>)
 8001b84:	f893 3023 	ldrb.w	r3, [r3, #35]	; 0x23
 8001b88:	2b02      	cmp	r3, #2
 8001b8a:	f040 82e8 	bne.w	800215e <vKey_Action+0x812>
 8001b8e:	4b1d      	ldr	r3, [pc, #116]	; (8001c04 <vKey_Action+0x2b8>)
 8001b90:	7c1b      	ldrb	r3, [r3, #16]
 8001b92:	f003 0302 	and.w	r3, r3, #2
 8001b96:	2b00      	cmp	r3, #0
 8001b98:	f000 82e1 	beq.w	800215e <vKey_Action+0x812>
				{
					Carriage_cmd = Cmd_CarriageGoTo;
 8001b9c:	2301      	movs	r3, #1
 8001b9e:	72fb      	strb	r3, [r7, #11]
					WelderUnit.GoTo = WelderUnit.Xf;
 8001ba0:	4b18      	ldr	r3, [pc, #96]	; (8001c04 <vKey_Action+0x2b8>)
 8001ba2:	885a      	ldrh	r2, [r3, #2]
 8001ba4:	4b17      	ldr	r3, [pc, #92]	; (8001c04 <vKey_Action+0x2b8>)
 8001ba6:	811a      	strh	r2, [r3, #8]
					xQueueSendToBack( qWelderCmd, &Carriage_cmd, 0 ); // Идити к
 8001ba8:	4b17      	ldr	r3, [pc, #92]	; (8001c08 <vKey_Action+0x2bc>)
 8001baa:	6818      	ldr	r0, [r3, #0]
 8001bac:	f107 010b 	add.w	r1, r7, #11
 8001bb0:	2300      	movs	r3, #0
 8001bb2:	2200      	movs	r2, #0
 8001bb4:	f005 fa4e 	bl	8007054 <xQueueGenericSend>

				}
			}
			break;
 8001bb8:	e2d1      	b.n	800215e <vKey_Action+0x812>
		}

		case press_long_Xf_L:
		{
			xQueueSendToBack( qBeepMode, &beep_mode_send, 0 ); // Звук нажатия
 8001bba:	4b11      	ldr	r3, [pc, #68]	; (8001c00 <vKey_Action+0x2b4>)
 8001bbc:	6818      	ldr	r0, [r3, #0]
 8001bbe:	f107 010e 	add.w	r1, r7, #14
 8001bc2:	2300      	movs	r3, #0
 8001bc4:	2200      	movs	r2, #0
 8001bc6:	f005 fa45 	bl	8007054 <xQueueGenericSend>
			if (WelderUnit.Xf > XF_MIN + 20 && WelderUnit.Xf > WelderUnit.Xs + 20 ) // Проверка на попадание в допустимый диапазон значений и что бы Xs была меньше Xf
 8001bca:	4b0e      	ldr	r3, [pc, #56]	; (8001c04 <vKey_Action+0x2b8>)
 8001bcc:	885b      	ldrh	r3, [r3, #2]
 8001bce:	2b28      	cmp	r3, #40	; 0x28
 8001bd0:	f240 82c8 	bls.w	8002164 <vKey_Action+0x818>
 8001bd4:	4b0b      	ldr	r3, [pc, #44]	; (8001c04 <vKey_Action+0x2b8>)
 8001bd6:	885b      	ldrh	r3, [r3, #2]
 8001bd8:	461a      	mov	r2, r3
 8001bda:	4b0a      	ldr	r3, [pc, #40]	; (8001c04 <vKey_Action+0x2b8>)
 8001bdc:	881b      	ldrh	r3, [r3, #0]
 8001bde:	3314      	adds	r3, #20
 8001be0:	429a      	cmp	r2, r3
 8001be2:	f340 82bf 	ble.w	8002164 <vKey_Action+0x818>
			{
				WelderUnit.Xf -= 20; // Дейсвия при длинном нажатии
 8001be6:	4b07      	ldr	r3, [pc, #28]	; (8001c04 <vKey_Action+0x2b8>)
 8001be8:	885b      	ldrh	r3, [r3, #2]
 8001bea:	3b14      	subs	r3, #20
 8001bec:	b29a      	uxth	r2, r3
 8001bee:	4b05      	ldr	r3, [pc, #20]	; (8001c04 <vKey_Action+0x2b8>)
 8001bf0:	805a      	strh	r2, [r3, #2]
				WelderUnit.GoTo = WelderUnit.Xf;
 8001bf2:	4b04      	ldr	r3, [pc, #16]	; (8001c04 <vKey_Action+0x2b8>)
 8001bf4:	885a      	ldrh	r2, [r3, #2]
 8001bf6:	4b03      	ldr	r3, [pc, #12]	; (8001c04 <vKey_Action+0x2b8>)
 8001bf8:	811a      	strh	r2, [r3, #8]
			}
			break;
 8001bfa:	e2b3      	b.n	8002164 <vKey_Action+0x818>
 8001bfc:	20004d90 	.word	0x20004d90
 8001c00:	20004538 	.word	0x20004538
 8001c04:	2000453c 	.word	0x2000453c
 8001c08:	20004d94 	.word	0x20004d94
		}

		case press_short_Xf_R:
		{
			xQueueSendToBack( qBeepMode, &beep_mode_send, 0 ); // Звук нажатия
 8001c0c:	4bac      	ldr	r3, [pc, #688]	; (8001ec0 <vKey_Action+0x574>)
 8001c0e:	6818      	ldr	r0, [r3, #0]
 8001c10:	f107 010e 	add.w	r1, r7, #14
 8001c14:	2300      	movs	r3, #0
 8001c16:	2200      	movs	r2, #0
 8001c18:	f005 fa1c 	bl	8007054 <xQueueGenericSend>
			if (WelderUnit.Xf < XF_MAX ) // Проверка на попадание в допустимый диапазон значений
 8001c1c:	4ba9      	ldr	r3, [pc, #676]	; (8001ec4 <vKey_Action+0x578>)
 8001c1e:	885b      	ldrh	r3, [r3, #2]
 8001c20:	f240 6271 	movw	r2, #1649	; 0x671
 8001c24:	4293      	cmp	r3, r2
 8001c26:	f200 82a0 	bhi.w	800216a <vKey_Action+0x81e>
			{
				WelderUnit.Xf++; // Исполнить
 8001c2a:	4ba6      	ldr	r3, [pc, #664]	; (8001ec4 <vKey_Action+0x578>)
 8001c2c:	885b      	ldrh	r3, [r3, #2]
 8001c2e:	3301      	adds	r3, #1
 8001c30:	b29a      	uxth	r2, r3
 8001c32:	4ba4      	ldr	r3, [pc, #656]	; (8001ec4 <vKey_Action+0x578>)
 8001c34:	805a      	strh	r2, [r3, #2]
				WelderUnit.GoTo = WelderUnit.Xf;
 8001c36:	4ba3      	ldr	r3, [pc, #652]	; (8001ec4 <vKey_Action+0x578>)
 8001c38:	885a      	ldrh	r2, [r3, #2]
 8001c3a:	4ba2      	ldr	r3, [pc, #648]	; (8001ec4 <vKey_Action+0x578>)
 8001c3c:	811a      	strh	r2, [r3, #8]

				// Если ручной режим и аппарат откалиброван, то двигать каретку при одиночных нажатиях кнопок "-", "+"
				if ((WelderUnit.Mode == WELDER_MODE_MANUAL) && (WelderUnit.State & WELDER_STATE_CALIBRATED))
 8001c3e:	4ba1      	ldr	r3, [pc, #644]	; (8001ec4 <vKey_Action+0x578>)
 8001c40:	f893 3023 	ldrb.w	r3, [r3, #35]	; 0x23
 8001c44:	2b02      	cmp	r3, #2
 8001c46:	f040 8290 	bne.w	800216a <vKey_Action+0x81e>
 8001c4a:	4b9e      	ldr	r3, [pc, #632]	; (8001ec4 <vKey_Action+0x578>)
 8001c4c:	7c1b      	ldrb	r3, [r3, #16]
 8001c4e:	f003 0302 	and.w	r3, r3, #2
 8001c52:	2b00      	cmp	r3, #0
 8001c54:	f000 8289 	beq.w	800216a <vKey_Action+0x81e>
				{
					Carriage_cmd = Cmd_CarriageGoTo;
 8001c58:	2301      	movs	r3, #1
 8001c5a:	72fb      	strb	r3, [r7, #11]
					WelderUnit.GoTo = WelderUnit.Xf;
 8001c5c:	4b99      	ldr	r3, [pc, #612]	; (8001ec4 <vKey_Action+0x578>)
 8001c5e:	885a      	ldrh	r2, [r3, #2]
 8001c60:	4b98      	ldr	r3, [pc, #608]	; (8001ec4 <vKey_Action+0x578>)
 8001c62:	811a      	strh	r2, [r3, #8]
					xQueueSendToBack( qWelderCmd, &Carriage_cmd, 0 ); // Идити к
 8001c64:	4b98      	ldr	r3, [pc, #608]	; (8001ec8 <vKey_Action+0x57c>)
 8001c66:	6818      	ldr	r0, [r3, #0]
 8001c68:	f107 010b 	add.w	r1, r7, #11
 8001c6c:	2300      	movs	r3, #0
 8001c6e:	2200      	movs	r2, #0
 8001c70:	f005 f9f0 	bl	8007054 <xQueueGenericSend>

				}
			}
			break;
 8001c74:	e279      	b.n	800216a <vKey_Action+0x81e>
		}

		case press_long_Xf_R:
		{
			xQueueSendToBack( qBeepMode, &beep_mode_send, 0 ); // Звук нажатия
 8001c76:	4b92      	ldr	r3, [pc, #584]	; (8001ec0 <vKey_Action+0x574>)
 8001c78:	6818      	ldr	r0, [r3, #0]
 8001c7a:	f107 010e 	add.w	r1, r7, #14
 8001c7e:	2300      	movs	r3, #0
 8001c80:	2200      	movs	r2, #0
 8001c82:	f005 f9e7 	bl	8007054 <xQueueGenericSend>
			if (WelderUnit.Xf < XF_MAX - 20 ) // Проверка на попадание в допустимый диапазон значений
 8001c86:	4b8f      	ldr	r3, [pc, #572]	; (8001ec4 <vKey_Action+0x578>)
 8001c88:	885b      	ldrh	r3, [r3, #2]
 8001c8a:	f240 625d 	movw	r2, #1629	; 0x65d
 8001c8e:	4293      	cmp	r3, r2
 8001c90:	f200 826e 	bhi.w	8002170 <vKey_Action+0x824>
			{
				WelderUnit.Xf += 20; // Дейсвия при длинном нажатии
 8001c94:	4b8b      	ldr	r3, [pc, #556]	; (8001ec4 <vKey_Action+0x578>)
 8001c96:	885b      	ldrh	r3, [r3, #2]
 8001c98:	3314      	adds	r3, #20
 8001c9a:	b29a      	uxth	r2, r3
 8001c9c:	4b89      	ldr	r3, [pc, #548]	; (8001ec4 <vKey_Action+0x578>)
 8001c9e:	805a      	strh	r2, [r3, #2]
				WelderUnit.GoTo = WelderUnit.Xf;
 8001ca0:	4b88      	ldr	r3, [pc, #544]	; (8001ec4 <vKey_Action+0x578>)
 8001ca2:	885a      	ldrh	r2, [r3, #2]
 8001ca4:	4b87      	ldr	r3, [pc, #540]	; (8001ec4 <vKey_Action+0x578>)
 8001ca6:	811a      	strh	r2, [r3, #8]
			}
			break;
 8001ca8:	e262      	b.n	8002170 <vKey_Action+0x824>

		}

		case press_short_Delay_s_L:
		{
			xQueueSendToBack( qBeepMode, &beep_mode_send, 0 ); // Звук нажатия
 8001caa:	4b85      	ldr	r3, [pc, #532]	; (8001ec0 <vKey_Action+0x574>)
 8001cac:	6818      	ldr	r0, [r3, #0]
 8001cae:	f107 010e 	add.w	r1, r7, #14
 8001cb2:	2300      	movs	r3, #0
 8001cb4:	2200      	movs	r2, #0
 8001cb6:	f005 f9cd 	bl	8007054 <xQueueGenericSend>
			if (WelderUnit.Delay_s > DELAY_S_MIN) // Проверка на попадание в допустимый диапазон значений
 8001cba:	4b82      	ldr	r3, [pc, #520]	; (8001ec4 <vKey_Action+0x578>)
 8001cbc:	7a9b      	ldrb	r3, [r3, #10]
 8001cbe:	2b01      	cmp	r3, #1
 8001cc0:	f240 8259 	bls.w	8002176 <vKey_Action+0x82a>
			{
				WelderUnit.Delay_s--; // Исполнить
 8001cc4:	4b7f      	ldr	r3, [pc, #508]	; (8001ec4 <vKey_Action+0x578>)
 8001cc6:	7a9b      	ldrb	r3, [r3, #10]
 8001cc8:	3b01      	subs	r3, #1
 8001cca:	b2da      	uxtb	r2, r3
 8001ccc:	4b7d      	ldr	r3, [pc, #500]	; (8001ec4 <vKey_Action+0x578>)
 8001cce:	729a      	strb	r2, [r3, #10]
			}
			break;
 8001cd0:	e251      	b.n	8002176 <vKey_Action+0x82a>
		}

		case press_long_Delay_s_L:
		{
			xQueueSendToBack( qBeepMode, &beep_mode_send, 0 ); // Звук нажатия
 8001cd2:	4b7b      	ldr	r3, [pc, #492]	; (8001ec0 <vKey_Action+0x574>)
 8001cd4:	6818      	ldr	r0, [r3, #0]
 8001cd6:	f107 010e 	add.w	r1, r7, #14
 8001cda:	2300      	movs	r3, #0
 8001cdc:	2200      	movs	r2, #0
 8001cde:	f005 f9b9 	bl	8007054 <xQueueGenericSend>
			if (WelderUnit.Delay_s > DELAY_S_MIN + 10) // Проверка на попадание в допустимый диапазон значений
 8001ce2:	4b78      	ldr	r3, [pc, #480]	; (8001ec4 <vKey_Action+0x578>)
 8001ce4:	7a9b      	ldrb	r3, [r3, #10]
 8001ce6:	2b0b      	cmp	r3, #11
 8001ce8:	f240 8248 	bls.w	800217c <vKey_Action+0x830>
			{
				WelderUnit.Delay_s -= 10; // Дейсвия при длинном нажатии
 8001cec:	4b75      	ldr	r3, [pc, #468]	; (8001ec4 <vKey_Action+0x578>)
 8001cee:	7a9b      	ldrb	r3, [r3, #10]
 8001cf0:	3b0a      	subs	r3, #10
 8001cf2:	b2da      	uxtb	r2, r3
 8001cf4:	4b73      	ldr	r3, [pc, #460]	; (8001ec4 <vKey_Action+0x578>)
 8001cf6:	729a      	strb	r2, [r3, #10]
			}
			break;
 8001cf8:	e240      	b.n	800217c <vKey_Action+0x830>
		}

		case press_short_Delay_s_R:
		{
			xQueueSendToBack( qBeepMode, &beep_mode_send, 0 ); // Звук нажатия
 8001cfa:	4b71      	ldr	r3, [pc, #452]	; (8001ec0 <vKey_Action+0x574>)
 8001cfc:	6818      	ldr	r0, [r3, #0]
 8001cfe:	f107 010e 	add.w	r1, r7, #14
 8001d02:	2300      	movs	r3, #0
 8001d04:	2200      	movs	r2, #0
 8001d06:	f005 f9a5 	bl	8007054 <xQueueGenericSend>
			if (WelderUnit.Delay_s < DELAY_S_MAX ) // Проверка на попадание в допустимый диапазон значений
 8001d0a:	4b6e      	ldr	r3, [pc, #440]	; (8001ec4 <vKey_Action+0x578>)
 8001d0c:	7a9b      	ldrb	r3, [r3, #10]
 8001d0e:	2b31      	cmp	r3, #49	; 0x31
 8001d10:	f200 8237 	bhi.w	8002182 <vKey_Action+0x836>
			{
				WelderUnit.Delay_s++; // Исполнить
 8001d14:	4b6b      	ldr	r3, [pc, #428]	; (8001ec4 <vKey_Action+0x578>)
 8001d16:	7a9b      	ldrb	r3, [r3, #10]
 8001d18:	3301      	adds	r3, #1
 8001d1a:	b2da      	uxtb	r2, r3
 8001d1c:	4b69      	ldr	r3, [pc, #420]	; (8001ec4 <vKey_Action+0x578>)
 8001d1e:	729a      	strb	r2, [r3, #10]
			}
			break;
 8001d20:	e22f      	b.n	8002182 <vKey_Action+0x836>
		}

		case press_long_Delay_s_R:
		{
			xQueueSendToBack( qBeepMode, &beep_mode_send, 0 ); // Звук нажатия
 8001d22:	4b67      	ldr	r3, [pc, #412]	; (8001ec0 <vKey_Action+0x574>)
 8001d24:	6818      	ldr	r0, [r3, #0]
 8001d26:	f107 010e 	add.w	r1, r7, #14
 8001d2a:	2300      	movs	r3, #0
 8001d2c:	2200      	movs	r2, #0
 8001d2e:	f005 f991 	bl	8007054 <xQueueGenericSend>
			if (WelderUnit.Delay_s < DELAY_S_MAX - 10 ) // Проверка на попадание в допустимый диапазон значений
 8001d32:	4b64      	ldr	r3, [pc, #400]	; (8001ec4 <vKey_Action+0x578>)
 8001d34:	7a9b      	ldrb	r3, [r3, #10]
 8001d36:	2b27      	cmp	r3, #39	; 0x27
 8001d38:	f200 8226 	bhi.w	8002188 <vKey_Action+0x83c>
			{
				WelderUnit.Delay_s += 10; // Дейсвия при длинном нажатии
 8001d3c:	4b61      	ldr	r3, [pc, #388]	; (8001ec4 <vKey_Action+0x578>)
 8001d3e:	7a9b      	ldrb	r3, [r3, #10]
 8001d40:	330a      	adds	r3, #10
 8001d42:	b2da      	uxtb	r2, r3
 8001d44:	4b5f      	ldr	r3, [pc, #380]	; (8001ec4 <vKey_Action+0x578>)
 8001d46:	729a      	strb	r2, [r3, #10]
			}
			break;
 8001d48:	e21e      	b.n	8002188 <vKey_Action+0x83c>
		}

		case press_short_Speed_L:
		{
			xQueueSendToBack( qBeepMode, &beep_mode_send, 0 ); // Звук нажатия
 8001d4a:	4b5d      	ldr	r3, [pc, #372]	; (8001ec0 <vKey_Action+0x574>)
 8001d4c:	6818      	ldr	r0, [r3, #0]
 8001d4e:	f107 010e 	add.w	r1, r7, #14
 8001d52:	2300      	movs	r3, #0
 8001d54:	2200      	movs	r2, #0
 8001d56:	f005 f97d 	bl	8007054 <xQueueGenericSend>
			if (WelderUnit.Speed > SPEED_MIN) // Проверка на попадание в допустимый диапазон значений
 8001d5a:	4b5a      	ldr	r3, [pc, #360]	; (8001ec4 <vKey_Action+0x578>)
 8001d5c:	88db      	ldrh	r3, [r3, #6]
 8001d5e:	2b01      	cmp	r3, #1
 8001d60:	f240 8215 	bls.w	800218e <vKey_Action+0x842>
			{
				WelderUnit.Speed--; // Исполнить
 8001d64:	4b57      	ldr	r3, [pc, #348]	; (8001ec4 <vKey_Action+0x578>)
 8001d66:	88db      	ldrh	r3, [r3, #6]
 8001d68:	3b01      	subs	r3, #1
 8001d6a:	b29a      	uxth	r2, r3
 8001d6c:	4b55      	ldr	r3, [pc, #340]	; (8001ec4 <vKey_Action+0x578>)
 8001d6e:	80da      	strh	r2, [r3, #6]
			}
			break;
 8001d70:	e20d      	b.n	800218e <vKey_Action+0x842>
		}

		case press_long_Speed_L:
		{
			xQueueSendToBack( qBeepMode, &beep_mode_send, 0 ); // Звук нажатия
 8001d72:	4b53      	ldr	r3, [pc, #332]	; (8001ec0 <vKey_Action+0x574>)
 8001d74:	6818      	ldr	r0, [r3, #0]
 8001d76:	f107 010e 	add.w	r1, r7, #14
 8001d7a:	2300      	movs	r3, #0
 8001d7c:	2200      	movs	r2, #0
 8001d7e:	f005 f969 	bl	8007054 <xQueueGenericSend>
			if (WelderUnit.Speed > SPEED_MIN + 20) // Проверка на попадание в допустимый диапазон значений
 8001d82:	4b50      	ldr	r3, [pc, #320]	; (8001ec4 <vKey_Action+0x578>)
 8001d84:	88db      	ldrh	r3, [r3, #6]
 8001d86:	2b15      	cmp	r3, #21
 8001d88:	f240 8204 	bls.w	8002194 <vKey_Action+0x848>
			{
				WelderUnit.Speed -= 20; // Дейсвия при длинном нажатии
 8001d8c:	4b4d      	ldr	r3, [pc, #308]	; (8001ec4 <vKey_Action+0x578>)
 8001d8e:	88db      	ldrh	r3, [r3, #6]
 8001d90:	3b14      	subs	r3, #20
 8001d92:	b29a      	uxth	r2, r3
 8001d94:	4b4b      	ldr	r3, [pc, #300]	; (8001ec4 <vKey_Action+0x578>)
 8001d96:	80da      	strh	r2, [r3, #6]
			}
			break;
 8001d98:	e1fc      	b.n	8002194 <vKey_Action+0x848>
		}

		case press_short_Speed_R:
		{
			xQueueSendToBack( qBeepMode, &beep_mode_send, 0 ); // Звук нажатия
 8001d9a:	4b49      	ldr	r3, [pc, #292]	; (8001ec0 <vKey_Action+0x574>)
 8001d9c:	6818      	ldr	r0, [r3, #0]
 8001d9e:	f107 010e 	add.w	r1, r7, #14
 8001da2:	2300      	movs	r3, #0
 8001da4:	2200      	movs	r2, #0
 8001da6:	f005 f955 	bl	8007054 <xQueueGenericSend>
			if (WelderUnit.Speed < SPEED_MAX ) // Проверка на попадание в допустимый диапазон значений
 8001daa:	4b46      	ldr	r3, [pc, #280]	; (8001ec4 <vKey_Action+0x578>)
 8001dac:	88db      	ldrh	r3, [r3, #6]
 8001dae:	f240 32e6 	movw	r2, #998	; 0x3e6
 8001db2:	4293      	cmp	r3, r2
 8001db4:	f200 81f1 	bhi.w	800219a <vKey_Action+0x84e>
			{
				WelderUnit.Speed++; // Исполнить
 8001db8:	4b42      	ldr	r3, [pc, #264]	; (8001ec4 <vKey_Action+0x578>)
 8001dba:	88db      	ldrh	r3, [r3, #6]
 8001dbc:	3301      	adds	r3, #1
 8001dbe:	b29a      	uxth	r2, r3
 8001dc0:	4b40      	ldr	r3, [pc, #256]	; (8001ec4 <vKey_Action+0x578>)
 8001dc2:	80da      	strh	r2, [r3, #6]
			}
			break;
 8001dc4:	e1e9      	b.n	800219a <vKey_Action+0x84e>
		}

		case press_long_Speed_R:
		{
			xQueueSendToBack( qBeepMode, &beep_mode_send, 0 ); // Звук нажатия
 8001dc6:	4b3e      	ldr	r3, [pc, #248]	; (8001ec0 <vKey_Action+0x574>)
 8001dc8:	6818      	ldr	r0, [r3, #0]
 8001dca:	f107 010e 	add.w	r1, r7, #14
 8001dce:	2300      	movs	r3, #0
 8001dd0:	2200      	movs	r2, #0
 8001dd2:	f005 f93f 	bl	8007054 <xQueueGenericSend>
			if (WelderUnit.Speed < SPEED_MAX- 20 ) // Проверка на попадание в допустимый диапазон значений
 8001dd6:	4b3b      	ldr	r3, [pc, #236]	; (8001ec4 <vKey_Action+0x578>)
 8001dd8:	88db      	ldrh	r3, [r3, #6]
 8001dda:	f240 32d2 	movw	r2, #978	; 0x3d2
 8001dde:	4293      	cmp	r3, r2
 8001de0:	f200 81de 	bhi.w	80021a0 <vKey_Action+0x854>
			{
				WelderUnit.Speed += 20; // Дейсвия при длинном нажатии
 8001de4:	4b37      	ldr	r3, [pc, #220]	; (8001ec4 <vKey_Action+0x578>)
 8001de6:	88db      	ldrh	r3, [r3, #6]
 8001de8:	3314      	adds	r3, #20
 8001dea:	b29a      	uxth	r2, r3
 8001dec:	4b35      	ldr	r3, [pc, #212]	; (8001ec4 <vKey_Action+0x578>)
 8001dee:	80da      	strh	r2, [r3, #6]
			}
			break;
 8001df0:	e1d6      	b.n	80021a0 <vKey_Action+0x854>
		}

		case press_short_Delay_f_L:
		{
			xQueueSendToBack( qBeepMode, &beep_mode_send, 0 ); // Звук нажатия
 8001df2:	4b33      	ldr	r3, [pc, #204]	; (8001ec0 <vKey_Action+0x574>)
 8001df4:	6818      	ldr	r0, [r3, #0]
 8001df6:	f107 010e 	add.w	r1, r7, #14
 8001dfa:	2300      	movs	r3, #0
 8001dfc:	2200      	movs	r2, #0
 8001dfe:	f005 f929 	bl	8007054 <xQueueGenericSend>
			if (WelderUnit.Delay_f > DELAY_F_MIN) // Проверка на попадание в допустимый диапазон значений
 8001e02:	4b30      	ldr	r3, [pc, #192]	; (8001ec4 <vKey_Action+0x578>)
 8001e04:	7adb      	ldrb	r3, [r3, #11]
 8001e06:	2b02      	cmp	r3, #2
 8001e08:	f240 81cd 	bls.w	80021a6 <vKey_Action+0x85a>
			{
				WelderUnit.Delay_f--; // Исполнить
 8001e0c:	4b2d      	ldr	r3, [pc, #180]	; (8001ec4 <vKey_Action+0x578>)
 8001e0e:	7adb      	ldrb	r3, [r3, #11]
 8001e10:	3b01      	subs	r3, #1
 8001e12:	b2da      	uxtb	r2, r3
 8001e14:	4b2b      	ldr	r3, [pc, #172]	; (8001ec4 <vKey_Action+0x578>)
 8001e16:	72da      	strb	r2, [r3, #11]
			}
			break;
 8001e18:	e1c5      	b.n	80021a6 <vKey_Action+0x85a>
		}

		case press_long_Delay_f_L:
		{
			xQueueSendToBack( qBeepMode, &beep_mode_send, 0 ); // Звук нажатия
 8001e1a:	4b29      	ldr	r3, [pc, #164]	; (8001ec0 <vKey_Action+0x574>)
 8001e1c:	6818      	ldr	r0, [r3, #0]
 8001e1e:	f107 010e 	add.w	r1, r7, #14
 8001e22:	2300      	movs	r3, #0
 8001e24:	2200      	movs	r2, #0
 8001e26:	f005 f915 	bl	8007054 <xQueueGenericSend>
			if (WelderUnit.Delay_f > DELAY_F_MIN + 10) // Проверка на попадание в допустимый диапазон значений
 8001e2a:	4b26      	ldr	r3, [pc, #152]	; (8001ec4 <vKey_Action+0x578>)
 8001e2c:	7adb      	ldrb	r3, [r3, #11]
 8001e2e:	2b0c      	cmp	r3, #12
 8001e30:	f240 81bc 	bls.w	80021ac <vKey_Action+0x860>
			{
				WelderUnit.Delay_f -= 10; // Дейсвия при длинном нажатии
 8001e34:	4b23      	ldr	r3, [pc, #140]	; (8001ec4 <vKey_Action+0x578>)
 8001e36:	7adb      	ldrb	r3, [r3, #11]
 8001e38:	3b0a      	subs	r3, #10
 8001e3a:	b2da      	uxtb	r2, r3
 8001e3c:	4b21      	ldr	r3, [pc, #132]	; (8001ec4 <vKey_Action+0x578>)
 8001e3e:	72da      	strb	r2, [r3, #11]
			}
			break;
 8001e40:	e1b4      	b.n	80021ac <vKey_Action+0x860>
		}

		case press_short_Delay_f_R:
		{
			xQueueSendToBack( qBeepMode, &beep_mode_send, 0 ); // Звук нажатия
 8001e42:	4b1f      	ldr	r3, [pc, #124]	; (8001ec0 <vKey_Action+0x574>)
 8001e44:	6818      	ldr	r0, [r3, #0]
 8001e46:	f107 010e 	add.w	r1, r7, #14
 8001e4a:	2300      	movs	r3, #0
 8001e4c:	2200      	movs	r2, #0
 8001e4e:	f005 f901 	bl	8007054 <xQueueGenericSend>
			if (WelderUnit.Delay_f < DELAY_F_MAX) // Проверка на попадание в допустимый диапазон значений
 8001e52:	4b1c      	ldr	r3, [pc, #112]	; (8001ec4 <vKey_Action+0x578>)
 8001e54:	7adb      	ldrb	r3, [r3, #11]
 8001e56:	2b45      	cmp	r3, #69	; 0x45
 8001e58:	f200 81ab 	bhi.w	80021b2 <vKey_Action+0x866>
			{
				WelderUnit.Delay_f++; // Исполнить
 8001e5c:	4b19      	ldr	r3, [pc, #100]	; (8001ec4 <vKey_Action+0x578>)
 8001e5e:	7adb      	ldrb	r3, [r3, #11]
 8001e60:	3301      	adds	r3, #1
 8001e62:	b2da      	uxtb	r2, r3
 8001e64:	4b17      	ldr	r3, [pc, #92]	; (8001ec4 <vKey_Action+0x578>)
 8001e66:	72da      	strb	r2, [r3, #11]
			}
			break;
 8001e68:	e1a3      	b.n	80021b2 <vKey_Action+0x866>
		}

		case press_long_Delay_f_R:
		{
			xQueueSendToBack( qBeepMode, &beep_mode_send, 0 ); // Звук нажатия
 8001e6a:	4b15      	ldr	r3, [pc, #84]	; (8001ec0 <vKey_Action+0x574>)
 8001e6c:	6818      	ldr	r0, [r3, #0]
 8001e6e:	f107 010e 	add.w	r1, r7, #14
 8001e72:	2300      	movs	r3, #0
 8001e74:	2200      	movs	r2, #0
 8001e76:	f005 f8ed 	bl	8007054 <xQueueGenericSend>
			if (WelderUnit.Delay_f < DELAY_F_MAX - 10 ) // Проверка на попадание в допустимый диапазон значений
 8001e7a:	4b12      	ldr	r3, [pc, #72]	; (8001ec4 <vKey_Action+0x578>)
 8001e7c:	7adb      	ldrb	r3, [r3, #11]
 8001e7e:	2b3b      	cmp	r3, #59	; 0x3b
 8001e80:	f200 819a 	bhi.w	80021b8 <vKey_Action+0x86c>
			{
				WelderUnit.Delay_f += 10; // Дейсвия при длинном нажатии
 8001e84:	4b0f      	ldr	r3, [pc, #60]	; (8001ec4 <vKey_Action+0x578>)
 8001e86:	7adb      	ldrb	r3, [r3, #11]
 8001e88:	330a      	adds	r3, #10
 8001e8a:	b2da      	uxtb	r2, r3
 8001e8c:	4b0d      	ldr	r3, [pc, #52]	; (8001ec4 <vKey_Action+0x578>)
 8001e8e:	72da      	strb	r2, [r3, #11]
			}
			break;
 8001e90:	e192      	b.n	80021b8 <vKey_Action+0x86c>
		}

		case press_short_Program_L:
		{
			xQueueSendToBack( qBeepMode, &beep_mode_send, 0 ); // Звук нажатия
 8001e92:	4b0b      	ldr	r3, [pc, #44]	; (8001ec0 <vKey_Action+0x574>)
 8001e94:	6818      	ldr	r0, [r3, #0]
 8001e96:	f107 010e 	add.w	r1, r7, #14
 8001e9a:	2300      	movs	r3, #0
 8001e9c:	2200      	movs	r2, #0
 8001e9e:	f005 f8d9 	bl	8007054 <xQueueGenericSend>
			if (WelderUnit.Program > PROGRAM_MIN) // Проверка на попадание в допустимый диапазон значений
 8001ea2:	4b08      	ldr	r3, [pc, #32]	; (8001ec4 <vKey_Action+0x578>)
 8001ea4:	899b      	ldrh	r3, [r3, #12]
 8001ea6:	2b01      	cmp	r3, #1
 8001ea8:	f240 8194 	bls.w	80021d4 <vKey_Action+0x888>
			{
				WelderUnit.Program--; // Исполнить
 8001eac:	4b05      	ldr	r3, [pc, #20]	; (8001ec4 <vKey_Action+0x578>)
 8001eae:	899b      	ldrh	r3, [r3, #12]
 8001eb0:	3b01      	subs	r3, #1
 8001eb2:	b29a      	uxth	r2, r3
 8001eb4:	4b03      	ldr	r3, [pc, #12]	; (8001ec4 <vKey_Action+0x578>)
 8001eb6:	819a      	strh	r2, [r3, #12]
				ReadProgramFromFlash2();
 8001eb8:	f7ff f98a 	bl	80011d0 <ReadProgramFromFlash2>
			}
			break;
 8001ebc:	e18a      	b.n	80021d4 <vKey_Action+0x888>
 8001ebe:	bf00      	nop
 8001ec0:	20004538 	.word	0x20004538
 8001ec4:	2000453c 	.word	0x2000453c
 8001ec8:	20004d94 	.word	0x20004d94
		}

		case press_long_Program_L:
		{
			xQueueSendToBack( qBeepMode, &beep_mode_send, 0 ); // Звук нажатия
 8001ecc:	4bbc      	ldr	r3, [pc, #752]	; (80021c0 <vKey_Action+0x874>)
 8001ece:	6818      	ldr	r0, [r3, #0]
 8001ed0:	f107 010e 	add.w	r1, r7, #14
 8001ed4:	2300      	movs	r3, #0
 8001ed6:	2200      	movs	r2, #0
 8001ed8:	f005 f8bc 	bl	8007054 <xQueueGenericSend>
			if (WelderUnit.Program > PROGRAM_MIN + 20) // Проверка на попадание в допустимый диапазон значений
 8001edc:	4bb9      	ldr	r3, [pc, #740]	; (80021c4 <vKey_Action+0x878>)
 8001ede:	899b      	ldrh	r3, [r3, #12]
 8001ee0:	2b15      	cmp	r3, #21
 8001ee2:	f240 817a 	bls.w	80021da <vKey_Action+0x88e>
			{
				WelderUnit.Program -= 20; // Дейсвия при длинном нажатии
 8001ee6:	4bb7      	ldr	r3, [pc, #732]	; (80021c4 <vKey_Action+0x878>)
 8001ee8:	899b      	ldrh	r3, [r3, #12]
 8001eea:	3b14      	subs	r3, #20
 8001eec:	b29a      	uxth	r2, r3
 8001eee:	4bb5      	ldr	r3, [pc, #724]	; (80021c4 <vKey_Action+0x878>)
 8001ef0:	819a      	strh	r2, [r3, #12]
			}
			break;
 8001ef2:	e172      	b.n	80021da <vKey_Action+0x88e>
		}

		case press_short_Program_R:
		{
			xQueueSendToBack( qBeepMode, &beep_mode_send, 0 );
 8001ef4:	4bb2      	ldr	r3, [pc, #712]	; (80021c0 <vKey_Action+0x874>)
 8001ef6:	6818      	ldr	r0, [r3, #0]
 8001ef8:	f107 010e 	add.w	r1, r7, #14
 8001efc:	2300      	movs	r3, #0
 8001efe:	2200      	movs	r2, #0
 8001f00:	f005 f8a8 	bl	8007054 <xQueueGenericSend>
			if (WelderUnit.Program < PROGRAM_MAX) // Проверка на попадание в допустимый диапазон значений
 8001f04:	4baf      	ldr	r3, [pc, #700]	; (80021c4 <vKey_Action+0x878>)
 8001f06:	899b      	ldrh	r3, [r3, #12]
 8001f08:	2b45      	cmp	r3, #69	; 0x45
 8001f0a:	f200 8169 	bhi.w	80021e0 <vKey_Action+0x894>
			{
				WelderUnit.Program++; // Исполнить
 8001f0e:	4bad      	ldr	r3, [pc, #692]	; (80021c4 <vKey_Action+0x878>)
 8001f10:	899b      	ldrh	r3, [r3, #12]
 8001f12:	3301      	adds	r3, #1
 8001f14:	b29a      	uxth	r2, r3
 8001f16:	4bab      	ldr	r3, [pc, #684]	; (80021c4 <vKey_Action+0x878>)
 8001f18:	819a      	strh	r2, [r3, #12]
				ReadProgramFromFlash2(); //
 8001f1a:	f7ff f959 	bl	80011d0 <ReadProgramFromFlash2>
				//SaveProgramToFlash2();
			}
			break;
 8001f1e:	e15f      	b.n	80021e0 <vKey_Action+0x894>
		}

		case press_long_Program_R:
		{
			xQueueSendToBack( qBeepMode, &beep_mode_send, 0 ); // Звук нажатия
 8001f20:	4ba7      	ldr	r3, [pc, #668]	; (80021c0 <vKey_Action+0x874>)
 8001f22:	6818      	ldr	r0, [r3, #0]
 8001f24:	f107 010e 	add.w	r1, r7, #14
 8001f28:	2300      	movs	r3, #0
 8001f2a:	2200      	movs	r2, #0
 8001f2c:	f005 f892 	bl	8007054 <xQueueGenericSend>
			if (WelderUnit.Program < PROGRAM_MAX- 20 ) // Проверка на попадание в допустимый диапазон значений
 8001f30:	4ba4      	ldr	r3, [pc, #656]	; (80021c4 <vKey_Action+0x878>)
 8001f32:	899b      	ldrh	r3, [r3, #12]
 8001f34:	2b31      	cmp	r3, #49	; 0x31
 8001f36:	f200 8156 	bhi.w	80021e6 <vKey_Action+0x89a>
			{
				WelderUnit.Program += 20; // Дейсвия при длинном нажатии
 8001f3a:	4ba2      	ldr	r3, [pc, #648]	; (80021c4 <vKey_Action+0x878>)
 8001f3c:	899b      	ldrh	r3, [r3, #12]
 8001f3e:	3314      	adds	r3, #20
 8001f40:	b29a      	uxth	r2, r3
 8001f42:	4ba0      	ldr	r3, [pc, #640]	; (80021c4 <vKey_Action+0x878>)
 8001f44:	819a      	strh	r2, [r3, #12]
			}
			break;
 8001f46:	e14e      	b.n	80021e6 <vKey_Action+0x89a>
		}


		case press_short_Down:
				{
					xQueueSendToBack( qBeepMode, &beep_mode_send, 0 ); // Звук нажатия
 8001f48:	4b9d      	ldr	r3, [pc, #628]	; (80021c0 <vKey_Action+0x874>)
 8001f4a:	6818      	ldr	r0, [r3, #0]
 8001f4c:	f107 010e 	add.w	r1, r7, #14
 8001f50:	2300      	movs	r3, #0
 8001f52:	2200      	movs	r2, #0
 8001f54:	f005 f87e 	bl	8007054 <xQueueGenericSend>
					if (WelderUnit.State & WELDER_STATE_BACK_DOOR_CLOSE) // Если задняя дверца закрыта, то разрешить опускание головки
 8001f58:	4b9a      	ldr	r3, [pc, #616]	; (80021c4 <vKey_Action+0x878>)
 8001f5a:	7c1b      	ldrb	r3, [r3, #16]
 8001f5c:	f003 0310 	and.w	r3, r3, #16
 8001f60:	2b00      	cmp	r3, #0
 8001f62:	f000 8143 	beq.w	80021ec <vKey_Action+0x8a0>
					{
						WELDER_HEAD_DOWN // Опустить сварочную головку
 8001f66:	2200      	movs	r2, #0
 8001f68:	2106      	movs	r1, #6
 8001f6a:	4897      	ldr	r0, [pc, #604]	; (80021c8 <vKey_Action+0x87c>)
 8001f6c:	f002 fb61 	bl	8004632 <HAL_GPIO_WritePin>
						WelderUnit.IndicatorPanel.LEDsState |= LED_DOWN; // Индикация что головка опущена
 8001f70:	4b94      	ldr	r3, [pc, #592]	; (80021c4 <vKey_Action+0x878>)
 8001f72:	f893 3021 	ldrb.w	r3, [r3, #33]	; 0x21
 8001f76:	f043 0304 	orr.w	r3, r3, #4
 8001f7a:	b2da      	uxtb	r2, r3
 8001f7c:	4b91      	ldr	r3, [pc, #580]	; (80021c4 <vKey_Action+0x878>)
 8001f7e:	f883 2021 	strb.w	r2, [r3, #33]	; 0x21
						WelderUnit.IndicatorPanel.LEDsState &= ~LED_UP; // Индикация что головка опущена
 8001f82:	4b90      	ldr	r3, [pc, #576]	; (80021c4 <vKey_Action+0x878>)
 8001f84:	f893 3021 	ldrb.w	r3, [r3, #33]	; 0x21
 8001f88:	f023 0308 	bic.w	r3, r3, #8
 8001f8c:	b2da      	uxtb	r2, r3
 8001f8e:	4b8d      	ldr	r3, [pc, #564]	; (80021c4 <vKey_Action+0x878>)
 8001f90:	f883 2021 	strb.w	r2, [r3, #33]	; 0x21
					}

					break;
 8001f94:	e12a      	b.n	80021ec <vKey_Action+0x8a0>
				}

				case press_long_Down:
				{
					xQueueSendToBack( qBeepMode, &beep_mode_send, 0 ); // Звук нажатия
 8001f96:	4b8a      	ldr	r3, [pc, #552]	; (80021c0 <vKey_Action+0x874>)
 8001f98:	6818      	ldr	r0, [r3, #0]
 8001f9a:	f107 010e 	add.w	r1, r7, #14
 8001f9e:	2300      	movs	r3, #0
 8001fa0:	2200      	movs	r2, #0
 8001fa2:	f005 f857 	bl	8007054 <xQueueGenericSend>
//					if (WelderUnit.Speed > SPEED_MIN + 20) // Проверка на попадание в допустимый диапазон значений
//					{
//						WelderUnit.Speed -= 20; // Дейсвия при длинном нажатии
//					}
					break;
 8001fa6:	e128      	b.n	80021fa <vKey_Action+0x8ae>
				}

				case press_short_Up:
				{
					xQueueSendToBack( qBeepMode, &beep_mode_send, 0 ); // Звук нажатия
 8001fa8:	4b85      	ldr	r3, [pc, #532]	; (80021c0 <vKey_Action+0x874>)
 8001faa:	6818      	ldr	r0, [r3, #0]
 8001fac:	f107 010e 	add.w	r1, r7, #14
 8001fb0:	2300      	movs	r3, #0
 8001fb2:	2200      	movs	r2, #0
 8001fb4:	f005 f84e 	bl	8007054 <xQueueGenericSend>
					WELDER_HEAD_UP // Поднять сварочную головку
 8001fb8:	2201      	movs	r2, #1
 8001fba:	2106      	movs	r1, #6
 8001fbc:	4882      	ldr	r0, [pc, #520]	; (80021c8 <vKey_Action+0x87c>)
 8001fbe:	f002 fb38 	bl	8004632 <HAL_GPIO_WritePin>
					WelderUnit.IndicatorPanel.LEDsState |= LED_UP; // Индикация что головка поднята
 8001fc2:	4b80      	ldr	r3, [pc, #512]	; (80021c4 <vKey_Action+0x878>)
 8001fc4:	f893 3021 	ldrb.w	r3, [r3, #33]	; 0x21
 8001fc8:	f043 0308 	orr.w	r3, r3, #8
 8001fcc:	b2da      	uxtb	r2, r3
 8001fce:	4b7d      	ldr	r3, [pc, #500]	; (80021c4 <vKey_Action+0x878>)
 8001fd0:	f883 2021 	strb.w	r2, [r3, #33]	; 0x21
					WelderUnit.IndicatorPanel.LEDsState &= ~LED_DOWN; // Индикация что головка поднята
 8001fd4:	4b7b      	ldr	r3, [pc, #492]	; (80021c4 <vKey_Action+0x878>)
 8001fd6:	f893 3021 	ldrb.w	r3, [r3, #33]	; 0x21
 8001fda:	f023 0304 	bic.w	r3, r3, #4
 8001fde:	b2da      	uxtb	r2, r3
 8001fe0:	4b78      	ldr	r3, [pc, #480]	; (80021c4 <vKey_Action+0x878>)
 8001fe2:	f883 2021 	strb.w	r2, [r3, #33]	; 0x21
					break;
 8001fe6:	e108      	b.n	80021fa <vKey_Action+0x8ae>
				}

				case press_long_Up:
				{
					xQueueSendToBack( qBeepMode, &beep_mode_send, 0 ); // Звук нажатия
 8001fe8:	4b75      	ldr	r3, [pc, #468]	; (80021c0 <vKey_Action+0x874>)
 8001fea:	6818      	ldr	r0, [r3, #0]
 8001fec:	f107 010e 	add.w	r1, r7, #14
 8001ff0:	2300      	movs	r3, #0
 8001ff2:	2200      	movs	r2, #0
 8001ff4:	f005 f82e 	bl	8007054 <xQueueGenericSend>
					if (WelderUnit.Speed < SPEED_MAX- 20 ) // Проверка на попадание в допустимый диапазон значений
 8001ff8:	4b72      	ldr	r3, [pc, #456]	; (80021c4 <vKey_Action+0x878>)
 8001ffa:	88db      	ldrh	r3, [r3, #6]
 8001ffc:	f240 32d2 	movw	r2, #978	; 0x3d2
 8002000:	4293      	cmp	r3, r2
 8002002:	f200 80f6 	bhi.w	80021f2 <vKey_Action+0x8a6>
					{
						WelderUnit.Speed += 20; // Дейсвия при длинном нажатии
 8002006:	4b6f      	ldr	r3, [pc, #444]	; (80021c4 <vKey_Action+0x878>)
 8002008:	88db      	ldrh	r3, [r3, #6]
 800200a:	3314      	adds	r3, #20
 800200c:	b29a      	uxth	r2, r3
 800200e:	4b6d      	ldr	r3, [pc, #436]	; (80021c4 <vKey_Action+0x878>)
 8002010:	80da      	strh	r2, [r3, #6]
					}
					break;
 8002012:	e0ee      	b.n	80021f2 <vKey_Action+0x8a6>



		case press_short_Parking:
		{
			xQueueSendToBack( qBeepMode, &beep_mode_send, 0 ); // Звук нажатия
 8002014:	4b6a      	ldr	r3, [pc, #424]	; (80021c0 <vKey_Action+0x874>)
 8002016:	6818      	ldr	r0, [r3, #0]
 8002018:	f107 010e 	add.w	r1, r7, #14
 800201c:	2300      	movs	r3, #0
 800201e:	2200      	movs	r2, #0
 8002020:	f005 f818 	bl	8007054 <xQueueGenericSend>

			WelderUnit.Mode = WELDER_MODE_CALIBRATION; //Задать режим работы аппарата - калибровка
 8002024:	4b67      	ldr	r3, [pc, #412]	; (80021c4 <vKey_Action+0x878>)
 8002026:	2201      	movs	r2, #1
 8002028:	f883 2023 	strb.w	r2, [r3, #35]	; 0x23

			//WelderUnit.IndicatorPanel.LEDsState &= ~LED_AUTO; // Отключении индикации режима АВТО
			WelderUnit.IndicatorPanel.LEDsState |= LED_PARKING; // Отображение что выбран режим калибровки
 800202c:	4b65      	ldr	r3, [pc, #404]	; (80021c4 <vKey_Action+0x878>)
 800202e:	f893 3021 	ldrb.w	r3, [r3, #33]	; 0x21
 8002032:	f043 0302 	orr.w	r3, r3, #2
 8002036:	b2da      	uxtb	r2, r3
 8002038:	4b62      	ldr	r3, [pc, #392]	; (80021c4 <vKey_Action+0x878>)
 800203a:	f883 2021 	strb.w	r2, [r3, #33]	; 0x21



			break;
 800203e:	e0dc      	b.n	80021fa <vKey_Action+0x8ae>
		}

		case press_long_Parking:
		{
			xQueueSendToBack( qBeepMode, &beep_mode_send, 0 ); // Звук нажатия
 8002040:	4b5f      	ldr	r3, [pc, #380]	; (80021c0 <vKey_Action+0x874>)
 8002042:	6818      	ldr	r0, [r3, #0]
 8002044:	f107 010e 	add.w	r1, r7, #14
 8002048:	2300      	movs	r3, #0
 800204a:	2200      	movs	r2, #0
 800204c:	f005 f802 	bl	8007054 <xQueueGenericSend>
			WelderUnit.Xf -= 20; // Дейсвия при длинном нажатии
 8002050:	4b5c      	ldr	r3, [pc, #368]	; (80021c4 <vKey_Action+0x878>)
 8002052:	885b      	ldrh	r3, [r3, #2]
 8002054:	3b14      	subs	r3, #20
 8002056:	b29a      	uxth	r2, r3
 8002058:	4b5a      	ldr	r3, [pc, #360]	; (80021c4 <vKey_Action+0x878>)
 800205a:	805a      	strh	r2, [r3, #2]

			break;
 800205c:	e0cd      	b.n	80021fa <vKey_Action+0x8ae>
		}

		case press_short_Auto:
		{
			xQueueSendToBack( qBeepMode, &beep_mode_send, 0 );
 800205e:	4b58      	ldr	r3, [pc, #352]	; (80021c0 <vKey_Action+0x874>)
 8002060:	6818      	ldr	r0, [r3, #0]
 8002062:	f107 010e 	add.w	r1, r7, #14
 8002066:	2300      	movs	r3, #0
 8002068:	2200      	movs	r2, #0
 800206a:	f004 fff3 	bl	8007054 <xQueueGenericSend>


			if (WelderUnit.State & WELDER_STATE_CALIBRATED) // Если аппарат откалиброван, то разрешить включение режима АВТО
 800206e:	4b55      	ldr	r3, [pc, #340]	; (80021c4 <vKey_Action+0x878>)
 8002070:	7c1b      	ldrb	r3, [r3, #16]
 8002072:	f003 0302 	and.w	r3, r3, #2
 8002076:	2b00      	cmp	r3, #0
 8002078:	f000 80be 	beq.w	80021f8 <vKey_Action+0x8ac>
			{
				if (WelderUnit.Mode != WELDER_MODE_AUTO) // Если уже не выбран режим АВТО, то включить его, иначе включить Ручной режим
 800207c:	4b51      	ldr	r3, [pc, #324]	; (80021c4 <vKey_Action+0x878>)
 800207e:	f893 3023 	ldrb.w	r3, [r3, #35]	; 0x23
 8002082:	2b03      	cmp	r3, #3
 8002084:	d00d      	beq.n	80020a2 <vKey_Action+0x756>
				{
					WelderUnit.Mode = WELDER_MODE_AUTO;
 8002086:	4b4f      	ldr	r3, [pc, #316]	; (80021c4 <vKey_Action+0x878>)
 8002088:	2203      	movs	r2, #3
 800208a:	f883 2023 	strb.w	r2, [r3, #35]	; 0x23
					WelderUnit.IndicatorPanel.LEDsState |= LED_AUTO; // Отображение что выбран режим калибровки
 800208e:	4b4d      	ldr	r3, [pc, #308]	; (80021c4 <vKey_Action+0x878>)
 8002090:	f893 3021 	ldrb.w	r3, [r3, #33]	; 0x21
 8002094:	f043 0301 	orr.w	r3, r3, #1
 8002098:	b2da      	uxtb	r2, r3
 800209a:	4b4a      	ldr	r3, [pc, #296]	; (80021c4 <vKey_Action+0x878>)
 800209c:	f883 2021 	strb.w	r2, [r3, #33]	; 0x21
					WelderUnit.IndicatorPanel.LEDsState &= ~LED_AUTO; // Отображение что выбран режим калибровки
				}

			}

			break;
 80020a0:	e0aa      	b.n	80021f8 <vKey_Action+0x8ac>
					WelderUnit.Mode = WELDER_MODE_MANUAL;
 80020a2:	4b48      	ldr	r3, [pc, #288]	; (80021c4 <vKey_Action+0x878>)
 80020a4:	2202      	movs	r2, #2
 80020a6:	f883 2023 	strb.w	r2, [r3, #35]	; 0x23
					WelderUnit.IndicatorPanel.LEDsState &= ~LED_AUTO; // Отображение что выбран режим калибровки
 80020aa:	4b46      	ldr	r3, [pc, #280]	; (80021c4 <vKey_Action+0x878>)
 80020ac:	f893 3021 	ldrb.w	r3, [r3, #33]	; 0x21
 80020b0:	f023 0301 	bic.w	r3, r3, #1
 80020b4:	b2da      	uxtb	r2, r3
 80020b6:	4b43      	ldr	r3, [pc, #268]	; (80021c4 <vKey_Action+0x878>)
 80020b8:	f883 2021 	strb.w	r2, [r3, #33]	; 0x21
			break;
 80020bc:	e09c      	b.n	80021f8 <vKey_Action+0x8ac>
		}

		case press_long_Auto:
		{
			xQueueSendToBack( qBeepMode, &beep_mode_send, 0 ); // Звук нажатия
 80020be:	4b40      	ldr	r3, [pc, #256]	; (80021c0 <vKey_Action+0x874>)
 80020c0:	6818      	ldr	r0, [r3, #0]
 80020c2:	f107 010e 	add.w	r1, r7, #14
 80020c6:	2300      	movs	r3, #0
 80020c8:	2200      	movs	r2, #0
 80020ca:	f004 ffc3 	bl	8007054 <xQueueGenericSend>
			WelderUnit.Xf += 20; // Дейсвия при длинном нажатии
 80020ce:	4b3d      	ldr	r3, [pc, #244]	; (80021c4 <vKey_Action+0x878>)
 80020d0:	885b      	ldrh	r3, [r3, #2]
 80020d2:	3314      	adds	r3, #20
 80020d4:	b29a      	uxth	r2, r3
 80020d6:	4b3b      	ldr	r3, [pc, #236]	; (80021c4 <vKey_Action+0x878>)
 80020d8:	805a      	strh	r2, [r3, #2]
			break;
 80020da:	e08e      	b.n	80021fa <vKey_Action+0x8ae>
		}

		case press_short_StartStop:
		{
			xQueueSendToBack( qBeepMode, &beep_mode_send, 0 ); // Звук нажатия
 80020dc:	4b38      	ldr	r3, [pc, #224]	; (80021c0 <vKey_Action+0x874>)
 80020de:	6818      	ldr	r0, [r3, #0]
 80020e0:	f107 010e 	add.w	r1, r7, #14
 80020e4:	2300      	movs	r3, #0
 80020e6:	2200      	movs	r2, #0
 80020e8:	f004 ffb4 	bl	8007054 <xQueueGenericSend>

			// Дейсвия при нажатии на кнопку СТАРТ/СТОП в зависимости от установленного режима работы аппарата
			switch(WelderUnit.Mode)
 80020ec:	4b35      	ldr	r3, [pc, #212]	; (80021c4 <vKey_Action+0x878>)
 80020ee:	f893 3023 	ldrb.w	r3, [r3, #35]	; 0x23
 80020f2:	2b01      	cmp	r3, #1
 80020f4:	d002      	beq.n	80020fc <vKey_Action+0x7b0>
 80020f6:	2b03      	cmp	r3, #3
 80020f8:	d009      	beq.n	800210e <vKey_Action+0x7c2>


//			Carriage_cmd = Cmd_CarriageGoTo;
//			xQueueSendToBack( qWelderCmd, &Carriage_cmd, 0 ); // Идити к

			break;
 80020fa:	e07e      	b.n	80021fa <vKey_Action+0x8ae>
				xQueueSendToBack( qWelderCalibrated, &Cal, 0 ); // Начать калибровку
 80020fc:	4b33      	ldr	r3, [pc, #204]	; (80021cc <vKey_Action+0x880>)
 80020fe:	6818      	ldr	r0, [r3, #0]
 8002100:	f107 010d 	add.w	r1, r7, #13
 8002104:	2300      	movs	r3, #0
 8002106:	2200      	movs	r2, #0
 8002108:	f004 ffa4 	bl	8007054 <xQueueGenericSend>
				break;
 800210c:	e00a      	b.n	8002124 <vKey_Action+0x7d8>
				Run = Welder_Run;
 800210e:	2303      	movs	r3, #3
 8002110:	733b      	strb	r3, [r7, #12]
				xQueueSendToBack(qWelderRun, &Run, 0 );
 8002112:	4b2f      	ldr	r3, [pc, #188]	; (80021d0 <vKey_Action+0x884>)
 8002114:	6818      	ldr	r0, [r3, #0]
 8002116:	f107 010c 	add.w	r1, r7, #12
 800211a:	2300      	movs	r3, #0
 800211c:	2200      	movs	r2, #0
 800211e:	f004 ff99 	bl	8007054 <xQueueGenericSend>
				break;
 8002122:	bf00      	nop
			break;
 8002124:	e069      	b.n	80021fa <vKey_Action+0x8ae>
		}

		case press_long_StartStop:
		{
			WelderUnit.Xf += 20; // Дейсвия при длинном нажатии
 8002126:	4b27      	ldr	r3, [pc, #156]	; (80021c4 <vKey_Action+0x878>)
 8002128:	885b      	ldrh	r3, [r3, #2]
 800212a:	3314      	adds	r3, #20
 800212c:	b29a      	uxth	r2, r3
 800212e:	4b25      	ldr	r3, [pc, #148]	; (80021c4 <vKey_Action+0x878>)
 8002130:	805a      	strh	r2, [r3, #2]
//			Key.StartStop_ShortPress = CNT_KEY_SHORT + 2; // Для запрета работы коротких нажатий
//			Key.StartStop_LongPress = CNT_LONG_PRESS; // Сброс счета для определения длинного нажатия. Не 0 что бы дейсвия выполнялось быстрее
			break;
 8002132:	e062      	b.n	80021fa <vKey_Action+0x8ae>

		// *********************************************************Комбинации клавишь*********************************************************

		case press_short_Program_L_and_R:
		{
			beep_mode_send = beep_long;
 8002134:	2305      	movs	r3, #5
 8002136:	73bb      	strb	r3, [r7, #14]
			xQueueSendToBack( qBeepMode, &beep_mode_send , 0 ); // Звук нажат
 8002138:	4b21      	ldr	r3, [pc, #132]	; (80021c0 <vKey_Action+0x874>)
 800213a:	6818      	ldr	r0, [r3, #0]
 800213c:	f107 010e 	add.w	r1, r7, #14
 8002140:	2300      	movs	r3, #0
 8002142:	2200      	movs	r2, #0
 8002144:	f004 ff86 	bl	8007054 <xQueueGenericSend>
			SaveProgramToFlash2();
 8002148:	f7fe ffbe 	bl	80010c8 <SaveProgramToFlash2>
			break;
 800214c:	e055      	b.n	80021fa <vKey_Action+0x8ae>
			break;
 800214e:	bf00      	nop
 8002150:	e406      	b.n	8001960 <vKey_Action+0x14>
			break;
 8002152:	bf00      	nop
 8002154:	e404      	b.n	8001960 <vKey_Action+0x14>
			break;
 8002156:	bf00      	nop
 8002158:	e402      	b.n	8001960 <vKey_Action+0x14>
			break;
 800215a:	bf00      	nop
 800215c:	e400      	b.n	8001960 <vKey_Action+0x14>
			break;
 800215e:	bf00      	nop
 8002160:	f7ff bbfe 	b.w	8001960 <vKey_Action+0x14>
			break;
 8002164:	bf00      	nop
 8002166:	f7ff bbfb 	b.w	8001960 <vKey_Action+0x14>
			break;
 800216a:	bf00      	nop
 800216c:	f7ff bbf8 	b.w	8001960 <vKey_Action+0x14>
			break;
 8002170:	bf00      	nop
 8002172:	f7ff bbf5 	b.w	8001960 <vKey_Action+0x14>
			break;
 8002176:	bf00      	nop
 8002178:	f7ff bbf2 	b.w	8001960 <vKey_Action+0x14>
			break;
 800217c:	bf00      	nop
 800217e:	f7ff bbef 	b.w	8001960 <vKey_Action+0x14>
			break;
 8002182:	bf00      	nop
 8002184:	f7ff bbec 	b.w	8001960 <vKey_Action+0x14>
			break;
 8002188:	bf00      	nop
 800218a:	f7ff bbe9 	b.w	8001960 <vKey_Action+0x14>
			break;
 800218e:	bf00      	nop
 8002190:	f7ff bbe6 	b.w	8001960 <vKey_Action+0x14>
			break;
 8002194:	bf00      	nop
 8002196:	f7ff bbe3 	b.w	8001960 <vKey_Action+0x14>
			break;
 800219a:	bf00      	nop
 800219c:	f7ff bbe0 	b.w	8001960 <vKey_Action+0x14>
			break;
 80021a0:	bf00      	nop
 80021a2:	f7ff bbdd 	b.w	8001960 <vKey_Action+0x14>
			break;
 80021a6:	bf00      	nop
 80021a8:	f7ff bbda 	b.w	8001960 <vKey_Action+0x14>
			break;
 80021ac:	bf00      	nop
 80021ae:	f7ff bbd7 	b.w	8001960 <vKey_Action+0x14>
			break;
 80021b2:	bf00      	nop
 80021b4:	f7ff bbd4 	b.w	8001960 <vKey_Action+0x14>
			break;
 80021b8:	bf00      	nop
 80021ba:	f7ff bbd1 	b.w	8001960 <vKey_Action+0x14>
 80021be:	bf00      	nop
 80021c0:	20004538 	.word	0x20004538
 80021c4:	2000453c 	.word	0x2000453c
 80021c8:	40011000 	.word	0x40011000
 80021cc:	20004d8c 	.word	0x20004d8c
 80021d0:	20004d88 	.word	0x20004d88
			break;
 80021d4:	bf00      	nop
 80021d6:	f7ff bbc3 	b.w	8001960 <vKey_Action+0x14>
			break;
 80021da:	bf00      	nop
 80021dc:	f7ff bbc0 	b.w	8001960 <vKey_Action+0x14>
			break;
 80021e0:	bf00      	nop
 80021e2:	f7ff bbbd 	b.w	8001960 <vKey_Action+0x14>
			break;
 80021e6:	bf00      	nop
 80021e8:	f7ff bbba 	b.w	8001960 <vKey_Action+0x14>
					break;
 80021ec:	bf00      	nop
 80021ee:	f7ff bbb7 	b.w	8001960 <vKey_Action+0x14>
					break;
 80021f2:	bf00      	nop
 80021f4:	f7ff bbb4 	b.w	8001960 <vKey_Action+0x14>
			break;
 80021f8:	bf00      	nop
		xQueueReceive(qKeyPress, &KeyPressed, portMAX_DELAY ); // Ждать нажатия кнопки
 80021fa:	f7ff bbb1 	b.w	8001960 <vKey_Action+0x14>
 80021fe:	bf00      	nop

08002200 <vWelder_Run>:
	vTaskDelete(NULL);

}

void vWelder_Run(void *pvParameters)
{
 8002200:	b580      	push	{r7, lr}
 8002202:	b084      	sub	sp, #16
 8002204:	af00      	add	r7, sp, #0
 8002206:	6078      	str	r0, [r7, #4]

	uint8_t beep;

	for(;;)
	{
		xQueueReceive(qWelderRun, &lReceivedValue, portMAX_DELAY ); // Ждать ответа от задачи CarriageGoTo о том что нужная позиция картеки ханята
 8002208:	4b70      	ldr	r3, [pc, #448]	; (80023cc <vWelder_Run+0x1cc>)
 800220a:	681b      	ldr	r3, [r3, #0]
 800220c:	f107 010e 	add.w	r1, r7, #14
 8002210:	f04f 32ff 	mov.w	r2, #4294967295
 8002214:	4618      	mov	r0, r3
 8002216:	f005 f875 	bl	8007304 <xQueueReceive>

		if (lReceivedValue == Welder_Run && ((WelderUnit.State & 0x02) == 0x02) && (WelderUnit.State & WELDER_STATE_BACK_DOOR_CLOSE) ) // Если пришла команда на начло варки и каретка откалибрована и задняя дверца закрыта
 800221a:	7bbb      	ldrb	r3, [r7, #14]
 800221c:	2b03      	cmp	r3, #3
 800221e:	d1f3      	bne.n	8002208 <vWelder_Run+0x8>
 8002220:	4b6b      	ldr	r3, [pc, #428]	; (80023d0 <vWelder_Run+0x1d0>)
 8002222:	7c1b      	ldrb	r3, [r3, #16]
 8002224:	f003 0302 	and.w	r3, r3, #2
 8002228:	2b00      	cmp	r3, #0
 800222a:	d0ed      	beq.n	8002208 <vWelder_Run+0x8>
 800222c:	4b68      	ldr	r3, [pc, #416]	; (80023d0 <vWelder_Run+0x1d0>)
 800222e:	7c1b      	ldrb	r3, [r3, #16]
 8002230:	f003 0310 	and.w	r3, r3, #16
 8002234:	2b00      	cmp	r3, #0
 8002236:	d0e7      	beq.n	8002208 <vWelder_Run+0x8>
		{
			beep = beep_long;
 8002238:	2305      	movs	r3, #5
 800223a:	737b      	strb	r3, [r7, #13]
			xQueueSendToBack( qBeepMode, &beep, 0 ); // Звук нажатия
 800223c:	4b65      	ldr	r3, [pc, #404]	; (80023d4 <vWelder_Run+0x1d4>)
 800223e:	6818      	ldr	r0, [r3, #0]
 8002240:	f107 010d 	add.w	r1, r7, #13
 8002244:	2300      	movs	r3, #0
 8002246:	2200      	movs	r2, #0
 8002248:	f004 ff04 	bl	8007054 <xQueueGenericSend>

		if (WelderUnit.Position != WelderUnit.Xs) // Если текущая позиция каретки не равна стартовой позиции, то занять её
 800224c:	4b60      	ldr	r3, [pc, #384]	; (80023d0 <vWelder_Run+0x1d0>)
 800224e:	889a      	ldrh	r2, [r3, #4]
 8002250:	4b5f      	ldr	r3, [pc, #380]	; (80023d0 <vWelder_Run+0x1d0>)
 8002252:	881b      	ldrh	r3, [r3, #0]
 8002254:	429a      	cmp	r2, r3
 8002256:	d016      	beq.n	8002286 <vWelder_Run+0x86>
		{
			Carriage_cmd = Cmd_CarriageGoTo;
 8002258:	2301      	movs	r3, #1
 800225a:	73fb      	strb	r3, [r7, #15]
			WelderUnit.GoTo = WelderUnit.Xs;
 800225c:	4b5c      	ldr	r3, [pc, #368]	; (80023d0 <vWelder_Run+0x1d0>)
 800225e:	881a      	ldrh	r2, [r3, #0]
 8002260:	4b5b      	ldr	r3, [pc, #364]	; (80023d0 <vWelder_Run+0x1d0>)
 8002262:	811a      	strh	r2, [r3, #8]
			xQueueSendToBack( qWelderCmd, &Carriage_cmd, 0 ); // Идти к
 8002264:	4b5c      	ldr	r3, [pc, #368]	; (80023d8 <vWelder_Run+0x1d8>)
 8002266:	6818      	ldr	r0, [r3, #0]
 8002268:	f107 010f 	add.w	r1, r7, #15
 800226c:	2300      	movs	r3, #0
 800226e:	2200      	movs	r2, #0
 8002270:	f004 fef0 	bl	8007054 <xQueueGenericSend>

//			xQueueReceive(qGoToResponse, &lReceivedValue, 0 ); // Без этого не работает. В очереди откуда то берутся данные
			xQueueReceive(qGoToResponse, &lReceivedValue, portMAX_DELAY ); // Ждать ответа от задачи CarriageGoTo о том что нужная позиция картеки ханята
 8002274:	4b59      	ldr	r3, [pc, #356]	; (80023dc <vWelder_Run+0x1dc>)
 8002276:	681b      	ldr	r3, [r3, #0]
 8002278:	f107 010e 	add.w	r1, r7, #14
 800227c:	f04f 32ff 	mov.w	r2, #4294967295
 8002280:	4618      	mov	r0, r3
 8002282:	f005 f83f 	bl	8007304 <xQueueReceive>
		}

		if (/*(lReceivedValue == Carriage_Done) ||*/ (WelderUnit.Position == WelderUnit.Xs)) // Если каретка на заданной позиции
 8002286:	4b52      	ldr	r3, [pc, #328]	; (80023d0 <vWelder_Run+0x1d0>)
 8002288:	889a      	ldrh	r2, [r3, #4]
 800228a:	4b51      	ldr	r3, [pc, #324]	; (80023d0 <vWelder_Run+0x1d0>)
 800228c:	881b      	ldrh	r3, [r3, #0]
 800228e:	429a      	cmp	r2, r3
 8002290:	d1ba      	bne.n	8002208 <vWelder_Run+0x8>
		{


		WELDER_HEAD_DOWN // Опустить головку
 8002292:	2200      	movs	r2, #0
 8002294:	2106      	movs	r1, #6
 8002296:	4852      	ldr	r0, [pc, #328]	; (80023e0 <vWelder_Run+0x1e0>)
 8002298:	f002 f9cb 	bl	8004632 <HAL_GPIO_WritePin>
		WelderUnit.IndicatorPanel.LEDsState |= LED_DOWN; // Индикация опущенной сварочной головки
 800229c:	4b4c      	ldr	r3, [pc, #304]	; (80023d0 <vWelder_Run+0x1d0>)
 800229e:	f893 3021 	ldrb.w	r3, [r3, #33]	; 0x21
 80022a2:	f043 0304 	orr.w	r3, r3, #4
 80022a6:	b2da      	uxtb	r2, r3
 80022a8:	4b49      	ldr	r3, [pc, #292]	; (80023d0 <vWelder_Run+0x1d0>)
 80022aa:	f883 2021 	strb.w	r2, [r3, #33]	; 0x21
		WelderUnit.IndicatorPanel.LEDsState &= ~LED_UP;
 80022ae:	4b48      	ldr	r3, [pc, #288]	; (80023d0 <vWelder_Run+0x1d0>)
 80022b0:	f893 3021 	ldrb.w	r3, [r3, #33]	; 0x21
 80022b4:	f023 0308 	bic.w	r3, r3, #8
 80022b8:	b2da      	uxtb	r2, r3
 80022ba:	4b45      	ldr	r3, [pc, #276]	; (80023d0 <vWelder_Run+0x1d0>)
 80022bc:	f883 2021 	strb.w	r2, [r3, #33]	; 0x21
		vTaskDelay(100 / portTICK_RATE_MS); // Ожидание опускания головки
 80022c0:	2064      	movs	r0, #100	; 0x64
 80022c2:	f005 fd0d 	bl	8007ce0 <vTaskDelay>
		SYNC_ARC_ON // Подача дуги
 80022c6:	2201      	movs	r2, #1
 80022c8:	f44f 7180 	mov.w	r1, #256	; 0x100
 80022cc:	4845      	ldr	r0, [pc, #276]	; (80023e4 <vWelder_Run+0x1e4>)
 80022ce:	f002 f9b0 	bl	8004632 <HAL_GPIO_WritePin>

		vTaskDelay(WelderUnit.Delay_s * 100 / portTICK_RATE_MS); // Выдержка времени для заполнения точки начала сварки аргоном.
 80022d2:	4b3f      	ldr	r3, [pc, #252]	; (80023d0 <vWelder_Run+0x1d0>)
 80022d4:	7a9b      	ldrb	r3, [r3, #10]
 80022d6:	461a      	mov	r2, r3
 80022d8:	2364      	movs	r3, #100	; 0x64
 80022da:	fb03 f302 	mul.w	r3, r3, r2
 80022de:	4618      	mov	r0, r3
 80022e0:	f005 fcfe 	bl	8007ce0 <vTaskDelay>

		WelderUnit.GoTo = WelderUnit.Xf; // Указание точки осановки головки
 80022e4:	4b3a      	ldr	r3, [pc, #232]	; (80023d0 <vWelder_Run+0x1d0>)
 80022e6:	885a      	ldrh	r2, [r3, #2]
 80022e8:	4b39      	ldr	r3, [pc, #228]	; (80023d0 <vWelder_Run+0x1d0>)
 80022ea:	811a      	strh	r2, [r3, #8]
		Carriage_cmd = Cmd_CarriageGoTo; // Команда на начала движение каретки
 80022ec:	2301      	movs	r3, #1
 80022ee:	73fb      	strb	r3, [r7, #15]
		xQueueSendToBack( qWelderCmd, &Carriage_cmd, 0 ); // Идти к
 80022f0:	4b39      	ldr	r3, [pc, #228]	; (80023d8 <vWelder_Run+0x1d8>)
 80022f2:	6818      	ldr	r0, [r3, #0]
 80022f4:	f107 010f 	add.w	r1, r7, #15
 80022f8:	2300      	movs	r3, #0
 80022fa:	2200      	movs	r2, #0
 80022fc:	f004 feaa 	bl	8007054 <xQueueGenericSend>


		xQueueReceive(qGoToResponse, &lReceivedValue, 0 ); // Без этого не работает. В очереди откуда то берутся данные
 8002300:	4b36      	ldr	r3, [pc, #216]	; (80023dc <vWelder_Run+0x1dc>)
 8002302:	681b      	ldr	r3, [r3, #0]
 8002304:	f107 010e 	add.w	r1, r7, #14
 8002308:	2200      	movs	r2, #0
 800230a:	4618      	mov	r0, r3
 800230c:	f004 fffa 	bl	8007304 <xQueueReceive>
		xQueueReceive(qGoToResponse, &lReceivedValue, portMAX_DELAY ); // Ждать ответа от задачи CarriageGoTo о том что нужная позиция картеки ханята
 8002310:	4b32      	ldr	r3, [pc, #200]	; (80023dc <vWelder_Run+0x1dc>)
 8002312:	681b      	ldr	r3, [r3, #0]
 8002314:	f107 010e 	add.w	r1, r7, #14
 8002318:	f04f 32ff 	mov.w	r2, #4294967295
 800231c:	4618      	mov	r0, r3
 800231e:	f004 fff1 	bl	8007304 <xQueueReceive>

		SYNC_ARC_OFF // Прекращение подачи дуги
 8002322:	2200      	movs	r2, #0
 8002324:	f44f 7180 	mov.w	r1, #256	; 0x100
 8002328:	482e      	ldr	r0, [pc, #184]	; (80023e4 <vWelder_Run+0x1e4>)
 800232a:	f002 f982 	bl	8004632 <HAL_GPIO_WritePin>

		vTaskDelay(WelderUnit.Delay_f * 100 / portTICK_RATE_MS); // Выдержка времени для заполнения точки останова сварки аргоном.
 800232e:	4b28      	ldr	r3, [pc, #160]	; (80023d0 <vWelder_Run+0x1d0>)
 8002330:	7adb      	ldrb	r3, [r3, #11]
 8002332:	461a      	mov	r2, r3
 8002334:	2364      	movs	r3, #100	; 0x64
 8002336:	fb03 f302 	mul.w	r3, r3, r2
 800233a:	4618      	mov	r0, r3
 800233c:	f005 fcd0 	bl	8007ce0 <vTaskDelay>

		beep = beep_3short;
 8002340:	2304      	movs	r3, #4
 8002342:	737b      	strb	r3, [r7, #13]
		xQueueSendToBack( qBeepMode, &beep, 0 ); // Звук окончания варки
 8002344:	4b23      	ldr	r3, [pc, #140]	; (80023d4 <vWelder_Run+0x1d4>)
 8002346:	6818      	ldr	r0, [r3, #0]
 8002348:	f107 010d 	add.w	r1, r7, #13
 800234c:	2300      	movs	r3, #0
 800234e:	2200      	movs	r2, #0
 8002350:	f004 fe80 	bl	8007054 <xQueueGenericSend>

		WELDER_HEAD_UP // Поднять головку
 8002354:	2201      	movs	r2, #1
 8002356:	2106      	movs	r1, #6
 8002358:	4821      	ldr	r0, [pc, #132]	; (80023e0 <vWelder_Run+0x1e0>)
 800235a:	f002 f96a 	bl	8004632 <HAL_GPIO_WritePin>
		vTaskDelay(100 / portTICK_RATE_MS); // Ожидание подъема головки
 800235e:	2064      	movs	r0, #100	; 0x64
 8002360:	f005 fcbe 	bl	8007ce0 <vTaskDelay>

		WelderUnit.IndicatorPanel.LEDsState |= LED_UP; // Индикация поднятой сварочной головки
 8002364:	4b1a      	ldr	r3, [pc, #104]	; (80023d0 <vWelder_Run+0x1d0>)
 8002366:	f893 3021 	ldrb.w	r3, [r3, #33]	; 0x21
 800236a:	f043 0308 	orr.w	r3, r3, #8
 800236e:	b2da      	uxtb	r2, r3
 8002370:	4b17      	ldr	r3, [pc, #92]	; (80023d0 <vWelder_Run+0x1d0>)
 8002372:	f883 2021 	strb.w	r2, [r3, #33]	; 0x21
		WelderUnit.IndicatorPanel.LEDsState &= ~LED_DOWN;
 8002376:	4b16      	ldr	r3, [pc, #88]	; (80023d0 <vWelder_Run+0x1d0>)
 8002378:	f893 3021 	ldrb.w	r3, [r3, #33]	; 0x21
 800237c:	f023 0304 	bic.w	r3, r3, #4
 8002380:	b2da      	uxtb	r2, r3
 8002382:	4b13      	ldr	r3, [pc, #76]	; (80023d0 <vWelder_Run+0x1d0>)
 8002384:	f883 2021 	strb.w	r2, [r3, #33]	; 0x21

		// Откат каретки

		if (WelderUnit.Position > KICKBACK)
 8002388:	4b11      	ldr	r3, [pc, #68]	; (80023d0 <vWelder_Run+0x1d0>)
 800238a:	889b      	ldrh	r3, [r3, #4]
 800238c:	2bc8      	cmp	r3, #200	; 0xc8
 800238e:	d906      	bls.n	800239e <vWelder_Run+0x19e>
		{
			WelderUnit.GoTo = WelderUnit.Position -	KICKBACK;
 8002390:	4b0f      	ldr	r3, [pc, #60]	; (80023d0 <vWelder_Run+0x1d0>)
 8002392:	889b      	ldrh	r3, [r3, #4]
 8002394:	3bc8      	subs	r3, #200	; 0xc8
 8002396:	b29a      	uxth	r2, r3
 8002398:	4b0d      	ldr	r3, [pc, #52]	; (80023d0 <vWelder_Run+0x1d0>)
 800239a:	811a      	strh	r2, [r3, #8]
 800239c:	e002      	b.n	80023a4 <vWelder_Run+0x1a4>
		}
		else
		{
			WelderUnit.GoTo = 0;
 800239e:	4b0c      	ldr	r3, [pc, #48]	; (80023d0 <vWelder_Run+0x1d0>)
 80023a0:	2200      	movs	r2, #0
 80023a2:	811a      	strh	r2, [r3, #8]
		}

		Carriage_cmd = Cmd_CarriageGoTo;
 80023a4:	2301      	movs	r3, #1
 80023a6:	73fb      	strb	r3, [r7, #15]
		xQueueSendToBack( qWelderCmd, &Carriage_cmd, 0 ); // Идити к
 80023a8:	4b0b      	ldr	r3, [pc, #44]	; (80023d8 <vWelder_Run+0x1d8>)
 80023aa:	6818      	ldr	r0, [r3, #0]
 80023ac:	f107 010f 	add.w	r1, r7, #15
 80023b0:	2300      	movs	r3, #0
 80023b2:	2200      	movs	r2, #0
 80023b4:	f004 fe4e 	bl	8007054 <xQueueGenericSend>
		xQueueReceive(qGoToResponse, &lReceivedValue, portMAX_DELAY ); // Ждать ответа от задачи CarriageGoTo о том что нужная позиция картеки ханята
 80023b8:	4b08      	ldr	r3, [pc, #32]	; (80023dc <vWelder_Run+0x1dc>)
 80023ba:	681b      	ldr	r3, [r3, #0]
 80023bc:	f107 010e 	add.w	r1, r7, #14
 80023c0:	f04f 32ff 	mov.w	r2, #4294967295
 80023c4:	4618      	mov	r0, r3
 80023c6:	f004 ff9d 	bl	8007304 <xQueueReceive>
		xQueueReceive(qWelderRun, &lReceivedValue, portMAX_DELAY ); // Ждать ответа от задачи CarriageGoTo о том что нужная позиция картеки ханята
 80023ca:	e71d      	b.n	8002208 <vWelder_Run+0x8>
 80023cc:	20004d88 	.word	0x20004d88
 80023d0:	2000453c 	.word	0x2000453c
 80023d4:	20004538 	.word	0x20004538
 80023d8:	20004d94 	.word	0x20004d94
 80023dc:	20004d80 	.word	0x20004d80
 80023e0:	40011000 	.word	0x40011000
 80023e4:	40010800 	.word	0x40010800

080023e8 <vCarriage_Calibration>:
}



void vCarriage_Calibration(void *pvParameters)
{
 80023e8:	b580      	push	{r7, lr}
 80023ea:	b084      	sub	sp, #16
 80023ec:	af00      	add	r7, sp, #0
 80023ee:	6078      	str	r0, [r7, #4]
	uint8_t lReceivedValue;


	for(;;)
	{
		xQueueReceive(qWelderCalibrated, &lReceivedValue, portMAX_DELAY ); // Ждать ответа от задачи CarriageGoTo о том что нужная позиция картеки занята
 80023f0:	4b39      	ldr	r3, [pc, #228]	; (80024d8 <vCarriage_Calibration+0xf0>)
 80023f2:	681b      	ldr	r3, [r3, #0]
 80023f4:	f107 010f 	add.w	r1, r7, #15
 80023f8:	f04f 32ff 	mov.w	r2, #4294967295
 80023fc:	4618      	mov	r0, r3
 80023fe:	f004 ff81 	bl	8007304 <xQueueReceive>

		if (lReceivedValue == Calibrated)
 8002402:	7bfb      	ldrb	r3, [r7, #15]
 8002404:	2b04      	cmp	r3, #4
 8002406:	d1f3      	bne.n	80023f0 <vCarriage_Calibration+0x8>
		{

			WELDER_HEAD_UP // Поднять головку
 8002408:	2201      	movs	r2, #1
 800240a:	2106      	movs	r1, #6
 800240c:	4833      	ldr	r0, [pc, #204]	; (80024dc <vCarriage_Calibration+0xf4>)
 800240e:	f002 f910 	bl	8004632 <HAL_GPIO_WritePin>
			vTaskDelay(100 / portTICK_RATE_MS); // Ожидание подъема головки
 8002412:	2064      	movs	r0, #100	; 0x64
 8002414:	f005 fc64 	bl	8007ce0 <vTaskDelay>

			WelderUnit.IndicatorPanel.LEDsState |= LED_UP; // Индикация поднятой сварочной головки
 8002418:	4b31      	ldr	r3, [pc, #196]	; (80024e0 <vCarriage_Calibration+0xf8>)
 800241a:	f893 3021 	ldrb.w	r3, [r3, #33]	; 0x21
 800241e:	f043 0308 	orr.w	r3, r3, #8
 8002422:	b2da      	uxtb	r2, r3
 8002424:	4b2e      	ldr	r3, [pc, #184]	; (80024e0 <vCarriage_Calibration+0xf8>)
 8002426:	f883 2021 	strb.w	r2, [r3, #33]	; 0x21
			WelderUnit.IndicatorPanel.LEDsState &= ~LED_DOWN;
 800242a:	4b2d      	ldr	r3, [pc, #180]	; (80024e0 <vCarriage_Calibration+0xf8>)
 800242c:	f893 3021 	ldrb.w	r3, [r3, #33]	; 0x21
 8002430:	f023 0304 	bic.w	r3, r3, #4
 8002434:	b2da      	uxtb	r2, r3
 8002436:	4b2a      	ldr	r3, [pc, #168]	; (80024e0 <vCarriage_Calibration+0xf8>)
 8002438:	f883 2021 	strb.w	r2, [r3, #33]	; 0x21

			Carriage_Move(400, 0, 1); // Начать перемещение каретки в сторону концевика
 800243c:	2201      	movs	r2, #1
 800243e:	2100      	movs	r1, #0
 8002440:	f44f 70c8 	mov.w	r0, #400	; 0x190
 8002444:	f7fe fd20 	bl	8000e88 <Carriage_Move>

			// Когда концевик замкнулся выдается семофор, что коретка дошла до самого начала

			// По какой-то причине при первой попытке взять 2-й семафор он берется (даже если не выдан). Потому семафор берется дважды
			xSemaphoreTake( xSemaphore_Calibration, portMAX_DELAY ); // Попытка взять семафор.
 8002448:	4b26      	ldr	r3, [pc, #152]	; (80024e4 <vCarriage_Calibration+0xfc>)
 800244a:	681b      	ldr	r3, [r3, #0]
 800244c:	f04f 31ff 	mov.w	r1, #4294967295
 8002450:	4618      	mov	r0, r3
 8002452:	f004 fff9 	bl	8007448 <xQueueSemaphoreTake>
			xSemaphoreTake( xSemaphore_Calibration, portMAX_DELAY );
 8002456:	4b23      	ldr	r3, [pc, #140]	; (80024e4 <vCarriage_Calibration+0xfc>)
 8002458:	681b      	ldr	r3, [r3, #0]
 800245a:	f04f 31ff 	mov.w	r1, #4294967295
 800245e:	4618      	mov	r0, r3
 8002460:	f004 fff2 	bl	8007448 <xQueueSemaphoreTake>

			Carriage_Move(0, 0, 1); // Стоп
 8002464:	2201      	movs	r2, #1
 8002466:	2100      	movs	r1, #0
 8002468:	2000      	movs	r0, #0
 800246a:	f7fe fd0d 	bl	8000e88 <Carriage_Move>

			Carriage_Move(200, 1, 1); // Отъехать немного назад
 800246e:	2201      	movs	r2, #1
 8002470:	2101      	movs	r1, #1
 8002472:	20c8      	movs	r0, #200	; 0xc8
 8002474:	f7fe fd08 	bl	8000e88 <Carriage_Move>
			vTaskDelay(2000 / portTICK_RATE_MS);
 8002478:	f44f 60fa 	mov.w	r0, #2000	; 0x7d0
 800247c:	f005 fc30 	bl	8007ce0 <vTaskDelay>

			Carriage_Move(0, 0, 1); // Стоп
 8002480:	2201      	movs	r2, #1
 8002482:	2100      	movs	r1, #0
 8002484:	2000      	movs	r0, #0
 8002486:	f7fe fcff 	bl	8000e88 <Carriage_Move>

			vTaskDelay(100/ portTICK_RATE_MS);
 800248a:	2064      	movs	r0, #100	; 0x64
 800248c:	f005 fc28 	bl	8007ce0 <vTaskDelay>

			Carriage_Move(24, 0, 1); // Начать перемещение каретки в сторону концевика
 8002490:	2201      	movs	r2, #1
 8002492:	2100      	movs	r1, #0
 8002494:	2018      	movs	r0, #24
 8002496:	f7fe fcf7 	bl	8000e88 <Carriage_Move>

			// По какой-то причине при первой попытке взять 2-й семафор он берется (даже если не выдан). Потому семафор берется дважды
			xSemaphoreTake( xSemaphore_Calibration, portMAX_DELAY ); // Попытка взять семафор по прерыванию срабатывания концевика
 800249a:	4b12      	ldr	r3, [pc, #72]	; (80024e4 <vCarriage_Calibration+0xfc>)
 800249c:	681b      	ldr	r3, [r3, #0]
 800249e:	f04f 31ff 	mov.w	r1, #4294967295
 80024a2:	4618      	mov	r0, r3
 80024a4:	f004 ffd0 	bl	8007448 <xQueueSemaphoreTake>
			xSemaphoreTake( xSemaphore_Calibration, portMAX_DELAY );
 80024a8:	4b0e      	ldr	r3, [pc, #56]	; (80024e4 <vCarriage_Calibration+0xfc>)
 80024aa:	681b      	ldr	r3, [r3, #0]
 80024ac:	f04f 31ff 	mov.w	r1, #4294967295
 80024b0:	4618      	mov	r0, r3
 80024b2:	f004 ffc9 	bl	8007448 <xQueueSemaphoreTake>

			Carriage_Move(0, 0, 1); // Стоп
 80024b6:	2201      	movs	r2, #1
 80024b8:	2100      	movs	r1, #0
 80024ba:	2000      	movs	r0, #0
 80024bc:	f7fe fce4 	bl	8000e88 <Carriage_Move>

			WelderUnit.State |= 1<<1; //1 бит - Откалибровано
 80024c0:	4b07      	ldr	r3, [pc, #28]	; (80024e0 <vCarriage_Calibration+0xf8>)
 80024c2:	7c1b      	ldrb	r3, [r3, #16]
 80024c4:	f043 0302 	orr.w	r3, r3, #2
 80024c8:	b2da      	uxtb	r2, r3
 80024ca:	4b05      	ldr	r3, [pc, #20]	; (80024e0 <vCarriage_Calibration+0xf8>)
 80024cc:	741a      	strb	r2, [r3, #16]

			WelderUnit.Position = 0; // Позиция каретки
 80024ce:	4b04      	ldr	r3, [pc, #16]	; (80024e0 <vCarriage_Calibration+0xf8>)
 80024d0:	2200      	movs	r2, #0
 80024d2:	809a      	strh	r2, [r3, #4]
		xQueueReceive(qWelderCalibrated, &lReceivedValue, portMAX_DELAY ); // Ждать ответа от задачи CarriageGoTo о том что нужная позиция картеки занята
 80024d4:	e78c      	b.n	80023f0 <vCarriage_Calibration+0x8>
 80024d6:	bf00      	nop
 80024d8:	20004d8c 	.word	0x20004d8c
 80024dc:	40011000 	.word	0x40011000
 80024e0:	2000453c 	.word	0x2000453c
 80024e4:	20004dc4 	.word	0x20004dc4

080024e8 <vCarriage_GoTo>:
	vTaskDelete(NULL);
}


void vCarriage_GoTo(void *pvParameters)
{
 80024e8:	b580      	push	{r7, lr}
 80024ea:	b084      	sub	sp, #16
 80024ec:	af00      	add	r7, sp, #0
 80024ee:	6078      	str	r0, [r7, #4]

	for(;;)
	{
		//Попытка получить команду для передвижения каретки в нужную позицию.
		// Данные из очереди при этом не удаляются
		xQueuePeek(qWelderCmd, &lReceivedValue, portMAX_DELAY );
 80024f0:	4b5d      	ldr	r3, [pc, #372]	; (8002668 <vCarriage_GoTo+0x180>)
 80024f2:	681b      	ldr	r3, [r3, #0]
 80024f4:	f107 010b 	add.w	r1, r7, #11
 80024f8:	f04f 32ff 	mov.w	r2, #4294967295
 80024fc:	4618      	mov	r0, r3
 80024fe:	f005 f86b 	bl	80075d8 <xQueuePeek>

		if (lReceivedValue == Cmd_CarriageGoTo)
 8002502:	7afb      	ldrb	r3, [r7, #11]
 8002504:	2b01      	cmp	r3, #1
 8002506:	d1f3      	bne.n	80024f0 <vCarriage_GoTo+0x8>
		{

		WelderUnit.Position = WelderUnit.Steps * DISTANCE_PER_ROTATE / (STEPS_PER_ROTATE * MICRO_STEP_DEV); // Вычисление текущей позиции каретки, мм
 8002508:	4b58      	ldr	r3, [pc, #352]	; (800266c <vCarriage_GoTo+0x184>)
 800250a:	89db      	ldrh	r3, [r3, #14]
 800250c:	461a      	mov	r2, r3
 800250e:	4613      	mov	r3, r2
 8002510:	011b      	lsls	r3, r3, #4
 8002512:	1a9b      	subs	r3, r3, r2
 8002514:	009b      	lsls	r3, r3, #2
 8002516:	4618      	mov	r0, r3
 8002518:	f7fd ffdc 	bl	80004d4 <__aeabi_i2d>
 800251c:	f04f 0200 	mov.w	r2, #0
 8002520:	4b53      	ldr	r3, [pc, #332]	; (8002670 <vCarriage_GoTo+0x188>)
 8002522:	f7fe f96b 	bl	80007fc <__aeabi_ddiv>
 8002526:	4602      	mov	r2, r0
 8002528:	460b      	mov	r3, r1
 800252a:	4610      	mov	r0, r2
 800252c:	4619      	mov	r1, r3
 800252e:	f7fe fa4d 	bl	80009cc <__aeabi_d2uiz>
 8002532:	4603      	mov	r3, r0
 8002534:	b29a      	uxth	r2, r3
 8002536:	4b4d      	ldr	r3, [pc, #308]	; (800266c <vCarriage_GoTo+0x184>)
 8002538:	809a      	strh	r2, [r3, #4]

		dX = WelderUnit.GoTo - WelderUnit.Position; // Определение сколько и в какую сторону нужно сдвинуть каретку
 800253a:	4b4c      	ldr	r3, [pc, #304]	; (800266c <vCarriage_GoTo+0x184>)
 800253c:	891b      	ldrh	r3, [r3, #8]
 800253e:	461a      	mov	r2, r3
 8002540:	4b4a      	ldr	r3, [pc, #296]	; (800266c <vCarriage_GoTo+0x184>)
 8002542:	889b      	ldrh	r3, [r3, #4]
 8002544:	1ad3      	subs	r3, r2, r3
 8002546:	60fb      	str	r3, [r7, #12]

		// Если каретка на нужном месте, то остановить движение каретки, очищаем очередь и снова взврат к xQueuePeek, для ожидания след команды
		if (dX == 0)
 8002548:	68fb      	ldr	r3, [r7, #12]
 800254a:	2b00      	cmp	r3, #0
 800254c:	d11e      	bne.n	800258c <vCarriage_GoTo+0xa4>
		{
			Carriage_Move(0, 1, 1); // стоп
 800254e:	2201      	movs	r2, #1
 8002550:	2101      	movs	r1, #1
 8002552:	2000      	movs	r0, #0
 8002554:	f7fe fc98 	bl	8000e88 <Carriage_Move>
			WelderUnit.State &= ~0x01;
 8002558:	4b44      	ldr	r3, [pc, #272]	; (800266c <vCarriage_GoTo+0x184>)
 800255a:	7c1b      	ldrb	r3, [r3, #16]
 800255c:	f023 0301 	bic.w	r3, r3, #1
 8002560:	b2da      	uxtb	r2, r3
 8002562:	4b42      	ldr	r3, [pc, #264]	; (800266c <vCarriage_GoTo+0x184>)
 8002564:	741a      	strb	r2, [r3, #16]
			SendVal = Carriage_Done;
 8002566:	2302      	movs	r3, #2
 8002568:	72bb      	strb	r3, [r7, #10]
			xQueueSendToBack( qGoToResponse, &SendVal, 0 );
 800256a:	4b42      	ldr	r3, [pc, #264]	; (8002674 <vCarriage_GoTo+0x18c>)
 800256c:	6818      	ldr	r0, [r3, #0]
 800256e:	f107 010a 	add.w	r1, r7, #10
 8002572:	2300      	movs	r3, #0
 8002574:	2200      	movs	r2, #0
 8002576:	f004 fd6d 	bl	8007054 <xQueueGenericSend>

			//xQueueSendToBack( qDebug, &SendVal, 0 );

			xQueueReceive(qWelderCmd, &lReceivedValue, portMAX_DELAY );
 800257a:	4b3b      	ldr	r3, [pc, #236]	; (8002668 <vCarriage_GoTo+0x180>)
 800257c:	681b      	ldr	r3, [r3, #0]
 800257e:	f107 010b 	add.w	r1, r7, #11
 8002582:	f04f 32ff 	mov.w	r2, #4294967295
 8002586:	4618      	mov	r0, r3
 8002588:	f004 febc 	bl	8007304 <xQueueReceive>

		}

		if (dX > 0) // Если двигать в сторону концевика
 800258c:	68fb      	ldr	r3, [r7, #12]
 800258e:	2b00      	cmp	r3, #0
 8002590:	dd20      	ble.n	80025d4 <vCarriage_GoTo+0xec>
		{

			if (WelderUnit.Position <= WelderUnit.GoTo && !(WelderUnit.State & 0x01)) // Если позиция не достигнута и каретка находится не в движении, то начать перемещение
 8002592:	4b36      	ldr	r3, [pc, #216]	; (800266c <vCarriage_GoTo+0x184>)
 8002594:	889a      	ldrh	r2, [r3, #4]
 8002596:	4b35      	ldr	r3, [pc, #212]	; (800266c <vCarriage_GoTo+0x184>)
 8002598:	891b      	ldrh	r3, [r3, #8]
 800259a:	429a      	cmp	r2, r3
 800259c:	d81a      	bhi.n	80025d4 <vCarriage_GoTo+0xec>
 800259e:	4b33      	ldr	r3, [pc, #204]	; (800266c <vCarriage_GoTo+0x184>)
 80025a0:	7c1b      	ldrb	r3, [r3, #16]
 80025a2:	f003 0301 	and.w	r3, r3, #1
 80025a6:	2b00      	cmp	r3, #0
 80025a8:	d114      	bne.n	80025d4 <vCarriage_GoTo+0xec>
			{
				Carriage_Move(WelderUnit.Speed, 1, 1); // Начать перемещение
 80025aa:	4b30      	ldr	r3, [pc, #192]	; (800266c <vCarriage_GoTo+0x184>)
 80025ac:	88db      	ldrh	r3, [r3, #6]
 80025ae:	2201      	movs	r2, #1
 80025b0:	2101      	movs	r1, #1
 80025b2:	4618      	mov	r0, r3
 80025b4:	f7fe fc68 	bl	8000e88 <Carriage_Move>
				WelderUnit.State |= 0x01; // Статус - каретка в движении
 80025b8:	4b2c      	ldr	r3, [pc, #176]	; (800266c <vCarriage_GoTo+0x184>)
 80025ba:	7c1b      	ldrb	r3, [r3, #16]
 80025bc:	f043 0301 	orr.w	r3, r3, #1
 80025c0:	b2da      	uxtb	r2, r3
 80025c2:	4b2a      	ldr	r3, [pc, #168]	; (800266c <vCarriage_GoTo+0x184>)
 80025c4:	741a      	strb	r2, [r3, #16]
				WelderUnit.State &= ~0x04; // Статус картека движется на встречу концевику
 80025c6:	4b29      	ldr	r3, [pc, #164]	; (800266c <vCarriage_GoTo+0x184>)
 80025c8:	7c1b      	ldrb	r3, [r3, #16]
 80025ca:	f023 0304 	bic.w	r3, r3, #4
 80025ce:	b2da      	uxtb	r2, r3
 80025d0:	4b26      	ldr	r3, [pc, #152]	; (800266c <vCarriage_GoTo+0x184>)
 80025d2:	741a      	strb	r2, [r3, #16]
			}
		}

		if (dX < 0) // Если нужно двигать от концевика
 80025d4:	68fb      	ldr	r3, [r7, #12]
 80025d6:	2b00      	cmp	r3, #0
 80025d8:	da20      	bge.n	800261c <vCarriage_GoTo+0x134>
		{
			if (WelderUnit.Position >= WelderUnit.GoTo && !(WelderUnit.State & 0x01)) // Если позиция не достигнута и каретка находится не в движении, то начать перемещение
 80025da:	4b24      	ldr	r3, [pc, #144]	; (800266c <vCarriage_GoTo+0x184>)
 80025dc:	889a      	ldrh	r2, [r3, #4]
 80025de:	4b23      	ldr	r3, [pc, #140]	; (800266c <vCarriage_GoTo+0x184>)
 80025e0:	891b      	ldrh	r3, [r3, #8]
 80025e2:	429a      	cmp	r2, r3
 80025e4:	d31a      	bcc.n	800261c <vCarriage_GoTo+0x134>
 80025e6:	4b21      	ldr	r3, [pc, #132]	; (800266c <vCarriage_GoTo+0x184>)
 80025e8:	7c1b      	ldrb	r3, [r3, #16]
 80025ea:	f003 0301 	and.w	r3, r3, #1
 80025ee:	2b00      	cmp	r3, #0
 80025f0:	d114      	bne.n	800261c <vCarriage_GoTo+0x134>
			{
				Carriage_Move(WelderUnit.Speed, 0, 1); // Начать перемещение
 80025f2:	4b1e      	ldr	r3, [pc, #120]	; (800266c <vCarriage_GoTo+0x184>)
 80025f4:	88db      	ldrh	r3, [r3, #6]
 80025f6:	2201      	movs	r2, #1
 80025f8:	2100      	movs	r1, #0
 80025fa:	4618      	mov	r0, r3
 80025fc:	f7fe fc44 	bl	8000e88 <Carriage_Move>
				WelderUnit.State |= 0x01; // Статус - каретка в движении
 8002600:	4b1a      	ldr	r3, [pc, #104]	; (800266c <vCarriage_GoTo+0x184>)
 8002602:	7c1b      	ldrb	r3, [r3, #16]
 8002604:	f043 0301 	orr.w	r3, r3, #1
 8002608:	b2da      	uxtb	r2, r3
 800260a:	4b18      	ldr	r3, [pc, #96]	; (800266c <vCarriage_GoTo+0x184>)
 800260c:	741a      	strb	r2, [r3, #16]
				WelderUnit.State |= 0x04; // Статус картека движется от концевика
 800260e:	4b17      	ldr	r3, [pc, #92]	; (800266c <vCarriage_GoTo+0x184>)
 8002610:	7c1b      	ldrb	r3, [r3, #16]
 8002612:	f043 0304 	orr.w	r3, r3, #4
 8002616:	b2da      	uxtb	r2, r3
 8002618:	4b14      	ldr	r3, [pc, #80]	; (800266c <vCarriage_GoTo+0x184>)
 800261a:	741a      	strb	r2, [r3, #16]
			}
		}

		if (xSemaphoreTake(xSemaphore_StepCount, (500 / portTICK_RATE_MS)) == pdTRUE) // Если через 100 мС семафор так и не получен, то считать что двигатель осановлен
 800261c:	4b16      	ldr	r3, [pc, #88]	; (8002678 <vCarriage_GoTo+0x190>)
 800261e:	681b      	ldr	r3, [r3, #0]
 8002620:	f44f 71fa 	mov.w	r1, #500	; 0x1f4
 8002624:	4618      	mov	r0, r3
 8002626:	f004 ff0f 	bl	8007448 <xQueueSemaphoreTake>
 800262a:	4603      	mov	r3, r0
 800262c:	2b01      	cmp	r3, #1
 800262e:	f47f af5f 	bne.w	80024f0 <vCarriage_GoTo+0x8>
		//xSemaphoreTake(xSemaphore_StepCount, portMAX_DELAY );
		{
			if (!(WelderUnit.State & 0x04)) // Если каретка движется на встречу концевику, то инкрментирование Steps на каждый шаг ШД
 8002632:	4b0e      	ldr	r3, [pc, #56]	; (800266c <vCarriage_GoTo+0x184>)
 8002634:	7c1b      	ldrb	r3, [r3, #16]
 8002636:	f003 0304 	and.w	r3, r3, #4
 800263a:	2b00      	cmp	r3, #0
 800263c:	d105      	bne.n	800264a <vCarriage_GoTo+0x162>
				{
					WelderUnit.Steps++;
 800263e:	4b0b      	ldr	r3, [pc, #44]	; (800266c <vCarriage_GoTo+0x184>)
 8002640:	89db      	ldrh	r3, [r3, #14]
 8002642:	3301      	adds	r3, #1
 8002644:	b29a      	uxth	r2, r3
 8002646:	4b09      	ldr	r3, [pc, #36]	; (800266c <vCarriage_GoTo+0x184>)
 8002648:	81da      	strh	r2, [r3, #14]
				}

				if (WelderUnit.State & 0x04) // Если каретка движется от концевика, то декрементирование Steps на каждый шаг ШД
 800264a:	4b08      	ldr	r3, [pc, #32]	; (800266c <vCarriage_GoTo+0x184>)
 800264c:	7c1b      	ldrb	r3, [r3, #16]
 800264e:	f003 0304 	and.w	r3, r3, #4
 8002652:	2b00      	cmp	r3, #0
 8002654:	f43f af4c 	beq.w	80024f0 <vCarriage_GoTo+0x8>
				{
						WelderUnit.Steps--;
 8002658:	4b04      	ldr	r3, [pc, #16]	; (800266c <vCarriage_GoTo+0x184>)
 800265a:	89db      	ldrh	r3, [r3, #14]
 800265c:	3b01      	subs	r3, #1
 800265e:	b29a      	uxth	r2, r3
 8002660:	4b02      	ldr	r3, [pc, #8]	; (800266c <vCarriage_GoTo+0x184>)
 8002662:	81da      	strh	r2, [r3, #14]
		xQueuePeek(qWelderCmd, &lReceivedValue, portMAX_DELAY );
 8002664:	e744      	b.n	80024f0 <vCarriage_GoTo+0x8>
 8002666:	bf00      	nop
 8002668:	20004d94 	.word	0x20004d94
 800266c:	2000453c 	.word	0x2000453c
 8002670:	40890000 	.word	0x40890000
 8002674:	20004d80 	.word	0x20004d80
 8002678:	20004560 	.word	0x20004560

0800267c <vKeyScan>:
	}
	vTaskDelete(NULL);
}

void vKeyScan(void *pvParameters)
{
 800267c:	b580      	push	{r7, lr}
 800267e:	b084      	sub	sp, #16
 8002680:	af00      	add	r7, sp, #0
 8002682:	6078      	str	r0, [r7, #4]


	uint8_t nKeyPressed; // Передача команды о том какая кнопка или комбинация кнопок нажаты
	//portBASE_TYPE xStatus;

	vTaskDelay(100 / portTICK_RATE_MS);
 8002684:	2064      	movs	r0, #100	; 0x64
 8002686:	f005 fb2b 	bl	8007ce0 <vTaskDelay>

	for(;;)
	{
		PCB_KeyScan();
 800268a:	f7fe fc45 	bl	8000f18 <PCB_KeyScan>
		PCB_InputsScan();
 800268e:	f7fe fc59 	bl	8000f44 <PCB_InputsScan>

		if (WelderUnit.IndicatorPanel.KeyState[0] == 128) // ВЛЕВО: [0], "-" - 128, "+" - 64, , STLED №5;
 8002692:	4ba9      	ldr	r3, [pc, #676]	; (8002938 <vKeyScan+0x2bc>)
 8002694:	7f5b      	ldrb	r3, [r3, #29]
 8002696:	2b80      	cmp	r3, #128	; 0x80
 8002698:	d12f      	bne.n	80026fa <vKeyScan+0x7e>
		{
			// Если времы выдрежки короткого нажатия достигло заданного итервала времени и это нажатие не считается длинным, то нажатие считается кортоким
			if (Key.Xs_ShortPress_L > CNT_KEY_SHORT && Key.Xs_ShortPress_L != CNT_KEY_SHORT + 2)
 800269a:	4ba8      	ldr	r3, [pc, #672]	; (800293c <vKeyScan+0x2c0>)
 800269c:	781b      	ldrb	r3, [r3, #0]
 800269e:	2b04      	cmp	r3, #4
 80026a0:	d906      	bls.n	80026b0 <vKeyScan+0x34>
 80026a2:	4ba6      	ldr	r3, [pc, #664]	; (800293c <vKeyScan+0x2c0>)
 80026a4:	781b      	ldrb	r3, [r3, #0]
 80026a6:	2b06      	cmp	r3, #6
 80026a8:	d002      	beq.n	80026b0 <vKeyScan+0x34>
			{
//				nKeyPressed = press_short_Xs_L;
//				xQueueSendToBack( qKeyPress, &nKeyPressed, 0 ); // Передача номера нажатой клавиши

				Key.Xs_ShortPress_L = CNT_KEY_SHORT + 3; // Для ожидания отпускания клавиши
 80026aa:	4ba4      	ldr	r3, [pc, #656]	; (800293c <vKeyScan+0x2c0>)
 80026ac:	2207      	movs	r2, #7
 80026ae:	701a      	strb	r2, [r3, #0]
			}

			if (Key.Xs_ShortPress_L != CNT_KEY_SHORT + 2) // Если нажатие не считается долгим
 80026b0:	4ba2      	ldr	r3, [pc, #648]	; (800293c <vKeyScan+0x2c0>)
 80026b2:	781b      	ldrb	r3, [r3, #0]
 80026b4:	2b06      	cmp	r3, #6
 80026b6:	d005      	beq.n	80026c4 <vKeyScan+0x48>
			{
				Key.Xs_ShortPress_L++; // Счетчик для определения короткого нажатия на кнопку
 80026b8:	4ba0      	ldr	r3, [pc, #640]	; (800293c <vKeyScan+0x2c0>)
 80026ba:	781b      	ldrb	r3, [r3, #0]
 80026bc:	3301      	adds	r3, #1
 80026be:	b2da      	uxtb	r2, r3
 80026c0:	4b9e      	ldr	r3, [pc, #632]	; (800293c <vKeyScan+0x2c0>)
 80026c2:	701a      	strb	r2, [r3, #0]
			}


			Key.Xs_LongPress_L++; // Счетчик для определения длинного нажатия на кнопку
 80026c4:	4b9d      	ldr	r3, [pc, #628]	; (800293c <vKeyScan+0x2c0>)
 80026c6:	789b      	ldrb	r3, [r3, #2]
 80026c8:	3301      	adds	r3, #1
 80026ca:	b2da      	uxtb	r2, r3
 80026cc:	4b9b      	ldr	r3, [pc, #620]	; (800293c <vKeyScan+0x2c0>)
 80026ce:	709a      	strb	r2, [r3, #2]
			if (Key.Xs_LongPress_L > CNT_KEY_LONG) // Если времы выдрежки длинного нажатия достигло заданного интервала времени, то нажатие считается длинным
 80026d0:	4b9a      	ldr	r3, [pc, #616]	; (800293c <vKeyScan+0x2c0>)
 80026d2:	789b      	ldrb	r3, [r3, #2]
 80026d4:	2b32      	cmp	r3, #50	; 0x32
 80026d6:	d924      	bls.n	8002722 <vKeyScan+0xa6>
			{
				nKeyPressed = press_long_Xs_L;
 80026d8:	2302      	movs	r3, #2
 80026da:	73fb      	strb	r3, [r7, #15]
				xQueueSendToBack( qKeyPress, &nKeyPressed, 0 ); // Передача номера нажатой клавиши
 80026dc:	4b98      	ldr	r3, [pc, #608]	; (8002940 <vKeyScan+0x2c4>)
 80026de:	6818      	ldr	r0, [r3, #0]
 80026e0:	f107 010f 	add.w	r1, r7, #15
 80026e4:	2300      	movs	r3, #0
 80026e6:	2200      	movs	r2, #0
 80026e8:	f004 fcb4 	bl	8007054 <xQueueGenericSend>


				Key.Xs_ShortPress_L = CNT_KEY_SHORT + 2; // Для запрета работы коротких нажатий
 80026ec:	4b93      	ldr	r3, [pc, #588]	; (800293c <vKeyScan+0x2c0>)
 80026ee:	2206      	movs	r2, #6
 80026f0:	701a      	strb	r2, [r3, #0]
				Key.Xs_LongPress_L = CNT_LONG_PRESS; // Сброс счета для определения длинного нажатия. Не 0 что бы дейсвия выполнялось быстрее
 80026f2:	4b92      	ldr	r3, [pc, #584]	; (800293c <vKeyScan+0x2c0>)
 80026f4:	2225      	movs	r2, #37	; 0x25
 80026f6:	709a      	strb	r2, [r3, #2]
 80026f8:	e013      	b.n	8002722 <vKeyScan+0xa6>
		}
		else // Если кнопка была отпущена то сбросить все счетчики выдержки
		{


			if (Key.Xs_ShortPress_L >= CNT_KEY_SHORT + 3)
 80026fa:	4b90      	ldr	r3, [pc, #576]	; (800293c <vKeyScan+0x2c0>)
 80026fc:	781b      	ldrb	r3, [r3, #0]
 80026fe:	2b06      	cmp	r3, #6
 8002700:	d909      	bls.n	8002716 <vKeyScan+0x9a>
			{
				nKeyPressed = press_short_Xs_L;
 8002702:	2301      	movs	r3, #1
 8002704:	73fb      	strb	r3, [r7, #15]
				xQueueSendToBack( qKeyPress, &nKeyPressed, 0 ); // Передача номера нажатой клавиши
 8002706:	4b8e      	ldr	r3, [pc, #568]	; (8002940 <vKeyScan+0x2c4>)
 8002708:	6818      	ldr	r0, [r3, #0]
 800270a:	f107 010f 	add.w	r1, r7, #15
 800270e:	2300      	movs	r3, #0
 8002710:	2200      	movs	r2, #0
 8002712:	f004 fc9f 	bl	8007054 <xQueueGenericSend>
			}

			Key.Xs_ShortPress_L = 0;
 8002716:	4b89      	ldr	r3, [pc, #548]	; (800293c <vKeyScan+0x2c0>)
 8002718:	2200      	movs	r2, #0
 800271a:	701a      	strb	r2, [r3, #0]
			Key.Xs_LongPress_L = 0;
 800271c:	4b87      	ldr	r3, [pc, #540]	; (800293c <vKeyScan+0x2c0>)
 800271e:	2200      	movs	r2, #0
 8002720:	709a      	strb	r2, [r3, #2]
		}

		if (WelderUnit.IndicatorPanel.KeyState[0] == 64) // Если есть факт нажатия кнопки
 8002722:	4b85      	ldr	r3, [pc, #532]	; (8002938 <vKeyScan+0x2bc>)
 8002724:	7f5b      	ldrb	r3, [r3, #29]
 8002726:	2b40      	cmp	r3, #64	; 0x40
 8002728:	d139      	bne.n	800279e <vKeyScan+0x122>
		{
			// Если времы выдрежки короткого нажатия достигло заданного итервала времени и это нажатие не считается длинным, то нажатие считается кортоким
			if (Key.Xs_ShortPress_R > CNT_KEY_SHORT && Key.Xs_ShortPress_R != CNT_KEY_SHORT + 2)
 800272a:	4b84      	ldr	r3, [pc, #528]	; (800293c <vKeyScan+0x2c0>)
 800272c:	785b      	ldrb	r3, [r3, #1]
 800272e:	2b04      	cmp	r3, #4
 8002730:	d910      	bls.n	8002754 <vKeyScan+0xd8>
 8002732:	4b82      	ldr	r3, [pc, #520]	; (800293c <vKeyScan+0x2c0>)
 8002734:	785b      	ldrb	r3, [r3, #1]
 8002736:	2b06      	cmp	r3, #6
 8002738:	d00c      	beq.n	8002754 <vKeyScan+0xd8>
			{

				nKeyPressed = press_short_Xs_R;
 800273a:	2303      	movs	r3, #3
 800273c:	73fb      	strb	r3, [r7, #15]
				xQueueSendToBack( qKeyPress, &nKeyPressed, 0 ); // Передача номера нажатой клавиши
 800273e:	4b80      	ldr	r3, [pc, #512]	; (8002940 <vKeyScan+0x2c4>)
 8002740:	6818      	ldr	r0, [r3, #0]
 8002742:	f107 010f 	add.w	r1, r7, #15
 8002746:	2300      	movs	r3, #0
 8002748:	2200      	movs	r2, #0
 800274a:	f004 fc83 	bl	8007054 <xQueueGenericSend>

				Key.Xs_ShortPress_R = 0; // Сброс счетика выдержки
 800274e:	4b7b      	ldr	r3, [pc, #492]	; (800293c <vKeyScan+0x2c0>)
 8002750:	2200      	movs	r2, #0
 8002752:	705a      	strb	r2, [r3, #1]
			}

			if (Key.Xs_ShortPress_R != CNT_KEY_SHORT + 2) // Если нажатие не считается долгим
 8002754:	4b79      	ldr	r3, [pc, #484]	; (800293c <vKeyScan+0x2c0>)
 8002756:	785b      	ldrb	r3, [r3, #1]
 8002758:	2b06      	cmp	r3, #6
 800275a:	d005      	beq.n	8002768 <vKeyScan+0xec>
			{
				Key.Xs_ShortPress_R++; // Счетчик для определения короткого нажатия на кнопку
 800275c:	4b77      	ldr	r3, [pc, #476]	; (800293c <vKeyScan+0x2c0>)
 800275e:	785b      	ldrb	r3, [r3, #1]
 8002760:	3301      	adds	r3, #1
 8002762:	b2da      	uxtb	r2, r3
 8002764:	4b75      	ldr	r3, [pc, #468]	; (800293c <vKeyScan+0x2c0>)
 8002766:	705a      	strb	r2, [r3, #1]
			}


			Key.Xs_LongPress_R++; // Счетчик для определения длинного нажатия на кнопку
 8002768:	4b74      	ldr	r3, [pc, #464]	; (800293c <vKeyScan+0x2c0>)
 800276a:	78db      	ldrb	r3, [r3, #3]
 800276c:	3301      	adds	r3, #1
 800276e:	b2da      	uxtb	r2, r3
 8002770:	4b72      	ldr	r3, [pc, #456]	; (800293c <vKeyScan+0x2c0>)
 8002772:	70da      	strb	r2, [r3, #3]
			if (Key.Xs_LongPress_R > CNT_KEY_LONG) // Если времы выдрежки длинного нажатия достигло заданного интервала времени, то нажатие считается длинным
 8002774:	4b71      	ldr	r3, [pc, #452]	; (800293c <vKeyScan+0x2c0>)
 8002776:	78db      	ldrb	r3, [r3, #3]
 8002778:	2b32      	cmp	r3, #50	; 0x32
 800277a:	d916      	bls.n	80027aa <vKeyScan+0x12e>
			{
				// Дейсвие при нажатии на клавишу
				nKeyPressed = press_long_Xs_R;
 800277c:	2304      	movs	r3, #4
 800277e:	73fb      	strb	r3, [r7, #15]
				xQueueSendToBack( qKeyPress, &nKeyPressed, 0 ); // Передача номера нажатой клавиши
 8002780:	4b6f      	ldr	r3, [pc, #444]	; (8002940 <vKeyScan+0x2c4>)
 8002782:	6818      	ldr	r0, [r3, #0]
 8002784:	f107 010f 	add.w	r1, r7, #15
 8002788:	2300      	movs	r3, #0
 800278a:	2200      	movs	r2, #0
 800278c:	f004 fc62 	bl	8007054 <xQueueGenericSend>

				Key.Xs_ShortPress_R = CNT_KEY_SHORT + 2; // Для запрета работы коротких нажатий
 8002790:	4b6a      	ldr	r3, [pc, #424]	; (800293c <vKeyScan+0x2c0>)
 8002792:	2206      	movs	r2, #6
 8002794:	705a      	strb	r2, [r3, #1]
				Key.Xs_LongPress_R = CNT_LONG_PRESS; // Сброс счета для определения длинного нажатия. Не 0 что бы дейсвия выполнялось быстрее
 8002796:	4b69      	ldr	r3, [pc, #420]	; (800293c <vKeyScan+0x2c0>)
 8002798:	2225      	movs	r2, #37	; 0x25
 800279a:	70da      	strb	r2, [r3, #3]
 800279c:	e005      	b.n	80027aa <vKeyScan+0x12e>


		}
		else // Если кнопка была отпущена то сбросить все счетчики выдержки
		{
			Key.Xs_ShortPress_R = 0;
 800279e:	4b67      	ldr	r3, [pc, #412]	; (800293c <vKeyScan+0x2c0>)
 80027a0:	2200      	movs	r2, #0
 80027a2:	705a      	strb	r2, [r3, #1]
			Key.Xs_LongPress_R = 0;
 80027a4:	4b65      	ldr	r3, [pc, #404]	; (800293c <vKeyScan+0x2c0>)
 80027a6:	2200      	movs	r2, #0
 80027a8:	70da      	strb	r2, [r3, #3]
		}

		if (WelderUnit.IndicatorPanel.KeyState[0] == 16) // ВПРАВО: [0], "-" - 16, "+" - 32, , STLED №5;
 80027aa:	4b63      	ldr	r3, [pc, #396]	; (8002938 <vKeyScan+0x2bc>)
 80027ac:	7f5b      	ldrb	r3, [r3, #29]
 80027ae:	2b10      	cmp	r3, #16
 80027b0:	d139      	bne.n	8002826 <vKeyScan+0x1aa>
		{
			// Если времы выдрежки короткого нажатия достигло заданного итервала времени и это нажатие не считается длинным, то нажатие считается кортоким
			if (Key.Xf_ShortPress_L > CNT_KEY_SHORT && Key.Xf_ShortPress_L != CNT_KEY_SHORT + 2)
 80027b2:	4b62      	ldr	r3, [pc, #392]	; (800293c <vKeyScan+0x2c0>)
 80027b4:	791b      	ldrb	r3, [r3, #4]
 80027b6:	2b04      	cmp	r3, #4
 80027b8:	d910      	bls.n	80027dc <vKeyScan+0x160>
 80027ba:	4b60      	ldr	r3, [pc, #384]	; (800293c <vKeyScan+0x2c0>)
 80027bc:	791b      	ldrb	r3, [r3, #4]
 80027be:	2b06      	cmp	r3, #6
 80027c0:	d00c      	beq.n	80027dc <vKeyScan+0x160>
			{

				// Дейсвие при нажатии на клавишу
				nKeyPressed = press_short_Xf_L;
 80027c2:	2305      	movs	r3, #5
 80027c4:	73fb      	strb	r3, [r7, #15]
				xQueueSendToBack( qKeyPress, &nKeyPressed, 0 ); // Передача номера нажатой клавиши
 80027c6:	4b5e      	ldr	r3, [pc, #376]	; (8002940 <vKeyScan+0x2c4>)
 80027c8:	6818      	ldr	r0, [r3, #0]
 80027ca:	f107 010f 	add.w	r1, r7, #15
 80027ce:	2300      	movs	r3, #0
 80027d0:	2200      	movs	r2, #0
 80027d2:	f004 fc3f 	bl	8007054 <xQueueGenericSend>


				Key.Xf_ShortPress_L = 0; // Сброс счетика выдержки
 80027d6:	4b59      	ldr	r3, [pc, #356]	; (800293c <vKeyScan+0x2c0>)
 80027d8:	2200      	movs	r2, #0
 80027da:	711a      	strb	r2, [r3, #4]
			}

			if (Key.Xf_ShortPress_L != CNT_KEY_SHORT + 2) // Если нажатие не считается долгим
 80027dc:	4b57      	ldr	r3, [pc, #348]	; (800293c <vKeyScan+0x2c0>)
 80027de:	791b      	ldrb	r3, [r3, #4]
 80027e0:	2b06      	cmp	r3, #6
 80027e2:	d005      	beq.n	80027f0 <vKeyScan+0x174>
			{
				Key.Xf_ShortPress_L++; // Счетчик для определения короткого нажатия на кнопку
 80027e4:	4b55      	ldr	r3, [pc, #340]	; (800293c <vKeyScan+0x2c0>)
 80027e6:	791b      	ldrb	r3, [r3, #4]
 80027e8:	3301      	adds	r3, #1
 80027ea:	b2da      	uxtb	r2, r3
 80027ec:	4b53      	ldr	r3, [pc, #332]	; (800293c <vKeyScan+0x2c0>)
 80027ee:	711a      	strb	r2, [r3, #4]
			}


			Key.Xf_LongPress_L++; // Счетчик для определения длинного нажатия на кнопку
 80027f0:	4b52      	ldr	r3, [pc, #328]	; (800293c <vKeyScan+0x2c0>)
 80027f2:	799b      	ldrb	r3, [r3, #6]
 80027f4:	3301      	adds	r3, #1
 80027f6:	b2da      	uxtb	r2, r3
 80027f8:	4b50      	ldr	r3, [pc, #320]	; (800293c <vKeyScan+0x2c0>)
 80027fa:	719a      	strb	r2, [r3, #6]
			if (Key.Xf_LongPress_L > CNT_KEY_LONG) // Если времы выдрежки длинного нажатия достигло заданного интервала времени, то нажатие считается длинным
 80027fc:	4b4f      	ldr	r3, [pc, #316]	; (800293c <vKeyScan+0x2c0>)
 80027fe:	799b      	ldrb	r3, [r3, #6]
 8002800:	2b32      	cmp	r3, #50	; 0x32
 8002802:	d916      	bls.n	8002832 <vKeyScan+0x1b6>
			{

				// Дейсвие при нажатии на клавишу
				nKeyPressed = press_long_Xf_L;
 8002804:	2306      	movs	r3, #6
 8002806:	73fb      	strb	r3, [r7, #15]
				xQueueSendToBack( qKeyPress, &nKeyPressed, 0 ); // Передача номера нажатой клавиши
 8002808:	4b4d      	ldr	r3, [pc, #308]	; (8002940 <vKeyScan+0x2c4>)
 800280a:	6818      	ldr	r0, [r3, #0]
 800280c:	f107 010f 	add.w	r1, r7, #15
 8002810:	2300      	movs	r3, #0
 8002812:	2200      	movs	r2, #0
 8002814:	f004 fc1e 	bl	8007054 <xQueueGenericSend>


				Key.Xf_ShortPress_L = CNT_KEY_SHORT + 2; // Для запрета работы коротких нажатий
 8002818:	4b48      	ldr	r3, [pc, #288]	; (800293c <vKeyScan+0x2c0>)
 800281a:	2206      	movs	r2, #6
 800281c:	711a      	strb	r2, [r3, #4]
				Key.Xf_LongPress_L = CNT_LONG_PRESS; // Сброс счета для определения длинного нажатия. Не 0 что бы дейсвия выполнялось быстрее
 800281e:	4b47      	ldr	r3, [pc, #284]	; (800293c <vKeyScan+0x2c0>)
 8002820:	2225      	movs	r2, #37	; 0x25
 8002822:	719a      	strb	r2, [r3, #6]
 8002824:	e005      	b.n	8002832 <vKeyScan+0x1b6>


		}
		else // Если кнопка была отпущена то сбросить все счетчики выдержки
		{
			Key.Xf_ShortPress_L = 0;
 8002826:	4b45      	ldr	r3, [pc, #276]	; (800293c <vKeyScan+0x2c0>)
 8002828:	2200      	movs	r2, #0
 800282a:	711a      	strb	r2, [r3, #4]
			Key.Xf_LongPress_L = 0;
 800282c:	4b43      	ldr	r3, [pc, #268]	; (800293c <vKeyScan+0x2c0>)
 800282e:	2200      	movs	r2, #0
 8002830:	719a      	strb	r2, [r3, #6]
		}

		if (WelderUnit.IndicatorPanel.KeyState[0] == 32)
 8002832:	4b41      	ldr	r3, [pc, #260]	; (8002938 <vKeyScan+0x2bc>)
 8002834:	7f5b      	ldrb	r3, [r3, #29]
 8002836:	2b20      	cmp	r3, #32
 8002838:	d139      	bne.n	80028ae <vKeyScan+0x232>
		{
			// Если времы выдрежки короткого нажатия достигло заданного итервала времени и это нажатие не считается длинным, то нажатие считается кортоким
			if (Key.Xf_ShortPress_R > CNT_KEY_SHORT && Key.Xf_ShortPress_R != CNT_KEY_SHORT + 2)
 800283a:	4b40      	ldr	r3, [pc, #256]	; (800293c <vKeyScan+0x2c0>)
 800283c:	795b      	ldrb	r3, [r3, #5]
 800283e:	2b04      	cmp	r3, #4
 8002840:	d910      	bls.n	8002864 <vKeyScan+0x1e8>
 8002842:	4b3e      	ldr	r3, [pc, #248]	; (800293c <vKeyScan+0x2c0>)
 8002844:	795b      	ldrb	r3, [r3, #5]
 8002846:	2b06      	cmp	r3, #6
 8002848:	d00c      	beq.n	8002864 <vKeyScan+0x1e8>
			{
				// Дейсвие при нажатии на клавишу
				nKeyPressed = press_short_Xf_R;
 800284a:	2307      	movs	r3, #7
 800284c:	73fb      	strb	r3, [r7, #15]
				xQueueSendToBack( qKeyPress, &nKeyPressed, 0 ); // Передача номера нажатой клавиши
 800284e:	4b3c      	ldr	r3, [pc, #240]	; (8002940 <vKeyScan+0x2c4>)
 8002850:	6818      	ldr	r0, [r3, #0]
 8002852:	f107 010f 	add.w	r1, r7, #15
 8002856:	2300      	movs	r3, #0
 8002858:	2200      	movs	r2, #0
 800285a:	f004 fbfb 	bl	8007054 <xQueueGenericSend>


				Key.Xf_ShortPress_R = 0; // Сброс счетика выдержки
 800285e:	4b37      	ldr	r3, [pc, #220]	; (800293c <vKeyScan+0x2c0>)
 8002860:	2200      	movs	r2, #0
 8002862:	715a      	strb	r2, [r3, #5]
			}

			if (Key.Xf_ShortPress_R != CNT_KEY_SHORT + 2) // Если нажатие не считается долгим
 8002864:	4b35      	ldr	r3, [pc, #212]	; (800293c <vKeyScan+0x2c0>)
 8002866:	795b      	ldrb	r3, [r3, #5]
 8002868:	2b06      	cmp	r3, #6
 800286a:	d005      	beq.n	8002878 <vKeyScan+0x1fc>
			{
				Key.Xf_ShortPress_R++; // Счетчик для определения короткого нажатия на кнопку
 800286c:	4b33      	ldr	r3, [pc, #204]	; (800293c <vKeyScan+0x2c0>)
 800286e:	795b      	ldrb	r3, [r3, #5]
 8002870:	3301      	adds	r3, #1
 8002872:	b2da      	uxtb	r2, r3
 8002874:	4b31      	ldr	r3, [pc, #196]	; (800293c <vKeyScan+0x2c0>)
 8002876:	715a      	strb	r2, [r3, #5]
			}


			Key.Xf_LongPress_R++; // Счетчик для определения длинного нажатия на кнопку
 8002878:	4b30      	ldr	r3, [pc, #192]	; (800293c <vKeyScan+0x2c0>)
 800287a:	79db      	ldrb	r3, [r3, #7]
 800287c:	3301      	adds	r3, #1
 800287e:	b2da      	uxtb	r2, r3
 8002880:	4b2e      	ldr	r3, [pc, #184]	; (800293c <vKeyScan+0x2c0>)
 8002882:	71da      	strb	r2, [r3, #7]
			if (Key.Xf_LongPress_R > CNT_KEY_LONG) // Если времы выдрежки длинного нажатия достигло заданного интервала времени, то нажатие считается длинным
 8002884:	4b2d      	ldr	r3, [pc, #180]	; (800293c <vKeyScan+0x2c0>)
 8002886:	79db      	ldrb	r3, [r3, #7]
 8002888:	2b32      	cmp	r3, #50	; 0x32
 800288a:	d916      	bls.n	80028ba <vKeyScan+0x23e>
			{

				// Дейсвие при нажатии на клавишу
				nKeyPressed = press_long_Xf_R;
 800288c:	2308      	movs	r3, #8
 800288e:	73fb      	strb	r3, [r7, #15]
				xQueueSendToBack( qKeyPress, &nKeyPressed, 0 ); // Передача номера нажатой клавиши
 8002890:	4b2b      	ldr	r3, [pc, #172]	; (8002940 <vKeyScan+0x2c4>)
 8002892:	6818      	ldr	r0, [r3, #0]
 8002894:	f107 010f 	add.w	r1, r7, #15
 8002898:	2300      	movs	r3, #0
 800289a:	2200      	movs	r2, #0
 800289c:	f004 fbda 	bl	8007054 <xQueueGenericSend>

				Key.Xf_ShortPress_R = CNT_KEY_SHORT + 2; // Для запрета работы коротких нажатий
 80028a0:	4b26      	ldr	r3, [pc, #152]	; (800293c <vKeyScan+0x2c0>)
 80028a2:	2206      	movs	r2, #6
 80028a4:	715a      	strb	r2, [r3, #5]
				Key.Xf_LongPress_R = CNT_LONG_PRESS; // Сброс счета для определения длинного нажатия. Не 0 что бы дейсвия выполнялось быстрее
 80028a6:	4b25      	ldr	r3, [pc, #148]	; (800293c <vKeyScan+0x2c0>)
 80028a8:	2225      	movs	r2, #37	; 0x25
 80028aa:	71da      	strb	r2, [r3, #7]
 80028ac:	e005      	b.n	80028ba <vKeyScan+0x23e>


		}
		else // Если кнопка была отпущена то сбросить все счетчики выдержки
		{
			Key.Xf_ShortPress_R = 0;
 80028ae:	4b23      	ldr	r3, [pc, #140]	; (800293c <vKeyScan+0x2c0>)
 80028b0:	2200      	movs	r2, #0
 80028b2:	715a      	strb	r2, [r3, #5]
			Key.Xf_LongPress_R = 0;
 80028b4:	4b21      	ldr	r3, [pc, #132]	; (800293c <vKeyScan+0x2c0>)
 80028b6:	2200      	movs	r2, #0
 80028b8:	71da      	strb	r2, [r3, #7]
		}

		if (WelderUnit.IndicatorPanel.KeyState[0] == 8) //ЗАДЕРЖКА (Delay_s): [0], "-" - 8, "+" - 4, , STLED №5;
 80028ba:	4b1f      	ldr	r3, [pc, #124]	; (8002938 <vKeyScan+0x2bc>)
 80028bc:	7f5b      	ldrb	r3, [r3, #29]
 80028be:	2b08      	cmp	r3, #8
 80028c0:	d140      	bne.n	8002944 <vKeyScan+0x2c8>
		{
			// Если времы выдрежки короткого нажатия достигло заданного итервала времени и это нажатие не считается длинным, то нажатие считается кортоким
			if (Key.Delay_s_ShortPress_L > CNT_KEY_SHORT && Key.Delay_s_ShortPress_L != CNT_KEY_SHORT + 2)
 80028c2:	4b1e      	ldr	r3, [pc, #120]	; (800293c <vKeyScan+0x2c0>)
 80028c4:	7a1b      	ldrb	r3, [r3, #8]
 80028c6:	2b04      	cmp	r3, #4
 80028c8:	d910      	bls.n	80028ec <vKeyScan+0x270>
 80028ca:	4b1c      	ldr	r3, [pc, #112]	; (800293c <vKeyScan+0x2c0>)
 80028cc:	7a1b      	ldrb	r3, [r3, #8]
 80028ce:	2b06      	cmp	r3, #6
 80028d0:	d00c      	beq.n	80028ec <vKeyScan+0x270>
			{
				// Дейсвие при нажатии на клавишу
				nKeyPressed = press_short_Delay_s_L;
 80028d2:	2309      	movs	r3, #9
 80028d4:	73fb      	strb	r3, [r7, #15]
				xQueueSendToBack( qKeyPress, &nKeyPressed, 0 ); // Передача номера нажатой клавиши
 80028d6:	4b1a      	ldr	r3, [pc, #104]	; (8002940 <vKeyScan+0x2c4>)
 80028d8:	6818      	ldr	r0, [r3, #0]
 80028da:	f107 010f 	add.w	r1, r7, #15
 80028de:	2300      	movs	r3, #0
 80028e0:	2200      	movs	r2, #0
 80028e2:	f004 fbb7 	bl	8007054 <xQueueGenericSend>

				Key.Delay_s_ShortPress_L = 0; // Сброс счетика выдержки
 80028e6:	4b15      	ldr	r3, [pc, #84]	; (800293c <vKeyScan+0x2c0>)
 80028e8:	2200      	movs	r2, #0
 80028ea:	721a      	strb	r2, [r3, #8]
			}

			if (Key.Delay_s_ShortPress_L != CNT_KEY_SHORT + 2) // Если нажатие не считается долгим
 80028ec:	4b13      	ldr	r3, [pc, #76]	; (800293c <vKeyScan+0x2c0>)
 80028ee:	7a1b      	ldrb	r3, [r3, #8]
 80028f0:	2b06      	cmp	r3, #6
 80028f2:	d005      	beq.n	8002900 <vKeyScan+0x284>
			{
				Key.Delay_s_ShortPress_L++; // Счетчик для определения короткого нажатия на кнопку
 80028f4:	4b11      	ldr	r3, [pc, #68]	; (800293c <vKeyScan+0x2c0>)
 80028f6:	7a1b      	ldrb	r3, [r3, #8]
 80028f8:	3301      	adds	r3, #1
 80028fa:	b2da      	uxtb	r2, r3
 80028fc:	4b0f      	ldr	r3, [pc, #60]	; (800293c <vKeyScan+0x2c0>)
 80028fe:	721a      	strb	r2, [r3, #8]
			}


			Key.Delay_s_LongPress_L++; // Счетчик для определения длинного нажатия на кнопку
 8002900:	4b0e      	ldr	r3, [pc, #56]	; (800293c <vKeyScan+0x2c0>)
 8002902:	7a9b      	ldrb	r3, [r3, #10]
 8002904:	3301      	adds	r3, #1
 8002906:	b2da      	uxtb	r2, r3
 8002908:	4b0c      	ldr	r3, [pc, #48]	; (800293c <vKeyScan+0x2c0>)
 800290a:	729a      	strb	r2, [r3, #10]
			if (Key.Delay_s_LongPress_L > CNT_KEY_LONG) // Если времы выдрежки длинного нажатия достигло заданного интервала времени, то нажатие считается длинным
 800290c:	4b0b      	ldr	r3, [pc, #44]	; (800293c <vKeyScan+0x2c0>)
 800290e:	7a9b      	ldrb	r3, [r3, #10]
 8002910:	2b32      	cmp	r3, #50	; 0x32
 8002912:	d91d      	bls.n	8002950 <vKeyScan+0x2d4>
			{
				// Дейсвие при нажатии на клавишу
				nKeyPressed = press_long_Delay_s_L;
 8002914:	230a      	movs	r3, #10
 8002916:	73fb      	strb	r3, [r7, #15]
				xQueueSendToBack( qKeyPress, &nKeyPressed, 0 ); // Передача номера нажатой клавиши
 8002918:	4b09      	ldr	r3, [pc, #36]	; (8002940 <vKeyScan+0x2c4>)
 800291a:	6818      	ldr	r0, [r3, #0]
 800291c:	f107 010f 	add.w	r1, r7, #15
 8002920:	2300      	movs	r3, #0
 8002922:	2200      	movs	r2, #0
 8002924:	f004 fb96 	bl	8007054 <xQueueGenericSend>

				Key.Delay_s_ShortPress_L = CNT_KEY_SHORT + 2; // Для запрета работы коротких нажатий
 8002928:	4b04      	ldr	r3, [pc, #16]	; (800293c <vKeyScan+0x2c0>)
 800292a:	2206      	movs	r2, #6
 800292c:	721a      	strb	r2, [r3, #8]
				Key.Delay_s_LongPress_L = CNT_LONG_PRESS; // Сброс счета для определения длинного нажатия. Не 0 что бы дейсвия выполнялось быстрее
 800292e:	4b03      	ldr	r3, [pc, #12]	; (800293c <vKeyScan+0x2c0>)
 8002930:	2225      	movs	r2, #37	; 0x25
 8002932:	729a      	strb	r2, [r3, #10]
 8002934:	e00c      	b.n	8002950 <vKeyScan+0x2d4>
 8002936:	bf00      	nop
 8002938:	2000453c 	.word	0x2000453c
 800293c:	20004da0 	.word	0x20004da0
 8002940:	20004d90 	.word	0x20004d90


		}
		else // Если кнопка была отпущена то сбросить все счетчики выдержки
		{
			Key.Delay_s_ShortPress_L = 0;
 8002944:	4ba9      	ldr	r3, [pc, #676]	; (8002bec <vKeyScan+0x570>)
 8002946:	2200      	movs	r2, #0
 8002948:	721a      	strb	r2, [r3, #8]
			Key.Delay_s_LongPress_L = 0;
 800294a:	4ba8      	ldr	r3, [pc, #672]	; (8002bec <vKeyScan+0x570>)
 800294c:	2200      	movs	r2, #0
 800294e:	729a      	strb	r2, [r3, #10]
		}

		if (WelderUnit.IndicatorPanel.KeyState[0] == 4)
 8002950:	4ba7      	ldr	r3, [pc, #668]	; (8002bf0 <vKeyScan+0x574>)
 8002952:	7f5b      	ldrb	r3, [r3, #29]
 8002954:	2b04      	cmp	r3, #4
 8002956:	d139      	bne.n	80029cc <vKeyScan+0x350>
			{
				// Если времы выдрежки короткого нажатия достигло заданного итервала времени и это нажатие не считается длинным, то нажатие считается кортоким
				if (Key.Delay_s_ShortPress_R > CNT_KEY_SHORT && Key.Delay_s_ShortPress_R != CNT_KEY_SHORT + 2)
 8002958:	4ba4      	ldr	r3, [pc, #656]	; (8002bec <vKeyScan+0x570>)
 800295a:	7a5b      	ldrb	r3, [r3, #9]
 800295c:	2b04      	cmp	r3, #4
 800295e:	d910      	bls.n	8002982 <vKeyScan+0x306>
 8002960:	4ba2      	ldr	r3, [pc, #648]	; (8002bec <vKeyScan+0x570>)
 8002962:	7a5b      	ldrb	r3, [r3, #9]
 8002964:	2b06      	cmp	r3, #6
 8002966:	d00c      	beq.n	8002982 <vKeyScan+0x306>
				{
					// Дейсвие при нажатии на клавишу
					nKeyPressed = press_short_Delay_s_R;
 8002968:	230b      	movs	r3, #11
 800296a:	73fb      	strb	r3, [r7, #15]
					xQueueSendToBack( qKeyPress, &nKeyPressed, 0 ); // Передача номера нажатой клавиши
 800296c:	4ba1      	ldr	r3, [pc, #644]	; (8002bf4 <vKeyScan+0x578>)
 800296e:	6818      	ldr	r0, [r3, #0]
 8002970:	f107 010f 	add.w	r1, r7, #15
 8002974:	2300      	movs	r3, #0
 8002976:	2200      	movs	r2, #0
 8002978:	f004 fb6c 	bl	8007054 <xQueueGenericSend>

					Key.Delay_s_ShortPress_R = 0; // Сброс счетика выдержки
 800297c:	4b9b      	ldr	r3, [pc, #620]	; (8002bec <vKeyScan+0x570>)
 800297e:	2200      	movs	r2, #0
 8002980:	725a      	strb	r2, [r3, #9]
				}

				if (Key.Delay_s_ShortPress_R != CNT_KEY_SHORT + 2) // Если нажатие не считается долгим
 8002982:	4b9a      	ldr	r3, [pc, #616]	; (8002bec <vKeyScan+0x570>)
 8002984:	7a5b      	ldrb	r3, [r3, #9]
 8002986:	2b06      	cmp	r3, #6
 8002988:	d005      	beq.n	8002996 <vKeyScan+0x31a>
				{
					Key.Delay_s_ShortPress_R++; // Счетчик для определения короткого нажатия на кнопку
 800298a:	4b98      	ldr	r3, [pc, #608]	; (8002bec <vKeyScan+0x570>)
 800298c:	7a5b      	ldrb	r3, [r3, #9]
 800298e:	3301      	adds	r3, #1
 8002990:	b2da      	uxtb	r2, r3
 8002992:	4b96      	ldr	r3, [pc, #600]	; (8002bec <vKeyScan+0x570>)
 8002994:	725a      	strb	r2, [r3, #9]
				}


				Key.Delay_s_LongPress_R++; // Счетчик для определения длинного нажатия на кнопку
 8002996:	4b95      	ldr	r3, [pc, #596]	; (8002bec <vKeyScan+0x570>)
 8002998:	7adb      	ldrb	r3, [r3, #11]
 800299a:	3301      	adds	r3, #1
 800299c:	b2da      	uxtb	r2, r3
 800299e:	4b93      	ldr	r3, [pc, #588]	; (8002bec <vKeyScan+0x570>)
 80029a0:	72da      	strb	r2, [r3, #11]
				if (Key.Delay_s_LongPress_R > CNT_KEY_LONG) // Если времы выдрежки длинного нажатия достигло заданного интервала времени, то нажатие считается длинным
 80029a2:	4b92      	ldr	r3, [pc, #584]	; (8002bec <vKeyScan+0x570>)
 80029a4:	7adb      	ldrb	r3, [r3, #11]
 80029a6:	2b32      	cmp	r3, #50	; 0x32
 80029a8:	d916      	bls.n	80029d8 <vKeyScan+0x35c>
				{
					// Дейсвие при нажатии на клавишу
					nKeyPressed = press_long_Delay_s_R;
 80029aa:	230c      	movs	r3, #12
 80029ac:	73fb      	strb	r3, [r7, #15]
					xQueueSendToBack( qKeyPress, &nKeyPressed, 0 ); // Передача номера нажатой клавиши
 80029ae:	4b91      	ldr	r3, [pc, #580]	; (8002bf4 <vKeyScan+0x578>)
 80029b0:	6818      	ldr	r0, [r3, #0]
 80029b2:	f107 010f 	add.w	r1, r7, #15
 80029b6:	2300      	movs	r3, #0
 80029b8:	2200      	movs	r2, #0
 80029ba:	f004 fb4b 	bl	8007054 <xQueueGenericSend>

					Key.Delay_s_ShortPress_R = CNT_KEY_SHORT + 2; // Для запрета работы коротких нажатий
 80029be:	4b8b      	ldr	r3, [pc, #556]	; (8002bec <vKeyScan+0x570>)
 80029c0:	2206      	movs	r2, #6
 80029c2:	725a      	strb	r2, [r3, #9]
					Key.Delay_s_LongPress_R = CNT_LONG_PRESS; // Сброс счета для определения длинного нажатия. Не 0 что бы дейсвия выполнялось быстрее
 80029c4:	4b89      	ldr	r3, [pc, #548]	; (8002bec <vKeyScan+0x570>)
 80029c6:	2225      	movs	r2, #37	; 0x25
 80029c8:	72da      	strb	r2, [r3, #11]
 80029ca:	e005      	b.n	80029d8 <vKeyScan+0x35c>


			}
			else // Если кнопка была отпущена то сбросить все счетчики выдержки
			{
				Key.Delay_s_ShortPress_R = 0;
 80029cc:	4b87      	ldr	r3, [pc, #540]	; (8002bec <vKeyScan+0x570>)
 80029ce:	2200      	movs	r2, #0
 80029d0:	725a      	strb	r2, [r3, #9]
				Key.Delay_s_LongPress_R = 0;
 80029d2:	4b86      	ldr	r3, [pc, #536]	; (8002bec <vKeyScan+0x570>)
 80029d4:	2200      	movs	r2, #0
 80029d6:	72da      	strb	r2, [r3, #11]
			}

		if (WelderUnit.IndicatorPanel.KeyState[0] == 2) // СКОРОСТЬ: [0], "-" - 2, "+" - 1, , STLED №5;
 80029d8:	4b85      	ldr	r3, [pc, #532]	; (8002bf0 <vKeyScan+0x574>)
 80029da:	7f5b      	ldrb	r3, [r3, #29]
 80029dc:	2b02      	cmp	r3, #2
 80029de:	d139      	bne.n	8002a54 <vKeyScan+0x3d8>
		{
			// Если времы выдрежки короткого нажатия достигло заданного итервала времени и это нажатие не считается длинным, то нажатие считается кортоким
			if (Key.Speed_ShortPress_L > CNT_KEY_SHORT && Key.Speed_ShortPress_L != CNT_KEY_SHORT + 2)
 80029e0:	4b82      	ldr	r3, [pc, #520]	; (8002bec <vKeyScan+0x570>)
 80029e2:	7b1b      	ldrb	r3, [r3, #12]
 80029e4:	2b04      	cmp	r3, #4
 80029e6:	d910      	bls.n	8002a0a <vKeyScan+0x38e>
 80029e8:	4b80      	ldr	r3, [pc, #512]	; (8002bec <vKeyScan+0x570>)
 80029ea:	7b1b      	ldrb	r3, [r3, #12]
 80029ec:	2b06      	cmp	r3, #6
 80029ee:	d00c      	beq.n	8002a0a <vKeyScan+0x38e>
			{
				// Дейсвие при нажатии на клавишу
				nKeyPressed = press_short_Speed_L;
 80029f0:	230d      	movs	r3, #13
 80029f2:	73fb      	strb	r3, [r7, #15]
				xQueueSendToBack( qKeyPress, &nKeyPressed, 0 ); // Передача номера нажатой клавиши
 80029f4:	4b7f      	ldr	r3, [pc, #508]	; (8002bf4 <vKeyScan+0x578>)
 80029f6:	6818      	ldr	r0, [r3, #0]
 80029f8:	f107 010f 	add.w	r1, r7, #15
 80029fc:	2300      	movs	r3, #0
 80029fe:	2200      	movs	r2, #0
 8002a00:	f004 fb28 	bl	8007054 <xQueueGenericSend>

				Key.Speed_ShortPress_L = 0; // Сброс счетика выдержки
 8002a04:	4b79      	ldr	r3, [pc, #484]	; (8002bec <vKeyScan+0x570>)
 8002a06:	2200      	movs	r2, #0
 8002a08:	731a      	strb	r2, [r3, #12]
			}

			if (Key.Speed_ShortPress_L != CNT_KEY_SHORT + 2) // Если нажатие не считается долгим
 8002a0a:	4b78      	ldr	r3, [pc, #480]	; (8002bec <vKeyScan+0x570>)
 8002a0c:	7b1b      	ldrb	r3, [r3, #12]
 8002a0e:	2b06      	cmp	r3, #6
 8002a10:	d005      	beq.n	8002a1e <vKeyScan+0x3a2>
			{
				Key.Speed_ShortPress_L++; // Счетчик для определения короткого нажатия на кнопку
 8002a12:	4b76      	ldr	r3, [pc, #472]	; (8002bec <vKeyScan+0x570>)
 8002a14:	7b1b      	ldrb	r3, [r3, #12]
 8002a16:	3301      	adds	r3, #1
 8002a18:	b2da      	uxtb	r2, r3
 8002a1a:	4b74      	ldr	r3, [pc, #464]	; (8002bec <vKeyScan+0x570>)
 8002a1c:	731a      	strb	r2, [r3, #12]
			}


			Key.Speed_LongPress_L++; // Счетчик для определения длинного нажатия на кнопку
 8002a1e:	4b73      	ldr	r3, [pc, #460]	; (8002bec <vKeyScan+0x570>)
 8002a20:	7b9b      	ldrb	r3, [r3, #14]
 8002a22:	3301      	adds	r3, #1
 8002a24:	b2da      	uxtb	r2, r3
 8002a26:	4b71      	ldr	r3, [pc, #452]	; (8002bec <vKeyScan+0x570>)
 8002a28:	739a      	strb	r2, [r3, #14]
			if (Key.Speed_LongPress_L > CNT_KEY_LONG) // Если времы выдрежки длинного нажатия достигло заданного интервала времени, то нажатие считается длинным
 8002a2a:	4b70      	ldr	r3, [pc, #448]	; (8002bec <vKeyScan+0x570>)
 8002a2c:	7b9b      	ldrb	r3, [r3, #14]
 8002a2e:	2b32      	cmp	r3, #50	; 0x32
 8002a30:	d916      	bls.n	8002a60 <vKeyScan+0x3e4>
			{

				// Дейсвие при нажатии на клавишу
				nKeyPressed = press_long_Speed_L;
 8002a32:	230e      	movs	r3, #14
 8002a34:	73fb      	strb	r3, [r7, #15]
				xQueueSendToBack( qKeyPress, &nKeyPressed, 0 ); // Передача номера нажатой клавиши
 8002a36:	4b6f      	ldr	r3, [pc, #444]	; (8002bf4 <vKeyScan+0x578>)
 8002a38:	6818      	ldr	r0, [r3, #0]
 8002a3a:	f107 010f 	add.w	r1, r7, #15
 8002a3e:	2300      	movs	r3, #0
 8002a40:	2200      	movs	r2, #0
 8002a42:	f004 fb07 	bl	8007054 <xQueueGenericSend>

				Key.Speed_ShortPress_L = CNT_KEY_SHORT + 2; // Для запрета работы коротких нажатий
 8002a46:	4b69      	ldr	r3, [pc, #420]	; (8002bec <vKeyScan+0x570>)
 8002a48:	2206      	movs	r2, #6
 8002a4a:	731a      	strb	r2, [r3, #12]
				Key.Speed_LongPress_L = CNT_LONG_PRESS; // Сброс счета для определения длинного нажатия. Не 0 что бы дейсвия выполнялось быстрее
 8002a4c:	4b67      	ldr	r3, [pc, #412]	; (8002bec <vKeyScan+0x570>)
 8002a4e:	2225      	movs	r2, #37	; 0x25
 8002a50:	739a      	strb	r2, [r3, #14]
 8002a52:	e005      	b.n	8002a60 <vKeyScan+0x3e4>


		}
		else // Если кнопка была отпущена то сбросить все счетчики выдержки
		{
			Key.Speed_ShortPress_L = 0;
 8002a54:	4b65      	ldr	r3, [pc, #404]	; (8002bec <vKeyScan+0x570>)
 8002a56:	2200      	movs	r2, #0
 8002a58:	731a      	strb	r2, [r3, #12]
			Key.Speed_LongPress_L = 0;
 8002a5a:	4b64      	ldr	r3, [pc, #400]	; (8002bec <vKeyScan+0x570>)
 8002a5c:	2200      	movs	r2, #0
 8002a5e:	739a      	strb	r2, [r3, #14]
		}

		if (WelderUnit.IndicatorPanel.KeyState[0] == 1)
 8002a60:	4b63      	ldr	r3, [pc, #396]	; (8002bf0 <vKeyScan+0x574>)
 8002a62:	7f5b      	ldrb	r3, [r3, #29]
 8002a64:	2b01      	cmp	r3, #1
 8002a66:	d139      	bne.n	8002adc <vKeyScan+0x460>
		{
			// Если времы выдрежки короткого нажатия достигло заданного итервала времени и это нажатие не считается длинным, то нажатие считается кортоким
			if (Key.Speed_ShortPress_R > CNT_KEY_SHORT && Key.Speed_ShortPress_R != CNT_KEY_SHORT + 2)
 8002a68:	4b60      	ldr	r3, [pc, #384]	; (8002bec <vKeyScan+0x570>)
 8002a6a:	7b5b      	ldrb	r3, [r3, #13]
 8002a6c:	2b04      	cmp	r3, #4
 8002a6e:	d910      	bls.n	8002a92 <vKeyScan+0x416>
 8002a70:	4b5e      	ldr	r3, [pc, #376]	; (8002bec <vKeyScan+0x570>)
 8002a72:	7b5b      	ldrb	r3, [r3, #13]
 8002a74:	2b06      	cmp	r3, #6
 8002a76:	d00c      	beq.n	8002a92 <vKeyScan+0x416>
			{
				// Дейсвие при нажатии на клавишу
				nKeyPressed = press_short_Speed_R;
 8002a78:	230f      	movs	r3, #15
 8002a7a:	73fb      	strb	r3, [r7, #15]
				xQueueSendToBack( qKeyPress, &nKeyPressed, 0 ); // Передача номера нажатой клавиши
 8002a7c:	4b5d      	ldr	r3, [pc, #372]	; (8002bf4 <vKeyScan+0x578>)
 8002a7e:	6818      	ldr	r0, [r3, #0]
 8002a80:	f107 010f 	add.w	r1, r7, #15
 8002a84:	2300      	movs	r3, #0
 8002a86:	2200      	movs	r2, #0
 8002a88:	f004 fae4 	bl	8007054 <xQueueGenericSend>

				Key.Speed_ShortPress_R = 0; // Сброс счетика выдержки
 8002a8c:	4b57      	ldr	r3, [pc, #348]	; (8002bec <vKeyScan+0x570>)
 8002a8e:	2200      	movs	r2, #0
 8002a90:	735a      	strb	r2, [r3, #13]
			}

			if (Key.Speed_ShortPress_R != CNT_KEY_SHORT + 2) // Если нажатие не считается долгим
 8002a92:	4b56      	ldr	r3, [pc, #344]	; (8002bec <vKeyScan+0x570>)
 8002a94:	7b5b      	ldrb	r3, [r3, #13]
 8002a96:	2b06      	cmp	r3, #6
 8002a98:	d005      	beq.n	8002aa6 <vKeyScan+0x42a>
			{
				Key.Speed_ShortPress_R++; // Счетчик для определения короткого нажатия на кнопку
 8002a9a:	4b54      	ldr	r3, [pc, #336]	; (8002bec <vKeyScan+0x570>)
 8002a9c:	7b5b      	ldrb	r3, [r3, #13]
 8002a9e:	3301      	adds	r3, #1
 8002aa0:	b2da      	uxtb	r2, r3
 8002aa2:	4b52      	ldr	r3, [pc, #328]	; (8002bec <vKeyScan+0x570>)
 8002aa4:	735a      	strb	r2, [r3, #13]
			}


			Key.Speed_LongPress_R++; // Счетчик для определения длинного нажатия на кнопку
 8002aa6:	4b51      	ldr	r3, [pc, #324]	; (8002bec <vKeyScan+0x570>)
 8002aa8:	7bdb      	ldrb	r3, [r3, #15]
 8002aaa:	3301      	adds	r3, #1
 8002aac:	b2da      	uxtb	r2, r3
 8002aae:	4b4f      	ldr	r3, [pc, #316]	; (8002bec <vKeyScan+0x570>)
 8002ab0:	73da      	strb	r2, [r3, #15]
			if (Key.Speed_LongPress_R > CNT_KEY_LONG) // Если времы выдрежки длинного нажатия достигло заданного интервала времени, то нажатие считается длинным
 8002ab2:	4b4e      	ldr	r3, [pc, #312]	; (8002bec <vKeyScan+0x570>)
 8002ab4:	7bdb      	ldrb	r3, [r3, #15]
 8002ab6:	2b32      	cmp	r3, #50	; 0x32
 8002ab8:	d916      	bls.n	8002ae8 <vKeyScan+0x46c>
			{
				// Дейсвие при нажатии на клавишу
				nKeyPressed = press_long_Speed_R;
 8002aba:	2310      	movs	r3, #16
 8002abc:	73fb      	strb	r3, [r7, #15]
				xQueueSendToBack( qKeyPress, &nKeyPressed, 0 ); // Передача номера нажатой клавиши
 8002abe:	4b4d      	ldr	r3, [pc, #308]	; (8002bf4 <vKeyScan+0x578>)
 8002ac0:	6818      	ldr	r0, [r3, #0]
 8002ac2:	f107 010f 	add.w	r1, r7, #15
 8002ac6:	2300      	movs	r3, #0
 8002ac8:	2200      	movs	r2, #0
 8002aca:	f004 fac3 	bl	8007054 <xQueueGenericSend>

				Key.Speed_ShortPress_R = CNT_KEY_SHORT + 2; // Для запрета работы коротких нажатий
 8002ace:	4b47      	ldr	r3, [pc, #284]	; (8002bec <vKeyScan+0x570>)
 8002ad0:	2206      	movs	r2, #6
 8002ad2:	735a      	strb	r2, [r3, #13]
				Key.Speed_LongPress_R = CNT_LONG_PRESS; // Сброс счета для определения длинного нажатия. Не 0 что бы дейсвия выполнялось быстрее
 8002ad4:	4b45      	ldr	r3, [pc, #276]	; (8002bec <vKeyScan+0x570>)
 8002ad6:	2225      	movs	r2, #37	; 0x25
 8002ad8:	73da      	strb	r2, [r3, #15]
 8002ada:	e005      	b.n	8002ae8 <vKeyScan+0x46c>


		}
		else // Если кнопка была отпущена то сбросить все счетчики выдержки
		{
			Key.Speed_ShortPress_R = 0;
 8002adc:	4b43      	ldr	r3, [pc, #268]	; (8002bec <vKeyScan+0x570>)
 8002ade:	2200      	movs	r2, #0
 8002ae0:	735a      	strb	r2, [r3, #13]
			Key.Speed_LongPress_R = 0;
 8002ae2:	4b42      	ldr	r3, [pc, #264]	; (8002bec <vKeyScan+0x570>)
 8002ae4:	2200      	movs	r2, #0
 8002ae6:	73da      	strb	r2, [r3, #15]
		}

		if (WelderUnit.IndicatorPanel.KeyState[1] == 1) // ЗАДЕРЖКА (Delay_f): [1], "-" - 1, "+" - 4, , STLED №5;
 8002ae8:	4b41      	ldr	r3, [pc, #260]	; (8002bf0 <vKeyScan+0x574>)
 8002aea:	7f9b      	ldrb	r3, [r3, #30]
 8002aec:	2b01      	cmp	r3, #1
 8002aee:	d139      	bne.n	8002b64 <vKeyScan+0x4e8>
		{
			// Если времы выдрежки короткого нажатия достигло заданного итервала времени и это нажатие не считается длинным, то нажатие считается кортоким
			if (Key.Delay_f_ShortPress_L > CNT_KEY_SHORT && Key.Delay_f_ShortPress_L != CNT_KEY_SHORT + 2)
 8002af0:	4b3e      	ldr	r3, [pc, #248]	; (8002bec <vKeyScan+0x570>)
 8002af2:	7c1b      	ldrb	r3, [r3, #16]
 8002af4:	2b04      	cmp	r3, #4
 8002af6:	d910      	bls.n	8002b1a <vKeyScan+0x49e>
 8002af8:	4b3c      	ldr	r3, [pc, #240]	; (8002bec <vKeyScan+0x570>)
 8002afa:	7c1b      	ldrb	r3, [r3, #16]
 8002afc:	2b06      	cmp	r3, #6
 8002afe:	d00c      	beq.n	8002b1a <vKeyScan+0x49e>
			{
				// Дейсвие при нажатии на клавишу
				nKeyPressed = press_short_Delay_f_L;
 8002b00:	2311      	movs	r3, #17
 8002b02:	73fb      	strb	r3, [r7, #15]
				xQueueSendToBack( qKeyPress, &nKeyPressed, 0 ); // Передача номера нажатой клавиши
 8002b04:	4b3b      	ldr	r3, [pc, #236]	; (8002bf4 <vKeyScan+0x578>)
 8002b06:	6818      	ldr	r0, [r3, #0]
 8002b08:	f107 010f 	add.w	r1, r7, #15
 8002b0c:	2300      	movs	r3, #0
 8002b0e:	2200      	movs	r2, #0
 8002b10:	f004 faa0 	bl	8007054 <xQueueGenericSend>

				Key.Delay_f_ShortPress_L = 0; // Сброс счетика выдержки
 8002b14:	4b35      	ldr	r3, [pc, #212]	; (8002bec <vKeyScan+0x570>)
 8002b16:	2200      	movs	r2, #0
 8002b18:	741a      	strb	r2, [r3, #16]
			}

			if (Key.Delay_f_ShortPress_L != CNT_KEY_SHORT + 2) // Если нажатие не считается долгим
 8002b1a:	4b34      	ldr	r3, [pc, #208]	; (8002bec <vKeyScan+0x570>)
 8002b1c:	7c1b      	ldrb	r3, [r3, #16]
 8002b1e:	2b06      	cmp	r3, #6
 8002b20:	d005      	beq.n	8002b2e <vKeyScan+0x4b2>
			{
				Key.Delay_f_ShortPress_L++; // Счетчик для определения короткого нажатия на кнопку
 8002b22:	4b32      	ldr	r3, [pc, #200]	; (8002bec <vKeyScan+0x570>)
 8002b24:	7c1b      	ldrb	r3, [r3, #16]
 8002b26:	3301      	adds	r3, #1
 8002b28:	b2da      	uxtb	r2, r3
 8002b2a:	4b30      	ldr	r3, [pc, #192]	; (8002bec <vKeyScan+0x570>)
 8002b2c:	741a      	strb	r2, [r3, #16]
			}


			Key.Delay_f_LongPress_L++; // Счетчик для определения длинного нажатия на кнопку
 8002b2e:	4b2f      	ldr	r3, [pc, #188]	; (8002bec <vKeyScan+0x570>)
 8002b30:	7c9b      	ldrb	r3, [r3, #18]
 8002b32:	3301      	adds	r3, #1
 8002b34:	b2da      	uxtb	r2, r3
 8002b36:	4b2d      	ldr	r3, [pc, #180]	; (8002bec <vKeyScan+0x570>)
 8002b38:	749a      	strb	r2, [r3, #18]
			if (Key.Delay_f_LongPress_L > CNT_KEY_LONG) // Если времы выдрежки длинного нажатия достигло заданного интервала времени, то нажатие считается длинным
 8002b3a:	4b2c      	ldr	r3, [pc, #176]	; (8002bec <vKeyScan+0x570>)
 8002b3c:	7c9b      	ldrb	r3, [r3, #18]
 8002b3e:	2b32      	cmp	r3, #50	; 0x32
 8002b40:	d916      	bls.n	8002b70 <vKeyScan+0x4f4>
			{
				// Дейсвие при нажатии на клавишу
				nKeyPressed = press_long_Delay_f_L;
 8002b42:	2312      	movs	r3, #18
 8002b44:	73fb      	strb	r3, [r7, #15]
				xQueueSendToBack( qKeyPress, &nKeyPressed, 0 ); // Передача номера нажатой клавиши
 8002b46:	4b2b      	ldr	r3, [pc, #172]	; (8002bf4 <vKeyScan+0x578>)
 8002b48:	6818      	ldr	r0, [r3, #0]
 8002b4a:	f107 010f 	add.w	r1, r7, #15
 8002b4e:	2300      	movs	r3, #0
 8002b50:	2200      	movs	r2, #0
 8002b52:	f004 fa7f 	bl	8007054 <xQueueGenericSend>


				Key.Delay_f_ShortPress_L = CNT_KEY_SHORT + 2; // Для запрета работы коротких нажатий
 8002b56:	4b25      	ldr	r3, [pc, #148]	; (8002bec <vKeyScan+0x570>)
 8002b58:	2206      	movs	r2, #6
 8002b5a:	741a      	strb	r2, [r3, #16]
				Key.Delay_f_LongPress_L = CNT_LONG_PRESS; // Сброс счета для определения длинного нажатия. Не 0 что бы дейсвия выполнялось быстрее
 8002b5c:	4b23      	ldr	r3, [pc, #140]	; (8002bec <vKeyScan+0x570>)
 8002b5e:	2225      	movs	r2, #37	; 0x25
 8002b60:	749a      	strb	r2, [r3, #18]
 8002b62:	e005      	b.n	8002b70 <vKeyScan+0x4f4>


		}
		else // Если кнопка была отпущена то сбросить все счетчики выдержки
		{
			Key.Delay_f_ShortPress_L = 0;
 8002b64:	4b21      	ldr	r3, [pc, #132]	; (8002bec <vKeyScan+0x570>)
 8002b66:	2200      	movs	r2, #0
 8002b68:	741a      	strb	r2, [r3, #16]
			Key.Delay_f_LongPress_L = 0;
 8002b6a:	4b20      	ldr	r3, [pc, #128]	; (8002bec <vKeyScan+0x570>)
 8002b6c:	2200      	movs	r2, #0
 8002b6e:	749a      	strb	r2, [r3, #18]
		}

		if (WelderUnit.IndicatorPanel.KeyState[1] == 4)
 8002b70:	4b1f      	ldr	r3, [pc, #124]	; (8002bf0 <vKeyScan+0x574>)
 8002b72:	7f9b      	ldrb	r3, [r3, #30]
 8002b74:	2b04      	cmp	r3, #4
 8002b76:	d13f      	bne.n	8002bf8 <vKeyScan+0x57c>
		{
			// Если времы выдрежки короткого нажатия достигло заданного итервала времени и это нажатие не считается длинным, то нажатие считается кортоким
			if (Key.Delay_f_ShortPress_R > CNT_KEY_SHORT && Key.Delay_f_ShortPress_R != CNT_KEY_SHORT + 2)
 8002b78:	4b1c      	ldr	r3, [pc, #112]	; (8002bec <vKeyScan+0x570>)
 8002b7a:	7c5b      	ldrb	r3, [r3, #17]
 8002b7c:	2b04      	cmp	r3, #4
 8002b7e:	d910      	bls.n	8002ba2 <vKeyScan+0x526>
 8002b80:	4b1a      	ldr	r3, [pc, #104]	; (8002bec <vKeyScan+0x570>)
 8002b82:	7c5b      	ldrb	r3, [r3, #17]
 8002b84:	2b06      	cmp	r3, #6
 8002b86:	d00c      	beq.n	8002ba2 <vKeyScan+0x526>
			{
				// Дейсвие при нажатии на клавишу
				nKeyPressed = press_short_Delay_f_R;
 8002b88:	2313      	movs	r3, #19
 8002b8a:	73fb      	strb	r3, [r7, #15]
				xQueueSendToBack( qKeyPress, &nKeyPressed, 0 ); // Передача номера нажатой клавиши
 8002b8c:	4b19      	ldr	r3, [pc, #100]	; (8002bf4 <vKeyScan+0x578>)
 8002b8e:	6818      	ldr	r0, [r3, #0]
 8002b90:	f107 010f 	add.w	r1, r7, #15
 8002b94:	2300      	movs	r3, #0
 8002b96:	2200      	movs	r2, #0
 8002b98:	f004 fa5c 	bl	8007054 <xQueueGenericSend>

				Key.Delay_f_ShortPress_R = 0; // Сброс счетика выдержки
 8002b9c:	4b13      	ldr	r3, [pc, #76]	; (8002bec <vKeyScan+0x570>)
 8002b9e:	2200      	movs	r2, #0
 8002ba0:	745a      	strb	r2, [r3, #17]
			}

			if (Key.Delay_f_ShortPress_R != CNT_KEY_SHORT + 2) // Если нажатие не считается долгим
 8002ba2:	4b12      	ldr	r3, [pc, #72]	; (8002bec <vKeyScan+0x570>)
 8002ba4:	7c5b      	ldrb	r3, [r3, #17]
 8002ba6:	2b06      	cmp	r3, #6
 8002ba8:	d005      	beq.n	8002bb6 <vKeyScan+0x53a>
			{
				Key.Delay_f_ShortPress_R++; // Счетчик для определения короткого нажатия на кнопку
 8002baa:	4b10      	ldr	r3, [pc, #64]	; (8002bec <vKeyScan+0x570>)
 8002bac:	7c5b      	ldrb	r3, [r3, #17]
 8002bae:	3301      	adds	r3, #1
 8002bb0:	b2da      	uxtb	r2, r3
 8002bb2:	4b0e      	ldr	r3, [pc, #56]	; (8002bec <vKeyScan+0x570>)
 8002bb4:	745a      	strb	r2, [r3, #17]
			}


			Key.Delay_f_LongPress_R++; // Счетчик для определения длинного нажатия на кнопку
 8002bb6:	4b0d      	ldr	r3, [pc, #52]	; (8002bec <vKeyScan+0x570>)
 8002bb8:	7cdb      	ldrb	r3, [r3, #19]
 8002bba:	3301      	adds	r3, #1
 8002bbc:	b2da      	uxtb	r2, r3
 8002bbe:	4b0b      	ldr	r3, [pc, #44]	; (8002bec <vKeyScan+0x570>)
 8002bc0:	74da      	strb	r2, [r3, #19]
			if (Key.Delay_f_LongPress_R > CNT_KEY_LONG) // Если времы выдрежки длинного нажатия достигло заданного интервала времени, то нажатие считается длинным
 8002bc2:	4b0a      	ldr	r3, [pc, #40]	; (8002bec <vKeyScan+0x570>)
 8002bc4:	7cdb      	ldrb	r3, [r3, #19]
 8002bc6:	2b32      	cmp	r3, #50	; 0x32
 8002bc8:	d91c      	bls.n	8002c04 <vKeyScan+0x588>
			{
				// Дейсвие при нажатии на клавишу
				nKeyPressed = press_long_Delay_f_R;
 8002bca:	2314      	movs	r3, #20
 8002bcc:	73fb      	strb	r3, [r7, #15]
				xQueueSendToBack( qKeyPress, &nKeyPressed, 0 ); // Передача номера нажатой клавиши
 8002bce:	4b09      	ldr	r3, [pc, #36]	; (8002bf4 <vKeyScan+0x578>)
 8002bd0:	6818      	ldr	r0, [r3, #0]
 8002bd2:	f107 010f 	add.w	r1, r7, #15
 8002bd6:	2300      	movs	r3, #0
 8002bd8:	2200      	movs	r2, #0
 8002bda:	f004 fa3b 	bl	8007054 <xQueueGenericSend>

				Key.Delay_f_ShortPress_R = CNT_KEY_SHORT + 2; // Для запрета работы коротких нажатий
 8002bde:	4b03      	ldr	r3, [pc, #12]	; (8002bec <vKeyScan+0x570>)
 8002be0:	2206      	movs	r2, #6
 8002be2:	745a      	strb	r2, [r3, #17]
				Key.Delay_f_LongPress_R = CNT_LONG_PRESS; // Сброс счета для определения длинного нажатия. Не 0 что бы дейсвия выполнялось быстрее
 8002be4:	4b01      	ldr	r3, [pc, #4]	; (8002bec <vKeyScan+0x570>)
 8002be6:	2225      	movs	r2, #37	; 0x25
 8002be8:	74da      	strb	r2, [r3, #19]
 8002bea:	e00b      	b.n	8002c04 <vKeyScan+0x588>
 8002bec:	20004da0 	.word	0x20004da0
 8002bf0:	2000453c 	.word	0x2000453c
 8002bf4:	20004d90 	.word	0x20004d90


		}
		else // Если кнопка была отпущена то сбросить все счетчики выдержки
		{
			Key.Delay_f_ShortPress_R = 0;
 8002bf8:	4b90      	ldr	r3, [pc, #576]	; (8002e3c <vKeyScan+0x7c0>)
 8002bfa:	2200      	movs	r2, #0
 8002bfc:	745a      	strb	r2, [r3, #17]
			Key.Delay_f_LongPress_R = 0;
 8002bfe:	4b8f      	ldr	r3, [pc, #572]	; (8002e3c <vKeyScan+0x7c0>)
 8002c00:	2200      	movs	r2, #0
 8002c02:	74da      	strb	r2, [r3, #19]
		}

		if (WelderUnit.IndicatorPanel.KeyState[3] == 1 && !(WelderUnit.IndicatorPanel.KeyState[1] == 2)) // ВЛЕВО: [0], "-" - 128, "+" - 64, , STLED №5; ПРОГРАММА: [1], "-" - ..., "+" - 2, , STLED №5;
 8002c04:	4b8e      	ldr	r3, [pc, #568]	; (8002e40 <vKeyScan+0x7c4>)
 8002c06:	f893 3020 	ldrb.w	r3, [r3, #32]
 8002c0a:	2b01      	cmp	r3, #1
 8002c0c:	d133      	bne.n	8002c76 <vKeyScan+0x5fa>
 8002c0e:	4b8c      	ldr	r3, [pc, #560]	; (8002e40 <vKeyScan+0x7c4>)
 8002c10:	7f9b      	ldrb	r3, [r3, #30]
 8002c12:	2b02      	cmp	r3, #2
 8002c14:	d02f      	beq.n	8002c76 <vKeyScan+0x5fa>
		{
			// Если времы выдрежки короткого нажатия достигло заданного итервала времени и это нажатие не считается длинным, то нажатие считается кортоким
			if (Key.Program_ShortPress_L > CNT_KEY_SHORT && Key.Program_ShortPress_L != CNT_KEY_SHORT + 2)
 8002c16:	4b89      	ldr	r3, [pc, #548]	; (8002e3c <vKeyScan+0x7c0>)
 8002c18:	7d1b      	ldrb	r3, [r3, #20]
 8002c1a:	2b04      	cmp	r3, #4
 8002c1c:	d906      	bls.n	8002c2c <vKeyScan+0x5b0>
 8002c1e:	4b87      	ldr	r3, [pc, #540]	; (8002e3c <vKeyScan+0x7c0>)
 8002c20:	7d1b      	ldrb	r3, [r3, #20]
 8002c22:	2b06      	cmp	r3, #6
 8002c24:	d002      	beq.n	8002c2c <vKeyScan+0x5b0>
			{
				// Дейсвие при нажатии на клавишу
//				nKeyPressed = press_short_Program_L;
//				xQueueSendToBack( qKeyPress, &nKeyPressed, 0 ); // Передача номера нажатой клавиши

				Key.Program_ShortPress_L = CNT_KEY_SHORT + 3; // Сброс счетика выдержки
 8002c26:	4b85      	ldr	r3, [pc, #532]	; (8002e3c <vKeyScan+0x7c0>)
 8002c28:	2207      	movs	r2, #7
 8002c2a:	751a      	strb	r2, [r3, #20]
			}

			if (Key.Program_ShortPress_L != CNT_KEY_SHORT + 2) // Если нажатие не считается долгим
 8002c2c:	4b83      	ldr	r3, [pc, #524]	; (8002e3c <vKeyScan+0x7c0>)
 8002c2e:	7d1b      	ldrb	r3, [r3, #20]
 8002c30:	2b06      	cmp	r3, #6
 8002c32:	d005      	beq.n	8002c40 <vKeyScan+0x5c4>
			{
				Key.Program_ShortPress_L++; // Счетчик для определения короткого нажатия на кнопку
 8002c34:	4b81      	ldr	r3, [pc, #516]	; (8002e3c <vKeyScan+0x7c0>)
 8002c36:	7d1b      	ldrb	r3, [r3, #20]
 8002c38:	3301      	adds	r3, #1
 8002c3a:	b2da      	uxtb	r2, r3
 8002c3c:	4b7f      	ldr	r3, [pc, #508]	; (8002e3c <vKeyScan+0x7c0>)
 8002c3e:	751a      	strb	r2, [r3, #20]
			}


			Key.Program_LongPress_L++; // Счетчик для определения длинного нажатия на кнопку
 8002c40:	4b7e      	ldr	r3, [pc, #504]	; (8002e3c <vKeyScan+0x7c0>)
 8002c42:	7d9b      	ldrb	r3, [r3, #22]
 8002c44:	3301      	adds	r3, #1
 8002c46:	b2da      	uxtb	r2, r3
 8002c48:	4b7c      	ldr	r3, [pc, #496]	; (8002e3c <vKeyScan+0x7c0>)
 8002c4a:	759a      	strb	r2, [r3, #22]
			if (Key.Program_LongPress_L > CNT_KEY_LONG) // Если времы выдрежки длинного нажатия достигло заданного интервала времени, то нажатие считается длинным
 8002c4c:	4b7b      	ldr	r3, [pc, #492]	; (8002e3c <vKeyScan+0x7c0>)
 8002c4e:	7d9b      	ldrb	r3, [r3, #22]
 8002c50:	2b32      	cmp	r3, #50	; 0x32
 8002c52:	d924      	bls.n	8002c9e <vKeyScan+0x622>
			{
				// Дейсвие при нажатии на клавишу
				nKeyPressed = press_long_Program_L;
 8002c54:	2316      	movs	r3, #22
 8002c56:	73fb      	strb	r3, [r7, #15]
				xQueueSendToBack( qKeyPress, &nKeyPressed, 0 ); // Передача номера нажатой клавиши
 8002c58:	4b7a      	ldr	r3, [pc, #488]	; (8002e44 <vKeyScan+0x7c8>)
 8002c5a:	6818      	ldr	r0, [r3, #0]
 8002c5c:	f107 010f 	add.w	r1, r7, #15
 8002c60:	2300      	movs	r3, #0
 8002c62:	2200      	movs	r2, #0
 8002c64:	f004 f9f6 	bl	8007054 <xQueueGenericSend>

				Key.Program_ShortPress_L = CNT_KEY_SHORT + 2; // Для запрета работы коротких нажатий
 8002c68:	4b74      	ldr	r3, [pc, #464]	; (8002e3c <vKeyScan+0x7c0>)
 8002c6a:	2206      	movs	r2, #6
 8002c6c:	751a      	strb	r2, [r3, #20]
				Key.Program_LongPress_L = CNT_LONG_PRESS; // Сброс счета для определения длинного нажатия. Не 0 что бы дейсвия выполнялось быстрее
 8002c6e:	4b73      	ldr	r3, [pc, #460]	; (8002e3c <vKeyScan+0x7c0>)
 8002c70:	2225      	movs	r2, #37	; 0x25
 8002c72:	759a      	strb	r2, [r3, #22]
			if (Key.Program_LongPress_L > CNT_KEY_LONG) // Если времы выдрежки длинного нажатия достигло заданного интервала времени, то нажатие считается длинным
 8002c74:	e013      	b.n	8002c9e <vKeyScan+0x622>


		}
		else // Если кнопка была отпущена то сбросить все счетчики выдержки
		{
			if (Key.Program_ShortPress_L >= CNT_KEY_SHORT + 3) // Дейсвия при отжатии кнопки
 8002c76:	4b71      	ldr	r3, [pc, #452]	; (8002e3c <vKeyScan+0x7c0>)
 8002c78:	7d1b      	ldrb	r3, [r3, #20]
 8002c7a:	2b06      	cmp	r3, #6
 8002c7c:	d909      	bls.n	8002c92 <vKeyScan+0x616>
			{
				nKeyPressed = press_short_Program_L;
 8002c7e:	2315      	movs	r3, #21
 8002c80:	73fb      	strb	r3, [r7, #15]
				xQueueSendToBack( qKeyPress, &nKeyPressed, 0 ); // Передача номера нажатой клавиши
 8002c82:	4b70      	ldr	r3, [pc, #448]	; (8002e44 <vKeyScan+0x7c8>)
 8002c84:	6818      	ldr	r0, [r3, #0]
 8002c86:	f107 010f 	add.w	r1, r7, #15
 8002c8a:	2300      	movs	r3, #0
 8002c8c:	2200      	movs	r2, #0
 8002c8e:	f004 f9e1 	bl	8007054 <xQueueGenericSend>
			}

			Key.Program_ShortPress_L = 0;
 8002c92:	4b6a      	ldr	r3, [pc, #424]	; (8002e3c <vKeyScan+0x7c0>)
 8002c94:	2200      	movs	r2, #0
 8002c96:	751a      	strb	r2, [r3, #20]
			Key.Program_LongPress_L = 0;
 8002c98:	4b68      	ldr	r3, [pc, #416]	; (8002e3c <vKeyScan+0x7c0>)
 8002c9a:	2200      	movs	r2, #0
 8002c9c:	759a      	strb	r2, [r3, #22]
		}

		if (WelderUnit.IndicatorPanel.KeyState[1] == 2 && !(WelderUnit.IndicatorPanel.KeyState[3] == 1))
 8002c9e:	4b68      	ldr	r3, [pc, #416]	; (8002e40 <vKeyScan+0x7c4>)
 8002ca0:	7f9b      	ldrb	r3, [r3, #30]
 8002ca2:	2b02      	cmp	r3, #2
 8002ca4:	d134      	bne.n	8002d10 <vKeyScan+0x694>
 8002ca6:	4b66      	ldr	r3, [pc, #408]	; (8002e40 <vKeyScan+0x7c4>)
 8002ca8:	f893 3020 	ldrb.w	r3, [r3, #32]
 8002cac:	2b01      	cmp	r3, #1
 8002cae:	d02f      	beq.n	8002d10 <vKeyScan+0x694>
		{
			// Если времы выдрежки короткого нажатия достигло заданного итервала времени и это нажатие не считается длинным, то нажатие считается кортоким
			if (Key.Program_ShortPress_R > CNT_KEY_SHORT && Key.Program_ShortPress_R != CNT_KEY_SHORT + 2)
 8002cb0:	4b62      	ldr	r3, [pc, #392]	; (8002e3c <vKeyScan+0x7c0>)
 8002cb2:	7d5b      	ldrb	r3, [r3, #21]
 8002cb4:	2b04      	cmp	r3, #4
 8002cb6:	d906      	bls.n	8002cc6 <vKeyScan+0x64a>
 8002cb8:	4b60      	ldr	r3, [pc, #384]	; (8002e3c <vKeyScan+0x7c0>)
 8002cba:	7d5b      	ldrb	r3, [r3, #21]
 8002cbc:	2b06      	cmp	r3, #6
 8002cbe:	d002      	beq.n	8002cc6 <vKeyScan+0x64a>
			{
				// Дейсвие при нажатии на клавишу
//				nKeyPressed = press_short_Program_R;
//				xQueueSendToBack( qKeyPress, &nKeyPressed, 0 ); // Передача номера нажатой клавиши

				Key.Program_ShortPress_R = CNT_KEY_SHORT + 3; // Сброс счетика выдержки
 8002cc0:	4b5e      	ldr	r3, [pc, #376]	; (8002e3c <vKeyScan+0x7c0>)
 8002cc2:	2207      	movs	r2, #7
 8002cc4:	755a      	strb	r2, [r3, #21]
			}

			if (Key.Program_ShortPress_R != CNT_KEY_SHORT + 2) // Если нажатие не считается долгим
 8002cc6:	4b5d      	ldr	r3, [pc, #372]	; (8002e3c <vKeyScan+0x7c0>)
 8002cc8:	7d5b      	ldrb	r3, [r3, #21]
 8002cca:	2b06      	cmp	r3, #6
 8002ccc:	d005      	beq.n	8002cda <vKeyScan+0x65e>
			{
				Key.Program_ShortPress_R++; // Счетчик для определения короткого нажатия на кнопку
 8002cce:	4b5b      	ldr	r3, [pc, #364]	; (8002e3c <vKeyScan+0x7c0>)
 8002cd0:	7d5b      	ldrb	r3, [r3, #21]
 8002cd2:	3301      	adds	r3, #1
 8002cd4:	b2da      	uxtb	r2, r3
 8002cd6:	4b59      	ldr	r3, [pc, #356]	; (8002e3c <vKeyScan+0x7c0>)
 8002cd8:	755a      	strb	r2, [r3, #21]
			}


			Key.Program_LongPress_R++; // Счетчик для определения длинного нажатия на кнопку
 8002cda:	4b58      	ldr	r3, [pc, #352]	; (8002e3c <vKeyScan+0x7c0>)
 8002cdc:	7ddb      	ldrb	r3, [r3, #23]
 8002cde:	3301      	adds	r3, #1
 8002ce0:	b2da      	uxtb	r2, r3
 8002ce2:	4b56      	ldr	r3, [pc, #344]	; (8002e3c <vKeyScan+0x7c0>)
 8002ce4:	75da      	strb	r2, [r3, #23]
			if (Key.Program_LongPress_R > CNT_KEY_LONG) // Если времы выдрежки длинного нажатия достигло заданного интервала времени, то нажатие считается длинным
 8002ce6:	4b55      	ldr	r3, [pc, #340]	; (8002e3c <vKeyScan+0x7c0>)
 8002ce8:	7ddb      	ldrb	r3, [r3, #23]
 8002cea:	2b32      	cmp	r3, #50	; 0x32
 8002cec:	d924      	bls.n	8002d38 <vKeyScan+0x6bc>
			{
				// Дейсвие при нажатии на клавишу
				nKeyPressed = press_long_Program_R;
 8002cee:	2318      	movs	r3, #24
 8002cf0:	73fb      	strb	r3, [r7, #15]
				xQueueSendToBack( qKeyPress, &nKeyPressed, 0 ); // Передача номера нажатой клавиши
 8002cf2:	4b54      	ldr	r3, [pc, #336]	; (8002e44 <vKeyScan+0x7c8>)
 8002cf4:	6818      	ldr	r0, [r3, #0]
 8002cf6:	f107 010f 	add.w	r1, r7, #15
 8002cfa:	2300      	movs	r3, #0
 8002cfc:	2200      	movs	r2, #0
 8002cfe:	f004 f9a9 	bl	8007054 <xQueueGenericSend>

				Key.Program_ShortPress_R = CNT_KEY_SHORT + 2; // Для запрета работы коротких нажатий
 8002d02:	4b4e      	ldr	r3, [pc, #312]	; (8002e3c <vKeyScan+0x7c0>)
 8002d04:	2206      	movs	r2, #6
 8002d06:	755a      	strb	r2, [r3, #21]
				Key.Program_LongPress_R = CNT_LONG_PRESS; // Сброс счета для определения длинного нажатия. Не 0 что бы дейсвия выполнялось быстрее
 8002d08:	4b4c      	ldr	r3, [pc, #304]	; (8002e3c <vKeyScan+0x7c0>)
 8002d0a:	2225      	movs	r2, #37	; 0x25
 8002d0c:	75da      	strb	r2, [r3, #23]
			if (Key.Program_LongPress_R > CNT_KEY_LONG) // Если времы выдрежки длинного нажатия достигло заданного интервала времени, то нажатие считается длинным
 8002d0e:	e013      	b.n	8002d38 <vKeyScan+0x6bc>


		}
		else // Если кнопка была отпущена то сбросить все счетчики выдержки
		{
			if (Key.Program_ShortPress_R >= CNT_KEY_SHORT + 3) // Дейсвия при отжатии кнопки
 8002d10:	4b4a      	ldr	r3, [pc, #296]	; (8002e3c <vKeyScan+0x7c0>)
 8002d12:	7d5b      	ldrb	r3, [r3, #21]
 8002d14:	2b06      	cmp	r3, #6
 8002d16:	d909      	bls.n	8002d2c <vKeyScan+0x6b0>
			{
				nKeyPressed = press_short_Program_R;
 8002d18:	2317      	movs	r3, #23
 8002d1a:	73fb      	strb	r3, [r7, #15]
				xQueueSendToBack( qKeyPress, &nKeyPressed, 0 ); // Передача номера нажатой клавиши
 8002d1c:	4b49      	ldr	r3, [pc, #292]	; (8002e44 <vKeyScan+0x7c8>)
 8002d1e:	6818      	ldr	r0, [r3, #0]
 8002d20:	f107 010f 	add.w	r1, r7, #15
 8002d24:	2300      	movs	r3, #0
 8002d26:	2200      	movs	r2, #0
 8002d28:	f004 f994 	bl	8007054 <xQueueGenericSend>
			}

			Key.Program_ShortPress_R = 0;
 8002d2c:	4b43      	ldr	r3, [pc, #268]	; (8002e3c <vKeyScan+0x7c0>)
 8002d2e:	2200      	movs	r2, #0
 8002d30:	755a      	strb	r2, [r3, #21]
			Key.Program_LongPress_R = 0;
 8002d32:	4b42      	ldr	r3, [pc, #264]	; (8002e3c <vKeyScan+0x7c0>)
 8002d34:	2200      	movs	r2, #0
 8002d36:	75da      	strb	r2, [r3, #23]
		}



		if (WelderUnit.IndicatorPanel.KeyState[1] == 128) //ВВЕРХ, ВНИЗ: [1], "-" - 128, "+" - 64, , STLED №5;
 8002d38:	4b41      	ldr	r3, [pc, #260]	; (8002e40 <vKeyScan+0x7c4>)
 8002d3a:	7f9b      	ldrb	r3, [r3, #30]
 8002d3c:	2b80      	cmp	r3, #128	; 0x80
 8002d3e:	d139      	bne.n	8002db4 <vKeyScan+0x738>
		{
			// Если времы выдрежки короткого нажатия достигло заданного итервала времени и это нажатие не считается длинным, то нажатие считается кортоким
			if (Key.Up_ShortPress > CNT_KEY_SHORT && Key.Up_ShortPress != CNT_KEY_SHORT + 2)
 8002d40:	4b3e      	ldr	r3, [pc, #248]	; (8002e3c <vKeyScan+0x7c0>)
 8002d42:	7e9b      	ldrb	r3, [r3, #26]
 8002d44:	2b04      	cmp	r3, #4
 8002d46:	d910      	bls.n	8002d6a <vKeyScan+0x6ee>
 8002d48:	4b3c      	ldr	r3, [pc, #240]	; (8002e3c <vKeyScan+0x7c0>)
 8002d4a:	7e9b      	ldrb	r3, [r3, #26]
 8002d4c:	2b06      	cmp	r3, #6
 8002d4e:	d00c      	beq.n	8002d6a <vKeyScan+0x6ee>
			{
				// Дейсвие при нажатии на клавишу
				nKeyPressed = press_short_Up;
 8002d50:	2323      	movs	r3, #35	; 0x23
 8002d52:	73fb      	strb	r3, [r7, #15]
				xQueueSendToBack( qKeyPress, &nKeyPressed, 0 ); // Передача номера нажатой клавиши
 8002d54:	4b3b      	ldr	r3, [pc, #236]	; (8002e44 <vKeyScan+0x7c8>)
 8002d56:	6818      	ldr	r0, [r3, #0]
 8002d58:	f107 010f 	add.w	r1, r7, #15
 8002d5c:	2300      	movs	r3, #0
 8002d5e:	2200      	movs	r2, #0
 8002d60:	f004 f978 	bl	8007054 <xQueueGenericSend>

				Key.Up_ShortPress = 0; // Сброс счетика выдержки
 8002d64:	4b35      	ldr	r3, [pc, #212]	; (8002e3c <vKeyScan+0x7c0>)
 8002d66:	2200      	movs	r2, #0
 8002d68:	769a      	strb	r2, [r3, #26]
			}

			if (Key.Up_ShortPress != CNT_KEY_SHORT + 2) // Если нажатие не считается долгим
 8002d6a:	4b34      	ldr	r3, [pc, #208]	; (8002e3c <vKeyScan+0x7c0>)
 8002d6c:	7e9b      	ldrb	r3, [r3, #26]
 8002d6e:	2b06      	cmp	r3, #6
 8002d70:	d005      	beq.n	8002d7e <vKeyScan+0x702>
			{
				Key.Up_ShortPress++; // Счетчик для определения короткого нажатия на кнопку
 8002d72:	4b32      	ldr	r3, [pc, #200]	; (8002e3c <vKeyScan+0x7c0>)
 8002d74:	7e9b      	ldrb	r3, [r3, #26]
 8002d76:	3301      	adds	r3, #1
 8002d78:	b2da      	uxtb	r2, r3
 8002d7a:	4b30      	ldr	r3, [pc, #192]	; (8002e3c <vKeyScan+0x7c0>)
 8002d7c:	769a      	strb	r2, [r3, #26]
			}


			Key.Up_LongPress++; // Счетчик для определения длинного нажатия на кнопку
 8002d7e:	4b2f      	ldr	r3, [pc, #188]	; (8002e3c <vKeyScan+0x7c0>)
 8002d80:	7edb      	ldrb	r3, [r3, #27]
 8002d82:	3301      	adds	r3, #1
 8002d84:	b2da      	uxtb	r2, r3
 8002d86:	4b2d      	ldr	r3, [pc, #180]	; (8002e3c <vKeyScan+0x7c0>)
 8002d88:	76da      	strb	r2, [r3, #27]
			if (Key.Up_LongPress > CNT_KEY_LONG) // Если времы выдрежки длинного нажатия достигло заданного интервала времени, то нажатие считается длинным
 8002d8a:	4b2c      	ldr	r3, [pc, #176]	; (8002e3c <vKeyScan+0x7c0>)
 8002d8c:	7edb      	ldrb	r3, [r3, #27]
 8002d8e:	2b32      	cmp	r3, #50	; 0x32
 8002d90:	d916      	bls.n	8002dc0 <vKeyScan+0x744>
			{
				// Дейсвие при нажатии на клавишу
				nKeyPressed = press_long_Up;
 8002d92:	2324      	movs	r3, #36	; 0x24
 8002d94:	73fb      	strb	r3, [r7, #15]
				xQueueSendToBack( qKeyPress, &nKeyPressed, 0 ); // Передача номера нажатой клавиши
 8002d96:	4b2b      	ldr	r3, [pc, #172]	; (8002e44 <vKeyScan+0x7c8>)
 8002d98:	6818      	ldr	r0, [r3, #0]
 8002d9a:	f107 010f 	add.w	r1, r7, #15
 8002d9e:	2300      	movs	r3, #0
 8002da0:	2200      	movs	r2, #0
 8002da2:	f004 f957 	bl	8007054 <xQueueGenericSend>


				Key.Up_ShortPress = CNT_KEY_SHORT + 2; // Для запрета работы коротких нажатий
 8002da6:	4b25      	ldr	r3, [pc, #148]	; (8002e3c <vKeyScan+0x7c0>)
 8002da8:	2206      	movs	r2, #6
 8002daa:	769a      	strb	r2, [r3, #26]
				Key.Up_LongPress = CNT_LONG_PRESS; // Сброс счета для определения длинного нажатия. Не 0 что бы дейсвия выполнялось быстрее
 8002dac:	4b23      	ldr	r3, [pc, #140]	; (8002e3c <vKeyScan+0x7c0>)
 8002dae:	2225      	movs	r2, #37	; 0x25
 8002db0:	76da      	strb	r2, [r3, #27]
 8002db2:	e005      	b.n	8002dc0 <vKeyScan+0x744>


		}
		else // Если кнопка была отпущена то сбросить все счетчики выдержки
		{
			Key.Up_ShortPress = 0;
 8002db4:	4b21      	ldr	r3, [pc, #132]	; (8002e3c <vKeyScan+0x7c0>)
 8002db6:	2200      	movs	r2, #0
 8002db8:	769a      	strb	r2, [r3, #26]
			Key.Up_LongPress = 0;
 8002dba:	4b20      	ldr	r3, [pc, #128]	; (8002e3c <vKeyScan+0x7c0>)
 8002dbc:	2200      	movs	r2, #0
 8002dbe:	76da      	strb	r2, [r3, #27]
		}
		if (WelderUnit.IndicatorPanel.KeyState[1] == 64)
 8002dc0:	4b1f      	ldr	r3, [pc, #124]	; (8002e40 <vKeyScan+0x7c4>)
 8002dc2:	7f9b      	ldrb	r3, [r3, #30]
 8002dc4:	2b40      	cmp	r3, #64	; 0x40
 8002dc6:	d13f      	bne.n	8002e48 <vKeyScan+0x7cc>
		{
			// Если времы выдрежки короткого нажатия достигло заданного итервала времени и это нажатие не считается длинным, то нажатие считается кортоким
			if (Key.Down_ShortPress > CNT_KEY_SHORT && Key.Down_ShortPress != CNT_KEY_SHORT + 2)
 8002dc8:	4b1c      	ldr	r3, [pc, #112]	; (8002e3c <vKeyScan+0x7c0>)
 8002dca:	7f1b      	ldrb	r3, [r3, #28]
 8002dcc:	2b04      	cmp	r3, #4
 8002dce:	d910      	bls.n	8002df2 <vKeyScan+0x776>
 8002dd0:	4b1a      	ldr	r3, [pc, #104]	; (8002e3c <vKeyScan+0x7c0>)
 8002dd2:	7f1b      	ldrb	r3, [r3, #28]
 8002dd4:	2b06      	cmp	r3, #6
 8002dd6:	d00c      	beq.n	8002df2 <vKeyScan+0x776>
			{
				// Дейсвие при нажатии на клавишу
				nKeyPressed = press_short_Down;
 8002dd8:	2321      	movs	r3, #33	; 0x21
 8002dda:	73fb      	strb	r3, [r7, #15]
				xQueueSendToBack( qKeyPress, &nKeyPressed, 0 ); // Передача номера нажатой клавиши
 8002ddc:	4b19      	ldr	r3, [pc, #100]	; (8002e44 <vKeyScan+0x7c8>)
 8002dde:	6818      	ldr	r0, [r3, #0]
 8002de0:	f107 010f 	add.w	r1, r7, #15
 8002de4:	2300      	movs	r3, #0
 8002de6:	2200      	movs	r2, #0
 8002de8:	f004 f934 	bl	8007054 <xQueueGenericSend>

				Key.Down_ShortPress = 0; // Сброс счетика выдержки
 8002dec:	4b13      	ldr	r3, [pc, #76]	; (8002e3c <vKeyScan+0x7c0>)
 8002dee:	2200      	movs	r2, #0
 8002df0:	771a      	strb	r2, [r3, #28]
			}

			if (Key.Down_ShortPress != CNT_KEY_SHORT + 2) // Если нажатие не считается долгим
 8002df2:	4b12      	ldr	r3, [pc, #72]	; (8002e3c <vKeyScan+0x7c0>)
 8002df4:	7f1b      	ldrb	r3, [r3, #28]
 8002df6:	2b06      	cmp	r3, #6
 8002df8:	d005      	beq.n	8002e06 <vKeyScan+0x78a>
			{
				Key.Down_ShortPress++; // Счетчик для определения короткого нажатия на кнопку
 8002dfa:	4b10      	ldr	r3, [pc, #64]	; (8002e3c <vKeyScan+0x7c0>)
 8002dfc:	7f1b      	ldrb	r3, [r3, #28]
 8002dfe:	3301      	adds	r3, #1
 8002e00:	b2da      	uxtb	r2, r3
 8002e02:	4b0e      	ldr	r3, [pc, #56]	; (8002e3c <vKeyScan+0x7c0>)
 8002e04:	771a      	strb	r2, [r3, #28]
			}


			Key.Down_LongPress++; // Счетчик для определения длинного нажатия на кнопку
 8002e06:	4b0d      	ldr	r3, [pc, #52]	; (8002e3c <vKeyScan+0x7c0>)
 8002e08:	7f5b      	ldrb	r3, [r3, #29]
 8002e0a:	3301      	adds	r3, #1
 8002e0c:	b2da      	uxtb	r2, r3
 8002e0e:	4b0b      	ldr	r3, [pc, #44]	; (8002e3c <vKeyScan+0x7c0>)
 8002e10:	775a      	strb	r2, [r3, #29]
			if (Key.Down_LongPress > CNT_KEY_LONG) // Если времы выдрежки длинного нажатия достигло заданного интервала времени, то нажатие считается длинным
 8002e12:	4b0a      	ldr	r3, [pc, #40]	; (8002e3c <vKeyScan+0x7c0>)
 8002e14:	7f5b      	ldrb	r3, [r3, #29]
 8002e16:	2b32      	cmp	r3, #50	; 0x32
 8002e18:	d91c      	bls.n	8002e54 <vKeyScan+0x7d8>
			{
				// Дейсвие при нажатии на клавишу
				nKeyPressed = press_long_Down;
 8002e1a:	2322      	movs	r3, #34	; 0x22
 8002e1c:	73fb      	strb	r3, [r7, #15]
				xQueueSendToBack( qKeyPress, &nKeyPressed, 0 ); // Передача номера нажатой клавиши
 8002e1e:	4b09      	ldr	r3, [pc, #36]	; (8002e44 <vKeyScan+0x7c8>)
 8002e20:	6818      	ldr	r0, [r3, #0]
 8002e22:	f107 010f 	add.w	r1, r7, #15
 8002e26:	2300      	movs	r3, #0
 8002e28:	2200      	movs	r2, #0
 8002e2a:	f004 f913 	bl	8007054 <xQueueGenericSend>


				Key.Down_ShortPress = CNT_KEY_SHORT + 2; // Для запрета работы коротких нажатий
 8002e2e:	4b03      	ldr	r3, [pc, #12]	; (8002e3c <vKeyScan+0x7c0>)
 8002e30:	2206      	movs	r2, #6
 8002e32:	771a      	strb	r2, [r3, #28]
				Key.Down_LongPress = CNT_LONG_PRESS; // Сброс счета для определения длинного нажатия. Не 0 что бы дейсвия выполнялось быстрее
 8002e34:	4b01      	ldr	r3, [pc, #4]	; (8002e3c <vKeyScan+0x7c0>)
 8002e36:	2225      	movs	r2, #37	; 0x25
 8002e38:	775a      	strb	r2, [r3, #29]
 8002e3a:	e00b      	b.n	8002e54 <vKeyScan+0x7d8>
 8002e3c:	20004da0 	.word	0x20004da0
 8002e40:	2000453c 	.word	0x2000453c
 8002e44:	20004d90 	.word	0x20004d90


		}
		else // Если кнопка была отпущена то сбросить все счетчики выдержки
		{
			Key.Down_ShortPress = 0;
 8002e48:	4b94      	ldr	r3, [pc, #592]	; (800309c <vKeyScan+0xa20>)
 8002e4a:	2200      	movs	r2, #0
 8002e4c:	771a      	strb	r2, [r3, #28]
			Key.Down_LongPress = 0;
 8002e4e:	4b93      	ldr	r3, [pc, #588]	; (800309c <vKeyScan+0xa20>)
 8002e50:	2200      	movs	r2, #0
 8002e52:	775a      	strb	r2, [r3, #29]
		}

		if (WelderUnit.IndicatorPanel.KeyState[1] == 32) // ПАРКОВКА, АВТО: [1], "-" - 32, "+" - 16, , STLED №5;
 8002e54:	4b92      	ldr	r3, [pc, #584]	; (80030a0 <vKeyScan+0xa24>)
 8002e56:	7f9b      	ldrb	r3, [r3, #30]
 8002e58:	2b20      	cmp	r3, #32
 8002e5a:	d139      	bne.n	8002ed0 <vKeyScan+0x854>
		{
			// Если времы выдрежки короткого нажатия достигло заданного итервала времени и это нажатие не считается длинным, то нажатие считается кортоким
			if (Key.Parking_ShortPress > CNT_KEY_SHORT && Key.Parking_ShortPress != CNT_KEY_SHORT + 2)
 8002e5c:	4b8f      	ldr	r3, [pc, #572]	; (800309c <vKeyScan+0xa20>)
 8002e5e:	7f9b      	ldrb	r3, [r3, #30]
 8002e60:	2b04      	cmp	r3, #4
 8002e62:	d910      	bls.n	8002e86 <vKeyScan+0x80a>
 8002e64:	4b8d      	ldr	r3, [pc, #564]	; (800309c <vKeyScan+0xa20>)
 8002e66:	7f9b      	ldrb	r3, [r3, #30]
 8002e68:	2b06      	cmp	r3, #6
 8002e6a:	d00c      	beq.n	8002e86 <vKeyScan+0x80a>
			{
				// Дейсвие при нажатии на клавишу
				nKeyPressed = press_short_Parking;
 8002e6c:	2319      	movs	r3, #25
 8002e6e:	73fb      	strb	r3, [r7, #15]
				xQueueSendToBack( qKeyPress, &nKeyPressed, 0 ); // Передача номера нажатой клавиши
 8002e70:	4b8c      	ldr	r3, [pc, #560]	; (80030a4 <vKeyScan+0xa28>)
 8002e72:	6818      	ldr	r0, [r3, #0]
 8002e74:	f107 010f 	add.w	r1, r7, #15
 8002e78:	2300      	movs	r3, #0
 8002e7a:	2200      	movs	r2, #0
 8002e7c:	f004 f8ea 	bl	8007054 <xQueueGenericSend>


				Key.Parking_ShortPress = 0; // Сброс счетика выдержки
 8002e80:	4b86      	ldr	r3, [pc, #536]	; (800309c <vKeyScan+0xa20>)
 8002e82:	2200      	movs	r2, #0
 8002e84:	779a      	strb	r2, [r3, #30]
			}

			if (Key.Parking_ShortPress != CNT_KEY_SHORT + 2) // Если нажатие не считается долгим
 8002e86:	4b85      	ldr	r3, [pc, #532]	; (800309c <vKeyScan+0xa20>)
 8002e88:	7f9b      	ldrb	r3, [r3, #30]
 8002e8a:	2b06      	cmp	r3, #6
 8002e8c:	d005      	beq.n	8002e9a <vKeyScan+0x81e>
			{
				Key.Parking_ShortPress++; // Счетчик для определения короткого нажатия на кнопку
 8002e8e:	4b83      	ldr	r3, [pc, #524]	; (800309c <vKeyScan+0xa20>)
 8002e90:	7f9b      	ldrb	r3, [r3, #30]
 8002e92:	3301      	adds	r3, #1
 8002e94:	b2da      	uxtb	r2, r3
 8002e96:	4b81      	ldr	r3, [pc, #516]	; (800309c <vKeyScan+0xa20>)
 8002e98:	779a      	strb	r2, [r3, #30]
			}


			Key.Parking_LongPress++; // Счетчик для определения длинного нажатия на кнопку
 8002e9a:	4b80      	ldr	r3, [pc, #512]	; (800309c <vKeyScan+0xa20>)
 8002e9c:	7fdb      	ldrb	r3, [r3, #31]
 8002e9e:	3301      	adds	r3, #1
 8002ea0:	b2da      	uxtb	r2, r3
 8002ea2:	4b7e      	ldr	r3, [pc, #504]	; (800309c <vKeyScan+0xa20>)
 8002ea4:	77da      	strb	r2, [r3, #31]
			if (Key.Parking_LongPress > CNT_KEY_LONG) // Если времы выдрежки длинного нажатия достигло заданного интервала времени, то нажатие считается длинным
 8002ea6:	4b7d      	ldr	r3, [pc, #500]	; (800309c <vKeyScan+0xa20>)
 8002ea8:	7fdb      	ldrb	r3, [r3, #31]
 8002eaa:	2b32      	cmp	r3, #50	; 0x32
 8002eac:	d916      	bls.n	8002edc <vKeyScan+0x860>
			{
				// Дейсвие при нажатии на клавишу
				nKeyPressed = press_long_Parking;
 8002eae:	231a      	movs	r3, #26
 8002eb0:	73fb      	strb	r3, [r7, #15]
				xQueueSendToBack( qKeyPress, &nKeyPressed, 0 ); // Передача номера нажатой клавиши
 8002eb2:	4b7c      	ldr	r3, [pc, #496]	; (80030a4 <vKeyScan+0xa28>)
 8002eb4:	6818      	ldr	r0, [r3, #0]
 8002eb6:	f107 010f 	add.w	r1, r7, #15
 8002eba:	2300      	movs	r3, #0
 8002ebc:	2200      	movs	r2, #0
 8002ebe:	f004 f8c9 	bl	8007054 <xQueueGenericSend>

				Key.Parking_ShortPress = CNT_KEY_SHORT + 2; // Для запрета работы коротких нажатий
 8002ec2:	4b76      	ldr	r3, [pc, #472]	; (800309c <vKeyScan+0xa20>)
 8002ec4:	2206      	movs	r2, #6
 8002ec6:	779a      	strb	r2, [r3, #30]
				Key.Parking_LongPress = CNT_LONG_PRESS; // Сброс счета для определения длинного нажатия. Не 0 что бы дейсвия выполнялось быстрее
 8002ec8:	4b74      	ldr	r3, [pc, #464]	; (800309c <vKeyScan+0xa20>)
 8002eca:	2225      	movs	r2, #37	; 0x25
 8002ecc:	77da      	strb	r2, [r3, #31]
 8002ece:	e005      	b.n	8002edc <vKeyScan+0x860>


		}
		else // Если кнопка была отпущена то сбросить все счетчики выдержки
		{
			Key.Parking_ShortPress = 0;
 8002ed0:	4b72      	ldr	r3, [pc, #456]	; (800309c <vKeyScan+0xa20>)
 8002ed2:	2200      	movs	r2, #0
 8002ed4:	779a      	strb	r2, [r3, #30]
			Key.Parking_LongPress = 0;
 8002ed6:	4b71      	ldr	r3, [pc, #452]	; (800309c <vKeyScan+0xa20>)
 8002ed8:	2200      	movs	r2, #0
 8002eda:	77da      	strb	r2, [r3, #31]
		}

		if (WelderUnit.IndicatorPanel.KeyState[1] == 16)
 8002edc:	4b70      	ldr	r3, [pc, #448]	; (80030a0 <vKeyScan+0xa24>)
 8002ede:	7f9b      	ldrb	r3, [r3, #30]
 8002ee0:	2b10      	cmp	r3, #16
 8002ee2:	d144      	bne.n	8002f6e <vKeyScan+0x8f2>
		{
			// Если времы выдрежки короткого нажатия достигло заданного итервала времени и это нажатие не считается длинным, то нажатие считается кортоким
			if (Key.Auto_ShortPress > CNT_KEY_SHORT && Key.Auto_ShortPress != CNT_KEY_SHORT + 2)
 8002ee4:	4b6d      	ldr	r3, [pc, #436]	; (800309c <vKeyScan+0xa20>)
 8002ee6:	f893 3020 	ldrb.w	r3, [r3, #32]
 8002eea:	2b04      	cmp	r3, #4
 8002eec:	d912      	bls.n	8002f14 <vKeyScan+0x898>
 8002eee:	4b6b      	ldr	r3, [pc, #428]	; (800309c <vKeyScan+0xa20>)
 8002ef0:	f893 3020 	ldrb.w	r3, [r3, #32]
 8002ef4:	2b06      	cmp	r3, #6
 8002ef6:	d00d      	beq.n	8002f14 <vKeyScan+0x898>
			{
				// Дейсвие при нажатии на клавишу
				nKeyPressed = press_short_Auto;
 8002ef8:	231b      	movs	r3, #27
 8002efa:	73fb      	strb	r3, [r7, #15]
				xQueueSendToBack( qKeyPress, &nKeyPressed, 0 ); // Передача номера нажатой клавиши
 8002efc:	4b69      	ldr	r3, [pc, #420]	; (80030a4 <vKeyScan+0xa28>)
 8002efe:	6818      	ldr	r0, [r3, #0]
 8002f00:	f107 010f 	add.w	r1, r7, #15
 8002f04:	2300      	movs	r3, #0
 8002f06:	2200      	movs	r2, #0
 8002f08:	f004 f8a4 	bl	8007054 <xQueueGenericSend>

				Key.Auto_ShortPress = 0; // Сброс счетика выдержки
 8002f0c:	4b63      	ldr	r3, [pc, #396]	; (800309c <vKeyScan+0xa20>)
 8002f0e:	2200      	movs	r2, #0
 8002f10:	f883 2020 	strb.w	r2, [r3, #32]
			}

			if (Key.Auto_ShortPress != CNT_KEY_SHORT + 2) // Если нажатие не считается долгим
 8002f14:	4b61      	ldr	r3, [pc, #388]	; (800309c <vKeyScan+0xa20>)
 8002f16:	f893 3020 	ldrb.w	r3, [r3, #32]
 8002f1a:	2b06      	cmp	r3, #6
 8002f1c:	d007      	beq.n	8002f2e <vKeyScan+0x8b2>
			{
				Key.Auto_ShortPress++; // Счетчик для определения короткого нажатия на кнопку
 8002f1e:	4b5f      	ldr	r3, [pc, #380]	; (800309c <vKeyScan+0xa20>)
 8002f20:	f893 3020 	ldrb.w	r3, [r3, #32]
 8002f24:	3301      	adds	r3, #1
 8002f26:	b2da      	uxtb	r2, r3
 8002f28:	4b5c      	ldr	r3, [pc, #368]	; (800309c <vKeyScan+0xa20>)
 8002f2a:	f883 2020 	strb.w	r2, [r3, #32]
			}


			Key.Auto_LongPress++; // Счетчик для определения длинного нажатия на кнопку
 8002f2e:	4b5b      	ldr	r3, [pc, #364]	; (800309c <vKeyScan+0xa20>)
 8002f30:	f893 3021 	ldrb.w	r3, [r3, #33]	; 0x21
 8002f34:	3301      	adds	r3, #1
 8002f36:	b2da      	uxtb	r2, r3
 8002f38:	4b58      	ldr	r3, [pc, #352]	; (800309c <vKeyScan+0xa20>)
 8002f3a:	f883 2021 	strb.w	r2, [r3, #33]	; 0x21
			if (Key.Auto_LongPress > CNT_KEY_LONG) // Если времы выдрежки длинного нажатия достигло заданного интервала времени, то нажатие считается длинным
 8002f3e:	4b57      	ldr	r3, [pc, #348]	; (800309c <vKeyScan+0xa20>)
 8002f40:	f893 3021 	ldrb.w	r3, [r3, #33]	; 0x21
 8002f44:	2b32      	cmp	r3, #50	; 0x32
 8002f46:	d91a      	bls.n	8002f7e <vKeyScan+0x902>
			{
				// Дейсвие при нажатии на клавишу
				nKeyPressed = press_long_Auto;
 8002f48:	231c      	movs	r3, #28
 8002f4a:	73fb      	strb	r3, [r7, #15]
				xQueueSendToBack( qKeyPress, &nKeyPressed, 0 ); // Передача номера нажатой клавиши
 8002f4c:	4b55      	ldr	r3, [pc, #340]	; (80030a4 <vKeyScan+0xa28>)
 8002f4e:	6818      	ldr	r0, [r3, #0]
 8002f50:	f107 010f 	add.w	r1, r7, #15
 8002f54:	2300      	movs	r3, #0
 8002f56:	2200      	movs	r2, #0
 8002f58:	f004 f87c 	bl	8007054 <xQueueGenericSend>

				Key.Auto_ShortPress = CNT_KEY_SHORT + 2; // Для запрета работы коротких нажатий
 8002f5c:	4b4f      	ldr	r3, [pc, #316]	; (800309c <vKeyScan+0xa20>)
 8002f5e:	2206      	movs	r2, #6
 8002f60:	f883 2020 	strb.w	r2, [r3, #32]
				Key.Auto_LongPress = CNT_LONG_PRESS; // Сброс счета для определения длинного нажатия. Не 0 что бы дейсвия выполнялось быстрее
 8002f64:	4b4d      	ldr	r3, [pc, #308]	; (800309c <vKeyScan+0xa20>)
 8002f66:	2225      	movs	r2, #37	; 0x25
 8002f68:	f883 2021 	strb.w	r2, [r3, #33]	; 0x21
 8002f6c:	e007      	b.n	8002f7e <vKeyScan+0x902>


		}
		else // Если кнопка была отпущена то сбросить все счетчики выдержки
		{
			Key.Auto_ShortPress = 0;
 8002f6e:	4b4b      	ldr	r3, [pc, #300]	; (800309c <vKeyScan+0xa20>)
 8002f70:	2200      	movs	r2, #0
 8002f72:	f883 2020 	strb.w	r2, [r3, #32]
			Key.Auto_LongPress = 0;
 8002f76:	4b49      	ldr	r3, [pc, #292]	; (800309c <vKeyScan+0xa20>)
 8002f78:	2200      	movs	r2, #0
 8002f7a:	f883 2021 	strb.w	r2, [r3, #33]	; 0x21
		}

		if (WelderUnit.IndicatorPanel.KeyState[1] == 8)
 8002f7e:	4b48      	ldr	r3, [pc, #288]	; (80030a0 <vKeyScan+0xa24>)
 8002f80:	7f9b      	ldrb	r3, [r3, #30]
 8002f82:	2b08      	cmp	r3, #8
 8002f84:	d144      	bne.n	8003010 <vKeyScan+0x994>
		{
			// Если времы выдрежки короткого нажатия достигло заданного итервала времени и это нажатие не считается длинным, то нажатие считается кортоким
			if (Key.StartStop_ShortPress > CNT_KEY_SHORT && Key.StartStop_ShortPress != CNT_KEY_SHORT + 2)
 8002f86:	4b45      	ldr	r3, [pc, #276]	; (800309c <vKeyScan+0xa20>)
 8002f88:	f893 3022 	ldrb.w	r3, [r3, #34]	; 0x22
 8002f8c:	2b04      	cmp	r3, #4
 8002f8e:	d912      	bls.n	8002fb6 <vKeyScan+0x93a>
 8002f90:	4b42      	ldr	r3, [pc, #264]	; (800309c <vKeyScan+0xa20>)
 8002f92:	f893 3022 	ldrb.w	r3, [r3, #34]	; 0x22
 8002f96:	2b06      	cmp	r3, #6
 8002f98:	d00d      	beq.n	8002fb6 <vKeyScan+0x93a>
			{
				// Дейсвие при нажатии на клавишу
				nKeyPressed = press_short_StartStop;
 8002f9a:	231d      	movs	r3, #29
 8002f9c:	73fb      	strb	r3, [r7, #15]
				xQueueSendToBack( qKeyPress, &nKeyPressed, 0 ); // Передача номера нажатой клавиши
 8002f9e:	4b41      	ldr	r3, [pc, #260]	; (80030a4 <vKeyScan+0xa28>)
 8002fa0:	6818      	ldr	r0, [r3, #0]
 8002fa2:	f107 010f 	add.w	r1, r7, #15
 8002fa6:	2300      	movs	r3, #0
 8002fa8:	2200      	movs	r2, #0
 8002faa:	f004 f853 	bl	8007054 <xQueueGenericSend>

				Key.StartStop_ShortPress = 0; // Сброс счетика выдержки
 8002fae:	4b3b      	ldr	r3, [pc, #236]	; (800309c <vKeyScan+0xa20>)
 8002fb0:	2200      	movs	r2, #0
 8002fb2:	f883 2022 	strb.w	r2, [r3, #34]	; 0x22
			}

			if (Key.StartStop_ShortPress != CNT_KEY_SHORT + 2) // Если нажатие не считается долгим
 8002fb6:	4b39      	ldr	r3, [pc, #228]	; (800309c <vKeyScan+0xa20>)
 8002fb8:	f893 3022 	ldrb.w	r3, [r3, #34]	; 0x22
 8002fbc:	2b06      	cmp	r3, #6
 8002fbe:	d007      	beq.n	8002fd0 <vKeyScan+0x954>
			{
				Key.StartStop_ShortPress++; // Счетчик для определения короткого нажатия на кнопку
 8002fc0:	4b36      	ldr	r3, [pc, #216]	; (800309c <vKeyScan+0xa20>)
 8002fc2:	f893 3022 	ldrb.w	r3, [r3, #34]	; 0x22
 8002fc6:	3301      	adds	r3, #1
 8002fc8:	b2da      	uxtb	r2, r3
 8002fca:	4b34      	ldr	r3, [pc, #208]	; (800309c <vKeyScan+0xa20>)
 8002fcc:	f883 2022 	strb.w	r2, [r3, #34]	; 0x22
			}


			Key.StartStop_LongPress++; // Счетчик для определения длинного нажатия на кнопку
 8002fd0:	4b32      	ldr	r3, [pc, #200]	; (800309c <vKeyScan+0xa20>)
 8002fd2:	f893 3023 	ldrb.w	r3, [r3, #35]	; 0x23
 8002fd6:	3301      	adds	r3, #1
 8002fd8:	b2da      	uxtb	r2, r3
 8002fda:	4b30      	ldr	r3, [pc, #192]	; (800309c <vKeyScan+0xa20>)
 8002fdc:	f883 2023 	strb.w	r2, [r3, #35]	; 0x23
			if (Key.StartStop_LongPress > CNT_KEY_LONG) // Если времы выдрежки длинного нажатия достигло заданного интервала времени, то нажатие считается длинным
 8002fe0:	4b2e      	ldr	r3, [pc, #184]	; (800309c <vKeyScan+0xa20>)
 8002fe2:	f893 3023 	ldrb.w	r3, [r3, #35]	; 0x23
 8002fe6:	2b32      	cmp	r3, #50	; 0x32
 8002fe8:	d91a      	bls.n	8003020 <vKeyScan+0x9a4>
			{
				// Дейсвие при нажатии на клавишу
				nKeyPressed = press_long_StartStop;
 8002fea:	231e      	movs	r3, #30
 8002fec:	73fb      	strb	r3, [r7, #15]
				xQueueSendToBack( qKeyPress, &nKeyPressed, 0 ); // Передача номера нажатой клавиши
 8002fee:	4b2d      	ldr	r3, [pc, #180]	; (80030a4 <vKeyScan+0xa28>)
 8002ff0:	6818      	ldr	r0, [r3, #0]
 8002ff2:	f107 010f 	add.w	r1, r7, #15
 8002ff6:	2300      	movs	r3, #0
 8002ff8:	2200      	movs	r2, #0
 8002ffa:	f004 f82b 	bl	8007054 <xQueueGenericSend>

				Key.StartStop_ShortPress = CNT_KEY_SHORT + 2; // Для запрета работы коротких нажатий
 8002ffe:	4b27      	ldr	r3, [pc, #156]	; (800309c <vKeyScan+0xa20>)
 8003000:	2206      	movs	r2, #6
 8003002:	f883 2022 	strb.w	r2, [r3, #34]	; 0x22
				Key.StartStop_LongPress = CNT_LONG_PRESS; // Сброс счета для определения длинного нажатия. Не 0 что бы дейсвия выполнялось быстрее
 8003006:	4b25      	ldr	r3, [pc, #148]	; (800309c <vKeyScan+0xa20>)
 8003008:	2225      	movs	r2, #37	; 0x25
 800300a:	f883 2023 	strb.w	r2, [r3, #35]	; 0x23
 800300e:	e007      	b.n	8003020 <vKeyScan+0x9a4>
			}

		}
		else // Если кнопка была отпущена то сбросить все счетчики выдержки
		{
			Key.StartStop_ShortPress = 0;
 8003010:	4b22      	ldr	r3, [pc, #136]	; (800309c <vKeyScan+0xa20>)
 8003012:	2200      	movs	r2, #0
 8003014:	f883 2022 	strb.w	r2, [r3, #34]	; 0x22
			Key.StartStop_LongPress = 0;
 8003018:	4b20      	ldr	r3, [pc, #128]	; (800309c <vKeyScan+0xa20>)
 800301a:	2200      	movs	r2, #0
 800301c:	f883 2023 	strb.w	r2, [r3, #35]	; 0x23
		}

		// *********************************************************Комбинации клавишь*********************************************************

		if (WelderUnit.IndicatorPanel.KeyState[3] == 1 && WelderUnit.IndicatorPanel.KeyState[1] == 2) // "ПРОГРАММА" "-" одновременно с "+"
 8003020:	4b1f      	ldr	r3, [pc, #124]	; (80030a0 <vKeyScan+0xa24>)
 8003022:	f893 3020 	ldrb.w	r3, [r3, #32]
 8003026:	2b01      	cmp	r3, #1
 8003028:	d11f      	bne.n	800306a <vKeyScan+0x9ee>
 800302a:	4b1d      	ldr	r3, [pc, #116]	; (80030a0 <vKeyScan+0xa24>)
 800302c:	7f9b      	ldrb	r3, [r3, #30]
 800302e:	2b02      	cmp	r3, #2
 8003030:	d11b      	bne.n	800306a <vKeyScan+0x9ee>
		{
			// Если времы выдрежки короткого нажатия достигло заданного итервала времени и это нажатие не считается длинным, то нажатие считается кортоким
			if (Key.Program_ShortPress_L_and_R > CNT_KEY_SHORT && Key.Program_ShortPress_L_and_R != CNT_KEY_SHORT + 2)
 8003032:	4b1a      	ldr	r3, [pc, #104]	; (800309c <vKeyScan+0xa20>)
 8003034:	7e1b      	ldrb	r3, [r3, #24]
 8003036:	2b04      	cmp	r3, #4
 8003038:	d906      	bls.n	8003048 <vKeyScan+0x9cc>
 800303a:	4b18      	ldr	r3, [pc, #96]	; (800309c <vKeyScan+0xa20>)
 800303c:	7e1b      	ldrb	r3, [r3, #24]
 800303e:	2b06      	cmp	r3, #6
 8003040:	d002      	beq.n	8003048 <vKeyScan+0x9cc>
			{
				// Дейсвие при нажатии на клавишу
//				nKeyPressed = press_short_StartStop;
//				xQueueSendToBack( qKeyPress, &nKeyPressed, 0 ); // Передача номера нажатой клавиши

				Key.Program_ShortPress_L_and_R = CNT_KEY_SHORT + 3; // Сброс счетика выдержки
 8003042:	4b16      	ldr	r3, [pc, #88]	; (800309c <vKeyScan+0xa20>)
 8003044:	2207      	movs	r2, #7
 8003046:	761a      	strb	r2, [r3, #24]
			}

			if (Key.Program_ShortPress_L_and_R != CNT_KEY_SHORT + 2) // Если нажатие не считается долгим
 8003048:	4b14      	ldr	r3, [pc, #80]	; (800309c <vKeyScan+0xa20>)
 800304a:	7e1b      	ldrb	r3, [r3, #24]
 800304c:	2b06      	cmp	r3, #6
 800304e:	d005      	beq.n	800305c <vKeyScan+0x9e0>
			{
				Key.Program_ShortPress_L_and_R++; // Счетчик для определения короткого нажатия на кнопку
 8003050:	4b12      	ldr	r3, [pc, #72]	; (800309c <vKeyScan+0xa20>)
 8003052:	7e1b      	ldrb	r3, [r3, #24]
 8003054:	3301      	adds	r3, #1
 8003056:	b2da      	uxtb	r2, r3
 8003058:	4b10      	ldr	r3, [pc, #64]	; (800309c <vKeyScan+0xa20>)
 800305a:	761a      	strb	r2, [r3, #24]
			}


			Key.Program_LongPress_L_and_R++; // Счетчик для определения длинного нажатия на кнопку
 800305c:	4b0f      	ldr	r3, [pc, #60]	; (800309c <vKeyScan+0xa20>)
 800305e:	7e5b      	ldrb	r3, [r3, #25]
 8003060:	3301      	adds	r3, #1
 8003062:	b2da      	uxtb	r2, r3
 8003064:	4b0d      	ldr	r3, [pc, #52]	; (800309c <vKeyScan+0xa20>)
 8003066:	765a      	strb	r2, [r3, #25]
			if (Key.Program_LongPress_L_and_R > CNT_KEY_LONG) // Если времы выдрежки длинного нажатия достигло заданного интервала времени, то нажатие считается длинным
 8003068:	e013      	b.n	8003092 <vKeyScan+0xa16>
			}

		}
		else // Если кнопка была отпущена то сбросить все счетчики выдержки
		{
			if (Key.Program_ShortPress_L_and_R >= CNT_KEY_SHORT + 3) // Дейсвия при отжатии кнопки
 800306a:	4b0c      	ldr	r3, [pc, #48]	; (800309c <vKeyScan+0xa20>)
 800306c:	7e1b      	ldrb	r3, [r3, #24]
 800306e:	2b06      	cmp	r3, #6
 8003070:	d909      	bls.n	8003086 <vKeyScan+0xa0a>
			{
				nKeyPressed = press_short_Program_L_and_R;
 8003072:	231f      	movs	r3, #31
 8003074:	73fb      	strb	r3, [r7, #15]
				xQueueSendToBack( qKeyPress, &nKeyPressed, 0 ); // Передача номера нажатой клавиши
 8003076:	4b0b      	ldr	r3, [pc, #44]	; (80030a4 <vKeyScan+0xa28>)
 8003078:	6818      	ldr	r0, [r3, #0]
 800307a:	f107 010f 	add.w	r1, r7, #15
 800307e:	2300      	movs	r3, #0
 8003080:	2200      	movs	r2, #0
 8003082:	f003 ffe7 	bl	8007054 <xQueueGenericSend>
//
//				Key.Program_ShortPress_R = 0;
//				Key.Program_LongPress_R = 0;
			}

			Key.Program_ShortPress_L_and_R = 0;
 8003086:	4b05      	ldr	r3, [pc, #20]	; (800309c <vKeyScan+0xa20>)
 8003088:	2200      	movs	r2, #0
 800308a:	761a      	strb	r2, [r3, #24]
			Key.Program_LongPress_L_and_R = 0;
 800308c:	4b03      	ldr	r3, [pc, #12]	; (800309c <vKeyScan+0xa20>)
 800308e:	2200      	movs	r2, #0
 8003090:	765a      	strb	r2, [r3, #25]

		}



		vTaskDelay(TIME_KEY_SCAN / portTICK_RATE_MS);
 8003092:	2014      	movs	r0, #20
 8003094:	f004 fe24 	bl	8007ce0 <vTaskDelay>
		PCB_KeyScan();
 8003098:	f7ff baf7 	b.w	800268a <vKeyScan+0xe>
 800309c:	20004da0 	.word	0x20004da0
 80030a0:	2000453c 	.word	0x2000453c
 80030a4:	20004d90 	.word	0x20004d90

080030a8 <vIndicatorPanel_Out>:
	}
	vTaskDelete(NULL);
}

void vIndicatorPanel_Out(void *pvParameters)
{
 80030a8:	b580      	push	{r7, lr}
 80030aa:	b082      	sub	sp, #8
 80030ac:	af00      	add	r7, sp, #0
 80030ae:	6078      	str	r0, [r7, #4]
	WelderUnit.Xs = 30;
 80030b0:	4b2c      	ldr	r3, [pc, #176]	; (8003164 <vIndicatorPanel_Out+0xbc>)
 80030b2:	221e      	movs	r2, #30
 80030b4:	801a      	strh	r2, [r3, #0]
	WelderUnit.Xf = 90;
 80030b6:	4b2b      	ldr	r3, [pc, #172]	; (8003164 <vIndicatorPanel_Out+0xbc>)
 80030b8:	225a      	movs	r2, #90	; 0x5a
 80030ba:	805a      	strh	r2, [r3, #2]
	WelderUnit.Steps = 0;
 80030bc:	4b29      	ldr	r3, [pc, #164]	; (8003164 <vIndicatorPanel_Out+0xbc>)
 80030be:	2200      	movs	r2, #0
 80030c0:	81da      	strh	r2, [r3, #14]
	WelderUnit.Delay_s = 10;
 80030c2:	4b28      	ldr	r3, [pc, #160]	; (8003164 <vIndicatorPanel_Out+0xbc>)
 80030c4:	220a      	movs	r2, #10
 80030c6:	729a      	strb	r2, [r3, #10]
	WelderUnit.Speed = 120;
 80030c8:	4b26      	ldr	r3, [pc, #152]	; (8003164 <vIndicatorPanel_Out+0xbc>)
 80030ca:	2278      	movs	r2, #120	; 0x78
 80030cc:	80da      	strh	r2, [r3, #6]
	WelderUnit.Delay_f = 20;
 80030ce:	4b25      	ldr	r3, [pc, #148]	; (8003164 <vIndicatorPanel_Out+0xbc>)
 80030d0:	2214      	movs	r2, #20
 80030d2:	72da      	strb	r2, [r3, #11]
	WelderUnit.Program = 4;
 80030d4:	4b23      	ldr	r3, [pc, #140]	; (8003164 <vIndicatorPanel_Out+0xbc>)
 80030d6:	2204      	movs	r2, #4
 80030d8:	819a      	strh	r2, [r3, #12]

	WelderUnit.GoTo = WelderUnit.Xf;
 80030da:	4b22      	ldr	r3, [pc, #136]	; (8003164 <vIndicatorPanel_Out+0xbc>)
 80030dc:	885a      	ldrh	r2, [r3, #2]
 80030de:	4b21      	ldr	r3, [pc, #132]	; (8003164 <vIndicatorPanel_Out+0xbc>)
 80030e0:	811a      	strh	r2, [r3, #8]
	WelderUnit.Position = 0;
 80030e2:	4b20      	ldr	r3, [pc, #128]	; (8003164 <vIndicatorPanel_Out+0xbc>)
 80030e4:	2200      	movs	r2, #0
 80030e6:	809a      	strh	r2, [r3, #4]
	WelderUnit.State = 0;
 80030e8:	4b1e      	ldr	r3, [pc, #120]	; (8003164 <vIndicatorPanel_Out+0xbc>)
 80030ea:	2200      	movs	r2, #0
 80030ec:	741a      	strb	r2, [r3, #16]

	WelderUnit.IndicatorPanel.Brightness = 2;
 80030ee:	4b1d      	ldr	r3, [pc, #116]	; (8003164 <vIndicatorPanel_Out+0xbc>)
 80030f0:	2202      	movs	r2, #2
 80030f2:	771a      	strb	r2, [r3, #28]

//	WelderUnit.IndicatorPanel.LEDsState |= LED_AUTO;
//
//	WelderUnit.IndicatorPanel.LEDsState |= LED_PARKING;

	IndicatorPanel_Ini();
 80030f4:	f7fd fce2 	bl	8000abc <IndicatorPanel_Ini>

	IndicatorPanel_SetBrightness(&WelderUnit.IndicatorPanel);
 80030f8:	481b      	ldr	r0, [pc, #108]	; (8003168 <vIndicatorPanel_Out+0xc0>)
 80030fa:	f7fd fdc9 	bl	8000c90 <IndicatorPanel_SetBrightness>

	vTaskDelay(100 / portTICK_RATE_MS);
 80030fe:	2064      	movs	r0, #100	; 0x64
 8003100:	f004 fdee 	bl	8007ce0 <vTaskDelay>

		//PCB_LEDs_OUT(PCB_LEDs_OUT(LEDs_val))



		if (WelderUnit.State & 0x01) // Если каретка в движении то отображать ее позицию
 8003104:	4b17      	ldr	r3, [pc, #92]	; (8003164 <vIndicatorPanel_Out+0xbc>)
 8003106:	7c1b      	ldrb	r3, [r3, #16]
 8003108:	f003 0301 	and.w	r3, r3, #1
 800310c:	2b00      	cmp	r3, #0
 800310e:	d003      	beq.n	8003118 <vIndicatorPanel_Out+0x70>
		{
			WelderUnit.IndicatorPanel.Xs = WelderUnit.Position;
 8003110:	4b14      	ldr	r3, [pc, #80]	; (8003164 <vIndicatorPanel_Out+0xbc>)
 8003112:	889a      	ldrh	r2, [r3, #4]
 8003114:	4b13      	ldr	r3, [pc, #76]	; (8003164 <vIndicatorPanel_Out+0xbc>)
 8003116:	825a      	strh	r2, [r3, #18]
		}

		if (!(WelderUnit.State & 0x01)) // Если каретка не в движении то отображать точку начала варки
 8003118:	4b12      	ldr	r3, [pc, #72]	; (8003164 <vIndicatorPanel_Out+0xbc>)
 800311a:	7c1b      	ldrb	r3, [r3, #16]
 800311c:	f003 0301 	and.w	r3, r3, #1
 8003120:	2b00      	cmp	r3, #0
 8003122:	d103      	bne.n	800312c <vIndicatorPanel_Out+0x84>
		{
			WelderUnit.IndicatorPanel.Xs = WelderUnit.Xs;
 8003124:	4b0f      	ldr	r3, [pc, #60]	; (8003164 <vIndicatorPanel_Out+0xbc>)
 8003126:	881a      	ldrh	r2, [r3, #0]
 8003128:	4b0e      	ldr	r3, [pc, #56]	; (8003164 <vIndicatorPanel_Out+0xbc>)
 800312a:	825a      	strh	r2, [r3, #18]
		}

		WelderUnit.IndicatorPanel.Xf = WelderUnit.Xf;
 800312c:	4b0d      	ldr	r3, [pc, #52]	; (8003164 <vIndicatorPanel_Out+0xbc>)
 800312e:	885a      	ldrh	r2, [r3, #2]
 8003130:	4b0c      	ldr	r3, [pc, #48]	; (8003164 <vIndicatorPanel_Out+0xbc>)
 8003132:	829a      	strh	r2, [r3, #20]
		WelderUnit.IndicatorPanel.Delay_s = WelderUnit.Delay_s;
 8003134:	4b0b      	ldr	r3, [pc, #44]	; (8003164 <vIndicatorPanel_Out+0xbc>)
 8003136:	7a9a      	ldrb	r2, [r3, #10]
 8003138:	4b0a      	ldr	r3, [pc, #40]	; (8003164 <vIndicatorPanel_Out+0xbc>)
 800313a:	759a      	strb	r2, [r3, #22]
		WelderUnit.IndicatorPanel.Speed = WelderUnit.Speed;
 800313c:	4b09      	ldr	r3, [pc, #36]	; (8003164 <vIndicatorPanel_Out+0xbc>)
 800313e:	88da      	ldrh	r2, [r3, #6]
 8003140:	4b08      	ldr	r3, [pc, #32]	; (8003164 <vIndicatorPanel_Out+0xbc>)
 8003142:	831a      	strh	r2, [r3, #24]
		WelderUnit.IndicatorPanel.Delay_f = WelderUnit.Delay_f;
 8003144:	4b07      	ldr	r3, [pc, #28]	; (8003164 <vIndicatorPanel_Out+0xbc>)
 8003146:	7ada      	ldrb	r2, [r3, #11]
 8003148:	4b06      	ldr	r3, [pc, #24]	; (8003164 <vIndicatorPanel_Out+0xbc>)
 800314a:	75da      	strb	r2, [r3, #23]
		WelderUnit.IndicatorPanel.Program = WelderUnit.Program;
 800314c:	4b05      	ldr	r3, [pc, #20]	; (8003164 <vIndicatorPanel_Out+0xbc>)
 800314e:	899a      	ldrh	r2, [r3, #12]
 8003150:	4b04      	ldr	r3, [pc, #16]	; (8003164 <vIndicatorPanel_Out+0xbc>)
 8003152:	835a      	strh	r2, [r3, #26]


		IndicatorPanel_SetValue(&WelderUnit.IndicatorPanel);
 8003154:	4804      	ldr	r0, [pc, #16]	; (8003168 <vIndicatorPanel_Out+0xc0>)
 8003156:	f7fd fccb 	bl	8000af0 <IndicatorPanel_SetValue>

		vTaskDelay(100 / portTICK_RATE_MS);
 800315a:	2064      	movs	r0, #100	; 0x64
 800315c:	f004 fdc0 	bl	8007ce0 <vTaskDelay>
		if (WelderUnit.State & 0x01) // Если каретка в движении то отображать ее позицию
 8003160:	e7d0      	b.n	8003104 <vIndicatorPanel_Out+0x5c>
 8003162:	bf00      	nop
 8003164:	2000453c 	.word	0x2000453c
 8003168:	2000454e 	.word	0x2000454e

0800316c <vBuzzer_beep>:
	vTaskDelete(NULL);
}


void vBuzzer_beep(void *pvParameters)
{
 800316c:	b580      	push	{r7, lr}
 800316e:	b084      	sub	sp, #16
 8003170:	af00      	add	r7, sp, #0
 8003172:	6078      	str	r0, [r7, #4]
	uint8_t lReceivedValue;
	portBASE_TYPE xStatus;

	for(;;)
	{
		xStatus = xQueueReceive( qBeepMode, &lReceivedValue, portMAX_DELAY );
 8003174:	4b58      	ldr	r3, [pc, #352]	; (80032d8 <vBuzzer_beep+0x16c>)
 8003176:	681b      	ldr	r3, [r3, #0]
 8003178:	f107 010b 	add.w	r1, r7, #11
 800317c:	f04f 32ff 	mov.w	r2, #4294967295
 8003180:	4618      	mov	r0, r3
 8003182:	f004 f8bf 	bl	8007304 <xQueueReceive>
 8003186:	60f8      	str	r0, [r7, #12]

		if( xStatus == pdPASS ) // Если данные были успешно приняты из очереди
 8003188:	68fb      	ldr	r3, [r7, #12]
 800318a:	2b01      	cmp	r3, #1
 800318c:	f040 80a0 	bne.w	80032d0 <vBuzzer_beep+0x164>
		{

		switch(lReceivedValue)
 8003190:	7afb      	ldrb	r3, [r7, #11]
 8003192:	2b05      	cmp	r3, #5
 8003194:	f200 809d 	bhi.w	80032d2 <vBuzzer_beep+0x166>
 8003198:	a201      	add	r2, pc, #4	; (adr r2, 80031a0 <vBuzzer_beep+0x34>)
 800319a:	f852 f023 	ldr.w	pc, [r2, r3, lsl #2]
 800319e:	bf00      	nop
 80031a0:	080031b9 	.word	0x080031b9
 80031a4:	080031c5 	.word	0x080031c5
 80031a8:	080031e7 	.word	0x080031e7
 80031ac:	08003209 	.word	0x08003209
 80031b0:	0800324b 	.word	0x0800324b
 80031b4:	080032ad 	.word	0x080032ad
		{
		case beep_off:
		{
			BUZZER_OFF
 80031b8:	2200      	movs	r2, #0
 80031ba:	2110      	movs	r1, #16
 80031bc:	4847      	ldr	r0, [pc, #284]	; (80032dc <vBuzzer_beep+0x170>)
 80031be:	f001 fa38 	bl	8004632 <HAL_GPIO_WritePin>
			break;
 80031c2:	e086      	b.n	80032d2 <vBuzzer_beep+0x166>
		}

		case beep_click:
		{
			BUZZER_ON
 80031c4:	2201      	movs	r2, #1
 80031c6:	2110      	movs	r1, #16
 80031c8:	4844      	ldr	r0, [pc, #272]	; (80032dc <vBuzzer_beep+0x170>)
 80031ca:	f001 fa32 	bl	8004632 <HAL_GPIO_WritePin>
			vTaskDelay(10 / portTICK_RATE_MS);
 80031ce:	200a      	movs	r0, #10
 80031d0:	f004 fd86 	bl	8007ce0 <vTaskDelay>
			BUZZER_OFF
 80031d4:	2200      	movs	r2, #0
 80031d6:	2110      	movs	r1, #16
 80031d8:	4840      	ldr	r0, [pc, #256]	; (80032dc <vBuzzer_beep+0x170>)
 80031da:	f001 fa2a 	bl	8004632 <HAL_GPIO_WritePin>
			vTaskDelay(50 / portTICK_RATE_MS);
 80031de:	2032      	movs	r0, #50	; 0x32
 80031e0:	f004 fd7e 	bl	8007ce0 <vTaskDelay>
			break;
 80031e4:	e075      	b.n	80032d2 <vBuzzer_beep+0x166>
		}

		case beep_1short:
		{
			BUZZER_ON
 80031e6:	2201      	movs	r2, #1
 80031e8:	2110      	movs	r1, #16
 80031ea:	483c      	ldr	r0, [pc, #240]	; (80032dc <vBuzzer_beep+0x170>)
 80031ec:	f001 fa21 	bl	8004632 <HAL_GPIO_WritePin>
			vTaskDelay(100 / portTICK_RATE_MS);
 80031f0:	2064      	movs	r0, #100	; 0x64
 80031f2:	f004 fd75 	bl	8007ce0 <vTaskDelay>
			BUZZER_OFF
 80031f6:	2200      	movs	r2, #0
 80031f8:	2110      	movs	r1, #16
 80031fa:	4838      	ldr	r0, [pc, #224]	; (80032dc <vBuzzer_beep+0x170>)
 80031fc:	f001 fa19 	bl	8004632 <HAL_GPIO_WritePin>
			vTaskDelay(100 / portTICK_RATE_MS);
 8003200:	2064      	movs	r0, #100	; 0x64
 8003202:	f004 fd6d 	bl	8007ce0 <vTaskDelay>
			break;
 8003206:	e064      	b.n	80032d2 <vBuzzer_beep+0x166>
		}

		case beep_2short:
		{
			BUZZER_ON
 8003208:	2201      	movs	r2, #1
 800320a:	2110      	movs	r1, #16
 800320c:	4833      	ldr	r0, [pc, #204]	; (80032dc <vBuzzer_beep+0x170>)
 800320e:	f001 fa10 	bl	8004632 <HAL_GPIO_WritePin>
			vTaskDelay(100 / portTICK_RATE_MS);
 8003212:	2064      	movs	r0, #100	; 0x64
 8003214:	f004 fd64 	bl	8007ce0 <vTaskDelay>
			BUZZER_OFF
 8003218:	2200      	movs	r2, #0
 800321a:	2110      	movs	r1, #16
 800321c:	482f      	ldr	r0, [pc, #188]	; (80032dc <vBuzzer_beep+0x170>)
 800321e:	f001 fa08 	bl	8004632 <HAL_GPIO_WritePin>
			vTaskDelay(100 / portTICK_RATE_MS);
 8003222:	2064      	movs	r0, #100	; 0x64
 8003224:	f004 fd5c 	bl	8007ce0 <vTaskDelay>

			BUZZER_ON
 8003228:	2201      	movs	r2, #1
 800322a:	2110      	movs	r1, #16
 800322c:	482b      	ldr	r0, [pc, #172]	; (80032dc <vBuzzer_beep+0x170>)
 800322e:	f001 fa00 	bl	8004632 <HAL_GPIO_WritePin>
			vTaskDelay(100 / portTICK_RATE_MS);
 8003232:	2064      	movs	r0, #100	; 0x64
 8003234:	f004 fd54 	bl	8007ce0 <vTaskDelay>
			BUZZER_OFF
 8003238:	2200      	movs	r2, #0
 800323a:	2110      	movs	r1, #16
 800323c:	4827      	ldr	r0, [pc, #156]	; (80032dc <vBuzzer_beep+0x170>)
 800323e:	f001 f9f8 	bl	8004632 <HAL_GPIO_WritePin>
			vTaskDelay(100 / portTICK_RATE_MS);
 8003242:	2064      	movs	r0, #100	; 0x64
 8003244:	f004 fd4c 	bl	8007ce0 <vTaskDelay>
			break;
 8003248:	e043      	b.n	80032d2 <vBuzzer_beep+0x166>
		}

		case beep_3short:
		{
			BUZZER_ON
 800324a:	2201      	movs	r2, #1
 800324c:	2110      	movs	r1, #16
 800324e:	4823      	ldr	r0, [pc, #140]	; (80032dc <vBuzzer_beep+0x170>)
 8003250:	f001 f9ef 	bl	8004632 <HAL_GPIO_WritePin>
			vTaskDelay(100 / portTICK_RATE_MS);
 8003254:	2064      	movs	r0, #100	; 0x64
 8003256:	f004 fd43 	bl	8007ce0 <vTaskDelay>
			BUZZER_OFF
 800325a:	2200      	movs	r2, #0
 800325c:	2110      	movs	r1, #16
 800325e:	481f      	ldr	r0, [pc, #124]	; (80032dc <vBuzzer_beep+0x170>)
 8003260:	f001 f9e7 	bl	8004632 <HAL_GPIO_WritePin>
			vTaskDelay(100 / portTICK_RATE_MS);
 8003264:	2064      	movs	r0, #100	; 0x64
 8003266:	f004 fd3b 	bl	8007ce0 <vTaskDelay>

			BUZZER_ON
 800326a:	2201      	movs	r2, #1
 800326c:	2110      	movs	r1, #16
 800326e:	481b      	ldr	r0, [pc, #108]	; (80032dc <vBuzzer_beep+0x170>)
 8003270:	f001 f9df 	bl	8004632 <HAL_GPIO_WritePin>
			vTaskDelay(100 / portTICK_RATE_MS);
 8003274:	2064      	movs	r0, #100	; 0x64
 8003276:	f004 fd33 	bl	8007ce0 <vTaskDelay>
			BUZZER_OFF
 800327a:	2200      	movs	r2, #0
 800327c:	2110      	movs	r1, #16
 800327e:	4817      	ldr	r0, [pc, #92]	; (80032dc <vBuzzer_beep+0x170>)
 8003280:	f001 f9d7 	bl	8004632 <HAL_GPIO_WritePin>
			vTaskDelay(100 / portTICK_RATE_MS);
 8003284:	2064      	movs	r0, #100	; 0x64
 8003286:	f004 fd2b 	bl	8007ce0 <vTaskDelay>

			BUZZER_ON
 800328a:	2201      	movs	r2, #1
 800328c:	2110      	movs	r1, #16
 800328e:	4813      	ldr	r0, [pc, #76]	; (80032dc <vBuzzer_beep+0x170>)
 8003290:	f001 f9cf 	bl	8004632 <HAL_GPIO_WritePin>
			vTaskDelay(100 / portTICK_RATE_MS);
 8003294:	2064      	movs	r0, #100	; 0x64
 8003296:	f004 fd23 	bl	8007ce0 <vTaskDelay>
			BUZZER_OFF
 800329a:	2200      	movs	r2, #0
 800329c:	2110      	movs	r1, #16
 800329e:	480f      	ldr	r0, [pc, #60]	; (80032dc <vBuzzer_beep+0x170>)
 80032a0:	f001 f9c7 	bl	8004632 <HAL_GPIO_WritePin>
			vTaskDelay(100 / portTICK_RATE_MS);
 80032a4:	2064      	movs	r0, #100	; 0x64
 80032a6:	f004 fd1b 	bl	8007ce0 <vTaskDelay>
			break;
 80032aa:	e012      	b.n	80032d2 <vBuzzer_beep+0x166>
		}

		case beep_long:
		{
			BUZZER_ON
 80032ac:	2201      	movs	r2, #1
 80032ae:	2110      	movs	r1, #16
 80032b0:	480a      	ldr	r0, [pc, #40]	; (80032dc <vBuzzer_beep+0x170>)
 80032b2:	f001 f9be 	bl	8004632 <HAL_GPIO_WritePin>
			vTaskDelay(500 / portTICK_RATE_MS);
 80032b6:	f44f 70fa 	mov.w	r0, #500	; 0x1f4
 80032ba:	f004 fd11 	bl	8007ce0 <vTaskDelay>
			BUZZER_OFF
 80032be:	2200      	movs	r2, #0
 80032c0:	2110      	movs	r1, #16
 80032c2:	4806      	ldr	r0, [pc, #24]	; (80032dc <vBuzzer_beep+0x170>)
 80032c4:	f001 f9b5 	bl	8004632 <HAL_GPIO_WritePin>
			vTaskDelay(200 / portTICK_RATE_MS);
 80032c8:	20c8      	movs	r0, #200	; 0xc8
 80032ca:	f004 fd09 	bl	8007ce0 <vTaskDelay>
			break;
 80032ce:	e000      	b.n	80032d2 <vBuzzer_beep+0x166>
		}

		}

		}
 80032d0:	bf00      	nop

		vTaskMissedYield(); // Переключение контекста.
 80032d2:	f005 f80d 	bl	80082f0 <vTaskMissedYield>
		xStatus = xQueueReceive( qBeepMode, &lReceivedValue, portMAX_DELAY );
 80032d6:	e74d      	b.n	8003174 <vBuzzer_beep+0x8>
 80032d8:	20004538 	.word	0x20004538
 80032dc:	40010800 	.word	0x40010800

080032e0 <main>:
/**
  * @brief  The application entry point.
  * @retval int
  */
int main(void)
{
 80032e0:	b580      	push	{r7, lr}
 80032e2:	af00      	add	r7, sp, #0
  /* USER CODE END 1 */

  /* MCU Configuration--------------------------------------------------------*/

  /* Reset of all peripherals, Initializes the Flash interface and the Systick. */
  HAL_Init();
 80032e4:	f000 fb82 	bl	80039ec <HAL_Init>
  /* USER CODE BEGIN Init */

  /* USER CODE END Init */

  /* Configure the system clock */
  SystemClock_Config();
 80032e8:	f000 f81a 	bl	8003320 <SystemClock_Config>
  /* USER CODE BEGIN SysInit */

  /* USER CODE END SysInit */

  /* Initialize all configured peripherals */
  MX_GPIO_Init();
 80032ec:	f000 f90c 	bl	8003508 <MX_GPIO_Init>
  MX_SPI1_Init();
 80032f0:	f000 f85c 	bl	80033ac <MX_SPI1_Init>
  MX_TIM3_Init();
 80032f4:	f000 f892 	bl	800341c <MX_TIM3_Init>
  /* USER CODE BEGIN 2 */

  /* USER CODE END 2 */

  /* Init scheduler */
  osKernelInitialize();
 80032f8:	f003 fc0c 	bl	8006b14 <osKernelInitialize>
  /* add queues, ... */
  /* USER CODE END RTOS_QUEUES */

  /* Create the thread(s) */
  /* creation of defaultTask */
  defaultTaskHandle = osThreadNew(StartDefaultTask, NULL, &defaultTask_attributes);
 80032fc:	4a05      	ldr	r2, [pc, #20]	; (8003314 <main+0x34>)
 80032fe:	2100      	movs	r1, #0
 8003300:	4805      	ldr	r0, [pc, #20]	; (8003318 <main+0x38>)
 8003302:	f003 fc39 	bl	8006b78 <osThreadNew>
 8003306:	4603      	mov	r3, r0
 8003308:	4a04      	ldr	r2, [pc, #16]	; (800331c <main+0x3c>)
 800330a:	6013      	str	r3, [r2, #0]

  /* USER CODE BEGIN RTOS_THREADS */
  /* add threads, ... */
  freeRTOS_Tasks_Ini();
 800330c:	f7fe fa54 	bl	80017b8 <freeRTOS_Tasks_Ini>
  //osKernelStart();

  /* We should never get here as control is now taken by the scheduler */
  /* Infinite loop */
  /* USER CODE BEGIN WHILE */
  while (1)
 8003310:	e7fe      	b.n	8003310 <main+0x30>
 8003312:	bf00      	nop
 8003314:	080093e0 	.word	0x080093e0
 8003318:	08003701 	.word	0x08003701
 800331c:	20004dd0 	.word	0x20004dd0

08003320 <SystemClock_Config>:
/**
  * @brief System Clock Configuration
  * @retval None
  */
void SystemClock_Config(void)
{
 8003320:	b580      	push	{r7, lr}
 8003322:	b090      	sub	sp, #64	; 0x40
 8003324:	af00      	add	r7, sp, #0
  RCC_OscInitTypeDef RCC_OscInitStruct = {0};
 8003326:	f107 0318 	add.w	r3, r7, #24
 800332a:	2228      	movs	r2, #40	; 0x28
 800332c:	2100      	movs	r1, #0
 800332e:	4618      	mov	r0, r3
 8003330:	f005 ffe8 	bl	8009304 <memset>
  RCC_ClkInitTypeDef RCC_ClkInitStruct = {0};
 8003334:	1d3b      	adds	r3, r7, #4
 8003336:	2200      	movs	r2, #0
 8003338:	601a      	str	r2, [r3, #0]
 800333a:	605a      	str	r2, [r3, #4]
 800333c:	609a      	str	r2, [r3, #8]
 800333e:	60da      	str	r2, [r3, #12]
 8003340:	611a      	str	r2, [r3, #16]

  /** Initializes the RCC Oscillators according to the specified parameters
  * in the RCC_OscInitTypeDef structure.
  */
  RCC_OscInitStruct.OscillatorType = RCC_OSCILLATORTYPE_HSE;
 8003342:	2301      	movs	r3, #1
 8003344:	61bb      	str	r3, [r7, #24]
  RCC_OscInitStruct.HSEState = RCC_HSE_ON;
 8003346:	f44f 3380 	mov.w	r3, #65536	; 0x10000
 800334a:	61fb      	str	r3, [r7, #28]
  RCC_OscInitStruct.HSEPredivValue = RCC_HSE_PREDIV_DIV1;
 800334c:	2300      	movs	r3, #0
 800334e:	623b      	str	r3, [r7, #32]
  RCC_OscInitStruct.HSIState = RCC_HSI_ON;
 8003350:	2301      	movs	r3, #1
 8003352:	62bb      	str	r3, [r7, #40]	; 0x28
  RCC_OscInitStruct.PLL.PLLState = RCC_PLL_ON;
 8003354:	2302      	movs	r3, #2
 8003356:	637b      	str	r3, [r7, #52]	; 0x34
  RCC_OscInitStruct.PLL.PLLSource = RCC_PLLSOURCE_HSE;
 8003358:	f44f 3380 	mov.w	r3, #65536	; 0x10000
 800335c:	63bb      	str	r3, [r7, #56]	; 0x38
  RCC_OscInitStruct.PLL.PLLMUL = RCC_PLL_MUL9;
 800335e:	f44f 13e0 	mov.w	r3, #1835008	; 0x1c0000
 8003362:	63fb      	str	r3, [r7, #60]	; 0x3c
  if (HAL_RCC_OscConfig(&RCC_OscInitStruct) != HAL_OK)
 8003364:	f107 0318 	add.w	r3, r7, #24
 8003368:	4618      	mov	r0, r3
 800336a:	f001 f993 	bl	8004694 <HAL_RCC_OscConfig>
 800336e:	4603      	mov	r3, r0
 8003370:	2b00      	cmp	r3, #0
 8003372:	d001      	beq.n	8003378 <SystemClock_Config+0x58>
  {
    Error_Handler();
 8003374:	f000 f9cd 	bl	8003712 <Error_Handler>
  }
  /** Initializes the CPU, AHB and APB buses clocks
  */
  RCC_ClkInitStruct.ClockType = RCC_CLOCKTYPE_HCLK|RCC_CLOCKTYPE_SYSCLK
 8003378:	230f      	movs	r3, #15
 800337a:	607b      	str	r3, [r7, #4]
                              |RCC_CLOCKTYPE_PCLK1|RCC_CLOCKTYPE_PCLK2;
  RCC_ClkInitStruct.SYSCLKSource = RCC_SYSCLKSOURCE_PLLCLK;
 800337c:	2302      	movs	r3, #2
 800337e:	60bb      	str	r3, [r7, #8]
  RCC_ClkInitStruct.AHBCLKDivider = RCC_SYSCLK_DIV1;
 8003380:	2300      	movs	r3, #0
 8003382:	60fb      	str	r3, [r7, #12]
  RCC_ClkInitStruct.APB1CLKDivider = RCC_HCLK_DIV2;
 8003384:	f44f 6380 	mov.w	r3, #1024	; 0x400
 8003388:	613b      	str	r3, [r7, #16]
  RCC_ClkInitStruct.APB2CLKDivider = RCC_HCLK_DIV1;
 800338a:	2300      	movs	r3, #0
 800338c:	617b      	str	r3, [r7, #20]

  if (HAL_RCC_ClockConfig(&RCC_ClkInitStruct, FLASH_LATENCY_2) != HAL_OK)
 800338e:	1d3b      	adds	r3, r7, #4
 8003390:	2102      	movs	r1, #2
 8003392:	4618      	mov	r0, r3
 8003394:	f001 fbfe 	bl	8004b94 <HAL_RCC_ClockConfig>
 8003398:	4603      	mov	r3, r0
 800339a:	2b00      	cmp	r3, #0
 800339c:	d001      	beq.n	80033a2 <SystemClock_Config+0x82>
  {
    Error_Handler();
 800339e:	f000 f9b8 	bl	8003712 <Error_Handler>
  }
}
 80033a2:	bf00      	nop
 80033a4:	3740      	adds	r7, #64	; 0x40
 80033a6:	46bd      	mov	sp, r7
 80033a8:	bd80      	pop	{r7, pc}
	...

080033ac <MX_SPI1_Init>:
  * @brief SPI1 Initialization Function
  * @param None
  * @retval None
  */
static void MX_SPI1_Init(void)
{
 80033ac:	b580      	push	{r7, lr}
 80033ae:	af00      	add	r7, sp, #0

  /* USER CODE BEGIN SPI1_Init 1 */

  /* USER CODE END SPI1_Init 1 */
  /* SPI1 parameter configuration*/
  hspi1.Instance = SPI1;
 80033b0:	4b18      	ldr	r3, [pc, #96]	; (8003414 <MX_SPI1_Init+0x68>)
 80033b2:	4a19      	ldr	r2, [pc, #100]	; (8003418 <MX_SPI1_Init+0x6c>)
 80033b4:	601a      	str	r2, [r3, #0]
  hspi1.Init.Mode = SPI_MODE_MASTER;
 80033b6:	4b17      	ldr	r3, [pc, #92]	; (8003414 <MX_SPI1_Init+0x68>)
 80033b8:	f44f 7282 	mov.w	r2, #260	; 0x104
 80033bc:	605a      	str	r2, [r3, #4]
  hspi1.Init.Direction = SPI_DIRECTION_1LINE;
 80033be:	4b15      	ldr	r3, [pc, #84]	; (8003414 <MX_SPI1_Init+0x68>)
 80033c0:	f44f 4200 	mov.w	r2, #32768	; 0x8000
 80033c4:	609a      	str	r2, [r3, #8]
  hspi1.Init.DataSize = SPI_DATASIZE_8BIT;
 80033c6:	4b13      	ldr	r3, [pc, #76]	; (8003414 <MX_SPI1_Init+0x68>)
 80033c8:	2200      	movs	r2, #0
 80033ca:	60da      	str	r2, [r3, #12]
  hspi1.Init.CLKPolarity = SPI_POLARITY_HIGH;
 80033cc:	4b11      	ldr	r3, [pc, #68]	; (8003414 <MX_SPI1_Init+0x68>)
 80033ce:	2202      	movs	r2, #2
 80033d0:	611a      	str	r2, [r3, #16]
  hspi1.Init.CLKPhase = SPI_PHASE_2EDGE;
 80033d2:	4b10      	ldr	r3, [pc, #64]	; (8003414 <MX_SPI1_Init+0x68>)
 80033d4:	2201      	movs	r2, #1
 80033d6:	615a      	str	r2, [r3, #20]
  hspi1.Init.NSS = SPI_NSS_SOFT;
 80033d8:	4b0e      	ldr	r3, [pc, #56]	; (8003414 <MX_SPI1_Init+0x68>)
 80033da:	f44f 7200 	mov.w	r2, #512	; 0x200
 80033de:	619a      	str	r2, [r3, #24]
  hspi1.Init.BaudRatePrescaler = SPI_BAUDRATEPRESCALER_256;
 80033e0:	4b0c      	ldr	r3, [pc, #48]	; (8003414 <MX_SPI1_Init+0x68>)
 80033e2:	2238      	movs	r2, #56	; 0x38
 80033e4:	61da      	str	r2, [r3, #28]
  hspi1.Init.FirstBit = SPI_FIRSTBIT_LSB;
 80033e6:	4b0b      	ldr	r3, [pc, #44]	; (8003414 <MX_SPI1_Init+0x68>)
 80033e8:	2280      	movs	r2, #128	; 0x80
 80033ea:	621a      	str	r2, [r3, #32]
  hspi1.Init.TIMode = SPI_TIMODE_DISABLE;
 80033ec:	4b09      	ldr	r3, [pc, #36]	; (8003414 <MX_SPI1_Init+0x68>)
 80033ee:	2200      	movs	r2, #0
 80033f0:	625a      	str	r2, [r3, #36]	; 0x24
  hspi1.Init.CRCCalculation = SPI_CRCCALCULATION_DISABLE;
 80033f2:	4b08      	ldr	r3, [pc, #32]	; (8003414 <MX_SPI1_Init+0x68>)
 80033f4:	2200      	movs	r2, #0
 80033f6:	629a      	str	r2, [r3, #40]	; 0x28
  hspi1.Init.CRCPolynomial = 10;
 80033f8:	4b06      	ldr	r3, [pc, #24]	; (8003414 <MX_SPI1_Init+0x68>)
 80033fa:	220a      	movs	r2, #10
 80033fc:	62da      	str	r2, [r3, #44]	; 0x2c
  if (HAL_SPI_Init(&hspi1) != HAL_OK)
 80033fe:	4805      	ldr	r0, [pc, #20]	; (8003414 <MX_SPI1_Init+0x68>)
 8003400:	f001 fd30 	bl	8004e64 <HAL_SPI_Init>
 8003404:	4603      	mov	r3, r0
 8003406:	2b00      	cmp	r3, #0
 8003408:	d001      	beq.n	800340e <MX_SPI1_Init+0x62>
  {
    Error_Handler();
 800340a:	f000 f982 	bl	8003712 <Error_Handler>
  }
  /* USER CODE BEGIN SPI1_Init 2 */

  /* USER CODE END SPI1_Init 2 */

}
 800340e:	bf00      	nop
 8003410:	bd80      	pop	{r7, pc}
 8003412:	bf00      	nop
 8003414:	20004e1c 	.word	0x20004e1c
 8003418:	40013000 	.word	0x40013000

0800341c <MX_TIM3_Init>:
  * @brief TIM3 Initialization Function
  * @param None
  * @retval None
  */
static void MX_TIM3_Init(void)
{
 800341c:	b580      	push	{r7, lr}
 800341e:	b08e      	sub	sp, #56	; 0x38
 8003420:	af00      	add	r7, sp, #0

  /* USER CODE BEGIN TIM3_Init 0 */

  /* USER CODE END TIM3_Init 0 */

  TIM_ClockConfigTypeDef sClockSourceConfig = {0};
 8003422:	f107 0328 	add.w	r3, r7, #40	; 0x28
 8003426:	2200      	movs	r2, #0
 8003428:	601a      	str	r2, [r3, #0]
 800342a:	605a      	str	r2, [r3, #4]
 800342c:	609a      	str	r2, [r3, #8]
 800342e:	60da      	str	r2, [r3, #12]
  TIM_MasterConfigTypeDef sMasterConfig = {0};
 8003430:	f107 0320 	add.w	r3, r7, #32
 8003434:	2200      	movs	r2, #0
 8003436:	601a      	str	r2, [r3, #0]
 8003438:	605a      	str	r2, [r3, #4]
  TIM_OC_InitTypeDef sConfigOC = {0};
 800343a:	1d3b      	adds	r3, r7, #4
 800343c:	2200      	movs	r2, #0
 800343e:	601a      	str	r2, [r3, #0]
 8003440:	605a      	str	r2, [r3, #4]
 8003442:	609a      	str	r2, [r3, #8]
 8003444:	60da      	str	r2, [r3, #12]
 8003446:	611a      	str	r2, [r3, #16]
 8003448:	615a      	str	r2, [r3, #20]
 800344a:	619a      	str	r2, [r3, #24]

  /* USER CODE BEGIN TIM3_Init 1 */

  /* USER CODE END TIM3_Init 1 */
  htim3.Instance = TIM3;
 800344c:	4b2c      	ldr	r3, [pc, #176]	; (8003500 <MX_TIM3_Init+0xe4>)
 800344e:	4a2d      	ldr	r2, [pc, #180]	; (8003504 <MX_TIM3_Init+0xe8>)
 8003450:	601a      	str	r2, [r3, #0]
  htim3.Init.Prescaler = 71;
 8003452:	4b2b      	ldr	r3, [pc, #172]	; (8003500 <MX_TIM3_Init+0xe4>)
 8003454:	2247      	movs	r2, #71	; 0x47
 8003456:	605a      	str	r2, [r3, #4]
  htim3.Init.CounterMode = TIM_COUNTERMODE_UP;
 8003458:	4b29      	ldr	r3, [pc, #164]	; (8003500 <MX_TIM3_Init+0xe4>)
 800345a:	2200      	movs	r2, #0
 800345c:	609a      	str	r2, [r3, #8]
  htim3.Init.Period = 65535;
 800345e:	4b28      	ldr	r3, [pc, #160]	; (8003500 <MX_TIM3_Init+0xe4>)
 8003460:	f64f 72ff 	movw	r2, #65535	; 0xffff
 8003464:	60da      	str	r2, [r3, #12]
  htim3.Init.ClockDivision = TIM_CLOCKDIVISION_DIV1;
 8003466:	4b26      	ldr	r3, [pc, #152]	; (8003500 <MX_TIM3_Init+0xe4>)
 8003468:	2200      	movs	r2, #0
 800346a:	611a      	str	r2, [r3, #16]
  htim3.Init.AutoReloadPreload = TIM_AUTORELOAD_PRELOAD_DISABLE;
 800346c:	4b24      	ldr	r3, [pc, #144]	; (8003500 <MX_TIM3_Init+0xe4>)
 800346e:	2200      	movs	r2, #0
 8003470:	619a      	str	r2, [r3, #24]
  if (HAL_TIM_Base_Init(&htim3) != HAL_OK)
 8003472:	4823      	ldr	r0, [pc, #140]	; (8003500 <MX_TIM3_Init+0xe4>)
 8003474:	f002 fb66 	bl	8005b44 <HAL_TIM_Base_Init>
 8003478:	4603      	mov	r3, r0
 800347a:	2b00      	cmp	r3, #0
 800347c:	d001      	beq.n	8003482 <MX_TIM3_Init+0x66>
  {
    Error_Handler();
 800347e:	f000 f948 	bl	8003712 <Error_Handler>
  }
  sClockSourceConfig.ClockSource = TIM_CLOCKSOURCE_INTERNAL;
 8003482:	f44f 5380 	mov.w	r3, #4096	; 0x1000
 8003486:	62bb      	str	r3, [r7, #40]	; 0x28
  if (HAL_TIM_ConfigClockSource(&htim3, &sClockSourceConfig) != HAL_OK)
 8003488:	f107 0328 	add.w	r3, r7, #40	; 0x28
 800348c:	4619      	mov	r1, r3
 800348e:	481c      	ldr	r0, [pc, #112]	; (8003500 <MX_TIM3_Init+0xe4>)
 8003490:	f002 fef0 	bl	8006274 <HAL_TIM_ConfigClockSource>
 8003494:	4603      	mov	r3, r0
 8003496:	2b00      	cmp	r3, #0
 8003498:	d001      	beq.n	800349e <MX_TIM3_Init+0x82>
  {
    Error_Handler();
 800349a:	f000 f93a 	bl	8003712 <Error_Handler>
  }
  if (HAL_TIM_PWM_Init(&htim3) != HAL_OK)
 800349e:	4818      	ldr	r0, [pc, #96]	; (8003500 <MX_TIM3_Init+0xe4>)
 80034a0:	f002 fb9f 	bl	8005be2 <HAL_TIM_PWM_Init>
 80034a4:	4603      	mov	r3, r0
 80034a6:	2b00      	cmp	r3, #0
 80034a8:	d001      	beq.n	80034ae <MX_TIM3_Init+0x92>
  {
    Error_Handler();
 80034aa:	f000 f932 	bl	8003712 <Error_Handler>
  }
  sMasterConfig.MasterOutputTrigger = TIM_TRGO_RESET;
 80034ae:	2300      	movs	r3, #0
 80034b0:	623b      	str	r3, [r7, #32]
  sMasterConfig.MasterSlaveMode = TIM_MASTERSLAVEMODE_DISABLE;
 80034b2:	2300      	movs	r3, #0
 80034b4:	627b      	str	r3, [r7, #36]	; 0x24
  if (HAL_TIMEx_MasterConfigSynchronization(&htim3, &sMasterConfig) != HAL_OK)
 80034b6:	f107 0320 	add.w	r3, r7, #32
 80034ba:	4619      	mov	r1, r3
 80034bc:	4810      	ldr	r0, [pc, #64]	; (8003500 <MX_TIM3_Init+0xe4>)
 80034be:	f003 faab 	bl	8006a18 <HAL_TIMEx_MasterConfigSynchronization>
 80034c2:	4603      	mov	r3, r0
 80034c4:	2b00      	cmp	r3, #0
 80034c6:	d001      	beq.n	80034cc <MX_TIM3_Init+0xb0>
  {
    Error_Handler();
 80034c8:	f000 f923 	bl	8003712 <Error_Handler>
  }
  sConfigOC.OCMode = TIM_OCMODE_PWM1;
 80034cc:	2360      	movs	r3, #96	; 0x60
 80034ce:	607b      	str	r3, [r7, #4]
  sConfigOC.Pulse = 0;
 80034d0:	2300      	movs	r3, #0
 80034d2:	60bb      	str	r3, [r7, #8]
  sConfigOC.OCPolarity = TIM_OCPOLARITY_HIGH;
 80034d4:	2300      	movs	r3, #0
 80034d6:	60fb      	str	r3, [r7, #12]
  sConfigOC.OCFastMode = TIM_OCFAST_DISABLE;
 80034d8:	2300      	movs	r3, #0
 80034da:	617b      	str	r3, [r7, #20]
  if (HAL_TIM_PWM_ConfigChannel(&htim3, &sConfigOC, TIM_CHANNEL_1) != HAL_OK)
 80034dc:	1d3b      	adds	r3, r7, #4
 80034de:	2200      	movs	r2, #0
 80034e0:	4619      	mov	r1, r3
 80034e2:	4807      	ldr	r0, [pc, #28]	; (8003500 <MX_TIM3_Init+0xe4>)
 80034e4:	f002 fe08 	bl	80060f8 <HAL_TIM_PWM_ConfigChannel>
 80034e8:	4603      	mov	r3, r0
 80034ea:	2b00      	cmp	r3, #0
 80034ec:	d001      	beq.n	80034f2 <MX_TIM3_Init+0xd6>
  {
    Error_Handler();
 80034ee:	f000 f910 	bl	8003712 <Error_Handler>
  }
  /* USER CODE BEGIN TIM3_Init 2 */

  /* USER CODE END TIM3_Init 2 */
  HAL_TIM_MspPostInit(&htim3);
 80034f2:	4803      	ldr	r0, [pc, #12]	; (8003500 <MX_TIM3_Init+0xe4>)
 80034f4:	f000 f9b6 	bl	8003864 <HAL_TIM_MspPostInit>

}
 80034f8:	bf00      	nop
 80034fa:	3738      	adds	r7, #56	; 0x38
 80034fc:	46bd      	mov	sp, r7
 80034fe:	bd80      	pop	{r7, pc}
 8003500:	20004dd4 	.word	0x20004dd4
 8003504:	40000400 	.word	0x40000400

08003508 <MX_GPIO_Init>:
  * @brief GPIO Initialization Function
  * @param None
  * @retval None
  */
static void MX_GPIO_Init(void)
{
 8003508:	b580      	push	{r7, lr}
 800350a:	b088      	sub	sp, #32
 800350c:	af00      	add	r7, sp, #0
  GPIO_InitTypeDef GPIO_InitStruct = {0};
 800350e:	f107 0310 	add.w	r3, r7, #16
 8003512:	2200      	movs	r2, #0
 8003514:	601a      	str	r2, [r3, #0]
 8003516:	605a      	str	r2, [r3, #4]
 8003518:	609a      	str	r2, [r3, #8]
 800351a:	60da      	str	r2, [r3, #12]

  /* GPIO Ports Clock Enable */
  __HAL_RCC_GPIOD_CLK_ENABLE();
 800351c:	4b71      	ldr	r3, [pc, #452]	; (80036e4 <MX_GPIO_Init+0x1dc>)
 800351e:	699b      	ldr	r3, [r3, #24]
 8003520:	4a70      	ldr	r2, [pc, #448]	; (80036e4 <MX_GPIO_Init+0x1dc>)
 8003522:	f043 0320 	orr.w	r3, r3, #32
 8003526:	6193      	str	r3, [r2, #24]
 8003528:	4b6e      	ldr	r3, [pc, #440]	; (80036e4 <MX_GPIO_Init+0x1dc>)
 800352a:	699b      	ldr	r3, [r3, #24]
 800352c:	f003 0320 	and.w	r3, r3, #32
 8003530:	60fb      	str	r3, [r7, #12]
 8003532:	68fb      	ldr	r3, [r7, #12]
  __HAL_RCC_GPIOC_CLK_ENABLE();
 8003534:	4b6b      	ldr	r3, [pc, #428]	; (80036e4 <MX_GPIO_Init+0x1dc>)
 8003536:	699b      	ldr	r3, [r3, #24]
 8003538:	4a6a      	ldr	r2, [pc, #424]	; (80036e4 <MX_GPIO_Init+0x1dc>)
 800353a:	f043 0310 	orr.w	r3, r3, #16
 800353e:	6193      	str	r3, [r2, #24]
 8003540:	4b68      	ldr	r3, [pc, #416]	; (80036e4 <MX_GPIO_Init+0x1dc>)
 8003542:	699b      	ldr	r3, [r3, #24]
 8003544:	f003 0310 	and.w	r3, r3, #16
 8003548:	60bb      	str	r3, [r7, #8]
 800354a:	68bb      	ldr	r3, [r7, #8]
  __HAL_RCC_GPIOA_CLK_ENABLE();
 800354c:	4b65      	ldr	r3, [pc, #404]	; (80036e4 <MX_GPIO_Init+0x1dc>)
 800354e:	699b      	ldr	r3, [r3, #24]
 8003550:	4a64      	ldr	r2, [pc, #400]	; (80036e4 <MX_GPIO_Init+0x1dc>)
 8003552:	f043 0304 	orr.w	r3, r3, #4
 8003556:	6193      	str	r3, [r2, #24]
 8003558:	4b62      	ldr	r3, [pc, #392]	; (80036e4 <MX_GPIO_Init+0x1dc>)
 800355a:	699b      	ldr	r3, [r3, #24]
 800355c:	f003 0304 	and.w	r3, r3, #4
 8003560:	607b      	str	r3, [r7, #4]
 8003562:	687b      	ldr	r3, [r7, #4]
  __HAL_RCC_GPIOB_CLK_ENABLE();
 8003564:	4b5f      	ldr	r3, [pc, #380]	; (80036e4 <MX_GPIO_Init+0x1dc>)
 8003566:	699b      	ldr	r3, [r3, #24]
 8003568:	4a5e      	ldr	r2, [pc, #376]	; (80036e4 <MX_GPIO_Init+0x1dc>)
 800356a:	f043 0308 	orr.w	r3, r3, #8
 800356e:	6193      	str	r3, [r2, #24]
 8003570:	4b5c      	ldr	r3, [pc, #368]	; (80036e4 <MX_GPIO_Init+0x1dc>)
 8003572:	699b      	ldr	r3, [r3, #24]
 8003574:	f003 0308 	and.w	r3, r3, #8
 8003578:	603b      	str	r3, [r7, #0]
 800357a:	683b      	ldr	r3, [r7, #0]

  /*Configure GPIO pin Output Level */
  HAL_GPIO_WritePin(GPIOC, oSol_Valve_b_Heade_Pin|oSol_Valve_a_Heade_Pin|oDIR1_Pin, GPIO_PIN_RESET);
 800357c:	2200      	movs	r2, #0
 800357e:	f44f 7183 	mov.w	r1, #262	; 0x106
 8003582:	4859      	ldr	r0, [pc, #356]	; (80036e8 <MX_GPIO_Init+0x1e0>)
 8003584:	f001 f855 	bl	8004632 <HAL_GPIO_WritePin>

  /*Configure GPIO pin Output Level */
  HAL_GPIO_WritePin(GPIOA, oBuzer_Pin|oSyncArc_Pin|oSMD_EN1_Pin, GPIO_PIN_RESET);
 8003588:	2200      	movs	r2, #0
 800358a:	f44f 6111 	mov.w	r1, #2320	; 0x910
 800358e:	4857      	ldr	r0, [pc, #348]	; (80036ec <MX_GPIO_Init+0x1e4>)
 8003590:	f001 f84f 	bl	8004632 <HAL_GPIO_WritePin>

  /*Configure GPIO pin Output Level */
  HAL_GPIO_WritePin(oSTLED316S_STB5_GPIO_Port, oSTLED316S_STB5_Pin, GPIO_PIN_SET);
 8003594:	2201      	movs	r2, #1
 8003596:	2140      	movs	r1, #64	; 0x40
 8003598:	4854      	ldr	r0, [pc, #336]	; (80036ec <MX_GPIO_Init+0x1e4>)
 800359a:	f001 f84a 	bl	8004632 <HAL_GPIO_WritePin>

  /*Configure GPIO pin Output Level */
  HAL_GPIO_WritePin(GPIOC, oSTLED316S_STB1_Pin|oSTLED316S_STB2_Pin, GPIO_PIN_SET);
 800359e:	2201      	movs	r2, #1
 80035a0:	2130      	movs	r1, #48	; 0x30
 80035a2:	4851      	ldr	r0, [pc, #324]	; (80036e8 <MX_GPIO_Init+0x1e0>)
 80035a4:	f001 f845 	bl	8004632 <HAL_GPIO_WritePin>

  /*Configure GPIO pin Output Level */
  HAL_GPIO_WritePin(GPIOB, oSTLED316S_STB3_Pin|oSTLED316S_STB4_Pin, GPIO_PIN_SET);
 80035a8:	2201      	movs	r2, #1
 80035aa:	2103      	movs	r1, #3
 80035ac:	4850      	ldr	r0, [pc, #320]	; (80036f0 <MX_GPIO_Init+0x1e8>)
 80035ae:	f001 f840 	bl	8004632 <HAL_GPIO_WritePin>

  /*Configure GPIO pin Output Level */
  HAL_GPIO_WritePin(GPIOB, oSolenoidValve2_Pin|oSolenoidValve1_Pin, GPIO_PIN_RESET);
 80035b2:	2200      	movs	r2, #0
 80035b4:	21c0      	movs	r1, #192	; 0xc0
 80035b6:	484e      	ldr	r0, [pc, #312]	; (80036f0 <MX_GPIO_Init+0x1e8>)
 80035b8:	f001 f83b 	bl	8004632 <HAL_GPIO_WritePin>

  /*Configure GPIO pins : oSol_Valve_b_Heade_Pin oSol_Valve_a_Heade_Pin oSTLED316S_STB1_Pin oSTLED316S_STB2_Pin
                           oDIR1_Pin */
  GPIO_InitStruct.Pin = oSol_Valve_b_Heade_Pin|oSol_Valve_a_Heade_Pin|oSTLED316S_STB1_Pin|oSTLED316S_STB2_Pin
 80035bc:	f44f 739b 	mov.w	r3, #310	; 0x136
 80035c0:	613b      	str	r3, [r7, #16]
                          |oDIR1_Pin;
  GPIO_InitStruct.Mode = GPIO_MODE_OUTPUT_PP;
 80035c2:	2301      	movs	r3, #1
 80035c4:	617b      	str	r3, [r7, #20]
  GPIO_InitStruct.Pull = GPIO_NOPULL;
 80035c6:	2300      	movs	r3, #0
 80035c8:	61bb      	str	r3, [r7, #24]
  GPIO_InitStruct.Speed = GPIO_SPEED_FREQ_LOW;
 80035ca:	2302      	movs	r3, #2
 80035cc:	61fb      	str	r3, [r7, #28]
  HAL_GPIO_Init(GPIOC, &GPIO_InitStruct);
 80035ce:	f107 0310 	add.w	r3, r7, #16
 80035d2:	4619      	mov	r1, r3
 80035d4:	4844      	ldr	r0, [pc, #272]	; (80036e8 <MX_GPIO_Init+0x1e0>)
 80035d6:	f000 fe81 	bl	80042dc <HAL_GPIO_Init>

  /*Configure GPIO pins : iPedal_L_Pin iPedal_R_Pin */
  GPIO_InitStruct.Pin = iPedal_L_Pin|iPedal_R_Pin;
 80035da:	2309      	movs	r3, #9
 80035dc:	613b      	str	r3, [r7, #16]
  GPIO_InitStruct.Mode = GPIO_MODE_INPUT;
 80035de:	2300      	movs	r3, #0
 80035e0:	617b      	str	r3, [r7, #20]
  GPIO_InitStruct.Pull = GPIO_NOPULL;
 80035e2:	2300      	movs	r3, #0
 80035e4:	61bb      	str	r3, [r7, #24]
  HAL_GPIO_Init(GPIOA, &GPIO_InitStruct);
 80035e6:	f107 0310 	add.w	r3, r7, #16
 80035ea:	4619      	mov	r1, r3
 80035ec:	483f      	ldr	r0, [pc, #252]	; (80036ec <MX_GPIO_Init+0x1e4>)
 80035ee:	f000 fe75 	bl	80042dc <HAL_GPIO_Init>

  /*Configure GPIO pins : oBuzer_Pin oSTLED316S_STB5_Pin oSyncArc_Pin oSMD_EN1_Pin */
  GPIO_InitStruct.Pin = oBuzer_Pin|oSTLED316S_STB5_Pin|oSyncArc_Pin|oSMD_EN1_Pin;
 80035f2:	f44f 6315 	mov.w	r3, #2384	; 0x950
 80035f6:	613b      	str	r3, [r7, #16]
  GPIO_InitStruct.Mode = GPIO_MODE_OUTPUT_PP;
 80035f8:	2301      	movs	r3, #1
 80035fa:	617b      	str	r3, [r7, #20]
  GPIO_InitStruct.Pull = GPIO_NOPULL;
 80035fc:	2300      	movs	r3, #0
 80035fe:	61bb      	str	r3, [r7, #24]
  GPIO_InitStruct.Speed = GPIO_SPEED_FREQ_LOW;
 8003600:	2302      	movs	r3, #2
 8003602:	61fb      	str	r3, [r7, #28]
  HAL_GPIO_Init(GPIOA, &GPIO_InitStruct);
 8003604:	f107 0310 	add.w	r3, r7, #16
 8003608:	4619      	mov	r1, r3
 800360a:	4838      	ldr	r0, [pc, #224]	; (80036ec <MX_GPIO_Init+0x1e4>)
 800360c:	f000 fe66 	bl	80042dc <HAL_GPIO_Init>

  /*Configure GPIO pins : oSTLED316S_STB3_Pin oSTLED316S_STB4_Pin oSolenoidValve2_Pin oSolenoidValve1_Pin */
  GPIO_InitStruct.Pin = oSTLED316S_STB3_Pin|oSTLED316S_STB4_Pin|oSolenoidValve2_Pin|oSolenoidValve1_Pin;
 8003610:	23c3      	movs	r3, #195	; 0xc3
 8003612:	613b      	str	r3, [r7, #16]
  GPIO_InitStruct.Mode = GPIO_MODE_OUTPUT_PP;
 8003614:	2301      	movs	r3, #1
 8003616:	617b      	str	r3, [r7, #20]
  GPIO_InitStruct.Pull = GPIO_NOPULL;
 8003618:	2300      	movs	r3, #0
 800361a:	61bb      	str	r3, [r7, #24]
  GPIO_InitStruct.Speed = GPIO_SPEED_FREQ_LOW;
 800361c:	2302      	movs	r3, #2
 800361e:	61fb      	str	r3, [r7, #28]
  HAL_GPIO_Init(GPIOB, &GPIO_InitStruct);
 8003620:	f107 0310 	add.w	r3, r7, #16
 8003624:	4619      	mov	r1, r3
 8003626:	4832      	ldr	r0, [pc, #200]	; (80036f0 <MX_GPIO_Init+0x1e8>)
 8003628:	f000 fe58 	bl	80042dc <HAL_GPIO_Init>

  /*Configure GPIO pin : iSTLED316S_IRQN5_Pin */
  GPIO_InitStruct.Pin = iSTLED316S_IRQN5_Pin;
 800362c:	f44f 6300 	mov.w	r3, #2048	; 0x800
 8003630:	613b      	str	r3, [r7, #16]
  GPIO_InitStruct.Mode = GPIO_MODE_IT_FALLING;
 8003632:	4b30      	ldr	r3, [pc, #192]	; (80036f4 <MX_GPIO_Init+0x1ec>)
 8003634:	617b      	str	r3, [r7, #20]
  GPIO_InitStruct.Pull = GPIO_NOPULL;
 8003636:	2300      	movs	r3, #0
 8003638:	61bb      	str	r3, [r7, #24]
  HAL_GPIO_Init(iSTLED316S_IRQN5_GPIO_Port, &GPIO_InitStruct);
 800363a:	f107 0310 	add.w	r3, r7, #16
 800363e:	4619      	mov	r1, r3
 8003640:	482b      	ldr	r0, [pc, #172]	; (80036f0 <MX_GPIO_Init+0x1e8>)
 8003642:	f000 fe4b 	bl	80042dc <HAL_GPIO_Init>

  /*Configure GPIO pin : iBackDoor_Pin */
  GPIO_InitStruct.Pin = iBackDoor_Pin;
 8003646:	f44f 5380 	mov.w	r3, #4096	; 0x1000
 800364a:	613b      	str	r3, [r7, #16]
  GPIO_InitStruct.Mode = GPIO_MODE_INPUT;
 800364c:	2300      	movs	r3, #0
 800364e:	617b      	str	r3, [r7, #20]
  GPIO_InitStruct.Pull = GPIO_NOPULL;
 8003650:	2300      	movs	r3, #0
 8003652:	61bb      	str	r3, [r7, #24]
  HAL_GPIO_Init(iBackDoor_GPIO_Port, &GPIO_InitStruct);
 8003654:	f107 0310 	add.w	r3, r7, #16
 8003658:	4619      	mov	r1, r3
 800365a:	4825      	ldr	r0, [pc, #148]	; (80036f0 <MX_GPIO_Init+0x1e8>)
 800365c:	f000 fe3e 	bl	80042dc <HAL_GPIO_Init>

  /*Configure GPIO pin : iFB_STEP1_Pin */
  GPIO_InitStruct.Pin = iFB_STEP1_Pin;
 8003660:	f44f 5380 	mov.w	r3, #4096	; 0x1000
 8003664:	613b      	str	r3, [r7, #16]
  GPIO_InitStruct.Mode = GPIO_MODE_IT_RISING;
 8003666:	4b24      	ldr	r3, [pc, #144]	; (80036f8 <MX_GPIO_Init+0x1f0>)
 8003668:	617b      	str	r3, [r7, #20]
  GPIO_InitStruct.Pull = GPIO_NOPULL;
 800366a:	2300      	movs	r3, #0
 800366c:	61bb      	str	r3, [r7, #24]
  HAL_GPIO_Init(iFB_STEP1_GPIO_Port, &GPIO_InitStruct);
 800366e:	f107 0310 	add.w	r3, r7, #16
 8003672:	4619      	mov	r1, r3
 8003674:	481c      	ldr	r0, [pc, #112]	; (80036e8 <MX_GPIO_Init+0x1e0>)
 8003676:	f000 fe31 	bl	80042dc <HAL_GPIO_Init>

  /*Configure GPIO pin : iSTLED316S_IRQN3_Pin */
  GPIO_InitStruct.Pin = iSTLED316S_IRQN3_Pin;
 800367a:	2304      	movs	r3, #4
 800367c:	613b      	str	r3, [r7, #16]
  GPIO_InitStruct.Mode = GPIO_MODE_IT_FALLING;
 800367e:	4b1d      	ldr	r3, [pc, #116]	; (80036f4 <MX_GPIO_Init+0x1ec>)
 8003680:	617b      	str	r3, [r7, #20]
  GPIO_InitStruct.Pull = GPIO_PULLUP;
 8003682:	2301      	movs	r3, #1
 8003684:	61bb      	str	r3, [r7, #24]
  HAL_GPIO_Init(iSTLED316S_IRQN3_GPIO_Port, &GPIO_InitStruct);
 8003686:	f107 0310 	add.w	r3, r7, #16
 800368a:	4619      	mov	r1, r3
 800368c:	481b      	ldr	r0, [pc, #108]	; (80036fc <MX_GPIO_Init+0x1f4>)
 800368e:	f000 fe25 	bl	80042dc <HAL_GPIO_Init>

  /*Configure GPIO pin : iCarriageStop_Pin */
  GPIO_InitStruct.Pin = iCarriageStop_Pin;
 8003692:	f44f 7300 	mov.w	r3, #512	; 0x200
 8003696:	613b      	str	r3, [r7, #16]
  GPIO_InitStruct.Mode = GPIO_MODE_IT_RISING;
 8003698:	4b17      	ldr	r3, [pc, #92]	; (80036f8 <MX_GPIO_Init+0x1f0>)
 800369a:	617b      	str	r3, [r7, #20]
  GPIO_InitStruct.Pull = GPIO_NOPULL;
 800369c:	2300      	movs	r3, #0
 800369e:	61bb      	str	r3, [r7, #24]
  HAL_GPIO_Init(iCarriageStop_GPIO_Port, &GPIO_InitStruct);
 80036a0:	f107 0310 	add.w	r3, r7, #16
 80036a4:	4619      	mov	r1, r3
 80036a6:	4812      	ldr	r0, [pc, #72]	; (80036f0 <MX_GPIO_Init+0x1e8>)
 80036a8:	f000 fe18 	bl	80042dc <HAL_GPIO_Init>

  /* EXTI interrupt init*/
  HAL_NVIC_SetPriority(EXTI2_IRQn, 5, 0);
 80036ac:	2200      	movs	r2, #0
 80036ae:	2105      	movs	r1, #5
 80036b0:	2008      	movs	r0, #8
 80036b2:	f000 fad4 	bl	8003c5e <HAL_NVIC_SetPriority>
  HAL_NVIC_EnableIRQ(EXTI2_IRQn);
 80036b6:	2008      	movs	r0, #8
 80036b8:	f000 faed 	bl	8003c96 <HAL_NVIC_EnableIRQ>

  HAL_NVIC_SetPriority(EXTI9_5_IRQn, 5, 0);
 80036bc:	2200      	movs	r2, #0
 80036be:	2105      	movs	r1, #5
 80036c0:	2017      	movs	r0, #23
 80036c2:	f000 facc 	bl	8003c5e <HAL_NVIC_SetPriority>
  HAL_NVIC_EnableIRQ(EXTI9_5_IRQn);
 80036c6:	2017      	movs	r0, #23
 80036c8:	f000 fae5 	bl	8003c96 <HAL_NVIC_EnableIRQ>

  HAL_NVIC_SetPriority(EXTI15_10_IRQn, 5, 0);
 80036cc:	2200      	movs	r2, #0
 80036ce:	2105      	movs	r1, #5
 80036d0:	2028      	movs	r0, #40	; 0x28
 80036d2:	f000 fac4 	bl	8003c5e <HAL_NVIC_SetPriority>
  HAL_NVIC_EnableIRQ(EXTI15_10_IRQn);
 80036d6:	2028      	movs	r0, #40	; 0x28
 80036d8:	f000 fadd 	bl	8003c96 <HAL_NVIC_EnableIRQ>

}
 80036dc:	bf00      	nop
 80036de:	3720      	adds	r7, #32
 80036e0:	46bd      	mov	sp, r7
 80036e2:	bd80      	pop	{r7, pc}
 80036e4:	40021000 	.word	0x40021000
 80036e8:	40011000 	.word	0x40011000
 80036ec:	40010800 	.word	0x40010800
 80036f0:	40010c00 	.word	0x40010c00
 80036f4:	10210000 	.word	0x10210000
 80036f8:	10110000 	.word	0x10110000
 80036fc:	40011400 	.word	0x40011400

08003700 <StartDefaultTask>:
  * @param  argument: Not used
  * @retval None
  */
/* USER CODE END Header_StartDefaultTask */
void StartDefaultTask(void *argument)
{
 8003700:	b580      	push	{r7, lr}
 8003702:	b082      	sub	sp, #8
 8003704:	af00      	add	r7, sp, #0
 8003706:	6078      	str	r0, [r7, #4]
  /* USER CODE BEGIN 5 */

  /* Infinite loop */
  for(;;)
  {
	vTaskDelay(1000);
 8003708:	f44f 707a 	mov.w	r0, #1000	; 0x3e8
 800370c:	f004 fae8 	bl	8007ce0 <vTaskDelay>
 8003710:	e7fa      	b.n	8003708 <StartDefaultTask+0x8>

08003712 <Error_Handler>:
/**
  * @brief  This function is executed in case of error occurrence.
  * @retval None
  */
void Error_Handler(void)
{
 8003712:	b480      	push	{r7}
 8003714:	af00      	add	r7, sp, #0
  \details Disables IRQ interrupts by setting the I-bit in the CPSR.
           Can only be executed in Privileged modes.
 */
__STATIC_FORCEINLINE void __disable_irq(void)
{
  __ASM volatile ("cpsid i" : : : "memory");
 8003716:	b672      	cpsid	i
}
 8003718:	bf00      	nop
  /* USER CODE BEGIN Error_Handler_Debug */
  /* User can add his own implementation to report the HAL error return state */
  __disable_irq();
  while (1)
 800371a:	e7fe      	b.n	800371a <Error_Handler+0x8>

0800371c <HAL_MspInit>:
void HAL_TIM_MspPostInit(TIM_HandleTypeDef *htim);
                    /**
  * Initializes the Global MSP.
  */
void HAL_MspInit(void)
{
 800371c:	b580      	push	{r7, lr}
 800371e:	b084      	sub	sp, #16
 8003720:	af00      	add	r7, sp, #0
  /* USER CODE BEGIN MspInit 0 */

  /* USER CODE END MspInit 0 */

  __HAL_RCC_AFIO_CLK_ENABLE();
 8003722:	4b18      	ldr	r3, [pc, #96]	; (8003784 <HAL_MspInit+0x68>)
 8003724:	699b      	ldr	r3, [r3, #24]
 8003726:	4a17      	ldr	r2, [pc, #92]	; (8003784 <HAL_MspInit+0x68>)
 8003728:	f043 0301 	orr.w	r3, r3, #1
 800372c:	6193      	str	r3, [r2, #24]
 800372e:	4b15      	ldr	r3, [pc, #84]	; (8003784 <HAL_MspInit+0x68>)
 8003730:	699b      	ldr	r3, [r3, #24]
 8003732:	f003 0301 	and.w	r3, r3, #1
 8003736:	60bb      	str	r3, [r7, #8]
 8003738:	68bb      	ldr	r3, [r7, #8]
  __HAL_RCC_PWR_CLK_ENABLE();
 800373a:	4b12      	ldr	r3, [pc, #72]	; (8003784 <HAL_MspInit+0x68>)
 800373c:	69db      	ldr	r3, [r3, #28]
 800373e:	4a11      	ldr	r2, [pc, #68]	; (8003784 <HAL_MspInit+0x68>)
 8003740:	f043 5380 	orr.w	r3, r3, #268435456	; 0x10000000
 8003744:	61d3      	str	r3, [r2, #28]
 8003746:	4b0f      	ldr	r3, [pc, #60]	; (8003784 <HAL_MspInit+0x68>)
 8003748:	69db      	ldr	r3, [r3, #28]
 800374a:	f003 5380 	and.w	r3, r3, #268435456	; 0x10000000
 800374e:	607b      	str	r3, [r7, #4]
 8003750:	687b      	ldr	r3, [r7, #4]

  /* System interrupt init*/
  /* PendSV_IRQn interrupt configuration */
  HAL_NVIC_SetPriority(PendSV_IRQn, 15, 0);
 8003752:	2200      	movs	r2, #0
 8003754:	210f      	movs	r1, #15
 8003756:	f06f 0001 	mvn.w	r0, #1
 800375a:	f000 fa80 	bl	8003c5e <HAL_NVIC_SetPriority>

  /** NOJTAG: JTAG-DP Disabled and SW-DP Enabled
  */
  __HAL_AFIO_REMAP_SWJ_NOJTAG();
 800375e:	4b0a      	ldr	r3, [pc, #40]	; (8003788 <HAL_MspInit+0x6c>)
 8003760:	685b      	ldr	r3, [r3, #4]
 8003762:	60fb      	str	r3, [r7, #12]
 8003764:	68fb      	ldr	r3, [r7, #12]
 8003766:	f023 63e0 	bic.w	r3, r3, #117440512	; 0x7000000
 800376a:	60fb      	str	r3, [r7, #12]
 800376c:	68fb      	ldr	r3, [r7, #12]
 800376e:	f043 7300 	orr.w	r3, r3, #33554432	; 0x2000000
 8003772:	60fb      	str	r3, [r7, #12]
 8003774:	4a04      	ldr	r2, [pc, #16]	; (8003788 <HAL_MspInit+0x6c>)
 8003776:	68fb      	ldr	r3, [r7, #12]
 8003778:	6053      	str	r3, [r2, #4]

  /* USER CODE BEGIN MspInit 1 */

  /* USER CODE END MspInit 1 */
}
 800377a:	bf00      	nop
 800377c:	3710      	adds	r7, #16
 800377e:	46bd      	mov	sp, r7
 8003780:	bd80      	pop	{r7, pc}
 8003782:	bf00      	nop
 8003784:	40021000 	.word	0x40021000
 8003788:	40010000 	.word	0x40010000

0800378c <HAL_SPI_MspInit>:
* This function configures the hardware resources used in this example
* @param hspi: SPI handle pointer
* @retval None
*/
void HAL_SPI_MspInit(SPI_HandleTypeDef* hspi)
{
 800378c:	b580      	push	{r7, lr}
 800378e:	b088      	sub	sp, #32
 8003790:	af00      	add	r7, sp, #0
 8003792:	6078      	str	r0, [r7, #4]
  GPIO_InitTypeDef GPIO_InitStruct = {0};
 8003794:	f107 0310 	add.w	r3, r7, #16
 8003798:	2200      	movs	r2, #0
 800379a:	601a      	str	r2, [r3, #0]
 800379c:	605a      	str	r2, [r3, #4]
 800379e:	609a      	str	r2, [r3, #8]
 80037a0:	60da      	str	r2, [r3, #12]
  if(hspi->Instance==SPI1)
 80037a2:	687b      	ldr	r3, [r7, #4]
 80037a4:	681b      	ldr	r3, [r3, #0]
 80037a6:	4a19      	ldr	r2, [pc, #100]	; (800380c <HAL_SPI_MspInit+0x80>)
 80037a8:	4293      	cmp	r3, r2
 80037aa:	d12b      	bne.n	8003804 <HAL_SPI_MspInit+0x78>
  {
  /* USER CODE BEGIN SPI1_MspInit 0 */

  /* USER CODE END SPI1_MspInit 0 */
    /* Peripheral clock enable */
    __HAL_RCC_SPI1_CLK_ENABLE();
 80037ac:	4b18      	ldr	r3, [pc, #96]	; (8003810 <HAL_SPI_MspInit+0x84>)
 80037ae:	699b      	ldr	r3, [r3, #24]
 80037b0:	4a17      	ldr	r2, [pc, #92]	; (8003810 <HAL_SPI_MspInit+0x84>)
 80037b2:	f443 5380 	orr.w	r3, r3, #4096	; 0x1000
 80037b6:	6193      	str	r3, [r2, #24]
 80037b8:	4b15      	ldr	r3, [pc, #84]	; (8003810 <HAL_SPI_MspInit+0x84>)
 80037ba:	699b      	ldr	r3, [r3, #24]
 80037bc:	f403 5380 	and.w	r3, r3, #4096	; 0x1000
 80037c0:	60fb      	str	r3, [r7, #12]
 80037c2:	68fb      	ldr	r3, [r7, #12]

    __HAL_RCC_GPIOA_CLK_ENABLE();
 80037c4:	4b12      	ldr	r3, [pc, #72]	; (8003810 <HAL_SPI_MspInit+0x84>)
 80037c6:	699b      	ldr	r3, [r3, #24]
 80037c8:	4a11      	ldr	r2, [pc, #68]	; (8003810 <HAL_SPI_MspInit+0x84>)
 80037ca:	f043 0304 	orr.w	r3, r3, #4
 80037ce:	6193      	str	r3, [r2, #24]
 80037d0:	4b0f      	ldr	r3, [pc, #60]	; (8003810 <HAL_SPI_MspInit+0x84>)
 80037d2:	699b      	ldr	r3, [r3, #24]
 80037d4:	f003 0304 	and.w	r3, r3, #4
 80037d8:	60bb      	str	r3, [r7, #8]
 80037da:	68bb      	ldr	r3, [r7, #8]
    /**SPI1 GPIO Configuration
    PA5     ------> SPI1_SCK
    PA7     ------> SPI1_MOSI
    */
    GPIO_InitStruct.Pin = GPIO_PIN_5|GPIO_PIN_7;
 80037dc:	23a0      	movs	r3, #160	; 0xa0
 80037de:	613b      	str	r3, [r7, #16]
    GPIO_InitStruct.Mode = GPIO_MODE_AF_PP;
 80037e0:	2302      	movs	r3, #2
 80037e2:	617b      	str	r3, [r7, #20]
    GPIO_InitStruct.Speed = GPIO_SPEED_FREQ_HIGH;
 80037e4:	2303      	movs	r3, #3
 80037e6:	61fb      	str	r3, [r7, #28]
    HAL_GPIO_Init(GPIOA, &GPIO_InitStruct);
 80037e8:	f107 0310 	add.w	r3, r7, #16
 80037ec:	4619      	mov	r1, r3
 80037ee:	4809      	ldr	r0, [pc, #36]	; (8003814 <HAL_SPI_MspInit+0x88>)
 80037f0:	f000 fd74 	bl	80042dc <HAL_GPIO_Init>

    /* SPI1 interrupt Init */
    HAL_NVIC_SetPriority(SPI1_IRQn, 5, 0);
 80037f4:	2200      	movs	r2, #0
 80037f6:	2105      	movs	r1, #5
 80037f8:	2023      	movs	r0, #35	; 0x23
 80037fa:	f000 fa30 	bl	8003c5e <HAL_NVIC_SetPriority>
    HAL_NVIC_EnableIRQ(SPI1_IRQn);
 80037fe:	2023      	movs	r0, #35	; 0x23
 8003800:	f000 fa49 	bl	8003c96 <HAL_NVIC_EnableIRQ>
  /* USER CODE BEGIN SPI1_MspInit 1 */

  /* USER CODE END SPI1_MspInit 1 */
  }

}
 8003804:	bf00      	nop
 8003806:	3720      	adds	r7, #32
 8003808:	46bd      	mov	sp, r7
 800380a:	bd80      	pop	{r7, pc}
 800380c:	40013000 	.word	0x40013000
 8003810:	40021000 	.word	0x40021000
 8003814:	40010800 	.word	0x40010800

08003818 <HAL_TIM_Base_MspInit>:
* This function configures the hardware resources used in this example
* @param htim_base: TIM_Base handle pointer
* @retval None
*/
void HAL_TIM_Base_MspInit(TIM_HandleTypeDef* htim_base)
{
 8003818:	b580      	push	{r7, lr}
 800381a:	b084      	sub	sp, #16
 800381c:	af00      	add	r7, sp, #0
 800381e:	6078      	str	r0, [r7, #4]
  if(htim_base->Instance==TIM3)
 8003820:	687b      	ldr	r3, [r7, #4]
 8003822:	681b      	ldr	r3, [r3, #0]
 8003824:	4a0d      	ldr	r2, [pc, #52]	; (800385c <HAL_TIM_Base_MspInit+0x44>)
 8003826:	4293      	cmp	r3, r2
 8003828:	d113      	bne.n	8003852 <HAL_TIM_Base_MspInit+0x3a>
  {
  /* USER CODE BEGIN TIM3_MspInit 0 */

  /* USER CODE END TIM3_MspInit 0 */
    /* Peripheral clock enable */
    __HAL_RCC_TIM3_CLK_ENABLE();
 800382a:	4b0d      	ldr	r3, [pc, #52]	; (8003860 <HAL_TIM_Base_MspInit+0x48>)
 800382c:	69db      	ldr	r3, [r3, #28]
 800382e:	4a0c      	ldr	r2, [pc, #48]	; (8003860 <HAL_TIM_Base_MspInit+0x48>)
 8003830:	f043 0302 	orr.w	r3, r3, #2
 8003834:	61d3      	str	r3, [r2, #28]
 8003836:	4b0a      	ldr	r3, [pc, #40]	; (8003860 <HAL_TIM_Base_MspInit+0x48>)
 8003838:	69db      	ldr	r3, [r3, #28]
 800383a:	f003 0302 	and.w	r3, r3, #2
 800383e:	60fb      	str	r3, [r7, #12]
 8003840:	68fb      	ldr	r3, [r7, #12]
    /* TIM3 interrupt Init */
    HAL_NVIC_SetPriority(TIM3_IRQn, 5, 0);
 8003842:	2200      	movs	r2, #0
 8003844:	2105      	movs	r1, #5
 8003846:	201d      	movs	r0, #29
 8003848:	f000 fa09 	bl	8003c5e <HAL_NVIC_SetPriority>
    HAL_NVIC_EnableIRQ(TIM3_IRQn);
 800384c:	201d      	movs	r0, #29
 800384e:	f000 fa22 	bl	8003c96 <HAL_NVIC_EnableIRQ>
  /* USER CODE BEGIN TIM3_MspInit 1 */

  /* USER CODE END TIM3_MspInit 1 */
  }

}
 8003852:	bf00      	nop
 8003854:	3710      	adds	r7, #16
 8003856:	46bd      	mov	sp, r7
 8003858:	bd80      	pop	{r7, pc}
 800385a:	bf00      	nop
 800385c:	40000400 	.word	0x40000400
 8003860:	40021000 	.word	0x40021000

08003864 <HAL_TIM_MspPostInit>:

void HAL_TIM_MspPostInit(TIM_HandleTypeDef* htim)
{
 8003864:	b580      	push	{r7, lr}
 8003866:	b088      	sub	sp, #32
 8003868:	af00      	add	r7, sp, #0
 800386a:	6078      	str	r0, [r7, #4]
  GPIO_InitTypeDef GPIO_InitStruct = {0};
 800386c:	f107 030c 	add.w	r3, r7, #12
 8003870:	2200      	movs	r2, #0
 8003872:	601a      	str	r2, [r3, #0]
 8003874:	605a      	str	r2, [r3, #4]
 8003876:	609a      	str	r2, [r3, #8]
 8003878:	60da      	str	r2, [r3, #12]
  if(htim->Instance==TIM3)
 800387a:	687b      	ldr	r3, [r7, #4]
 800387c:	681b      	ldr	r3, [r3, #0]
 800387e:	4a18      	ldr	r2, [pc, #96]	; (80038e0 <HAL_TIM_MspPostInit+0x7c>)
 8003880:	4293      	cmp	r3, r2
 8003882:	d129      	bne.n	80038d8 <HAL_TIM_MspPostInit+0x74>
  {
  /* USER CODE BEGIN TIM3_MspPostInit 0 */

  /* USER CODE END TIM3_MspPostInit 0 */

    __HAL_RCC_GPIOC_CLK_ENABLE();
 8003884:	4b17      	ldr	r3, [pc, #92]	; (80038e4 <HAL_TIM_MspPostInit+0x80>)
 8003886:	699b      	ldr	r3, [r3, #24]
 8003888:	4a16      	ldr	r2, [pc, #88]	; (80038e4 <HAL_TIM_MspPostInit+0x80>)
 800388a:	f043 0310 	orr.w	r3, r3, #16
 800388e:	6193      	str	r3, [r2, #24]
 8003890:	4b14      	ldr	r3, [pc, #80]	; (80038e4 <HAL_TIM_MspPostInit+0x80>)
 8003892:	699b      	ldr	r3, [r3, #24]
 8003894:	f003 0310 	and.w	r3, r3, #16
 8003898:	60bb      	str	r3, [r7, #8]
 800389a:	68bb      	ldr	r3, [r7, #8]
    /**TIM3 GPIO Configuration
    PC6     ------> TIM3_CH1
    */
    GPIO_InitStruct.Pin = oPWM_STEP1_Pin;
 800389c:	2340      	movs	r3, #64	; 0x40
 800389e:	60fb      	str	r3, [r7, #12]
    GPIO_InitStruct.Mode = GPIO_MODE_AF_PP;
 80038a0:	2302      	movs	r3, #2
 80038a2:	613b      	str	r3, [r7, #16]
    GPIO_InitStruct.Speed = GPIO_SPEED_FREQ_LOW;
 80038a4:	2302      	movs	r3, #2
 80038a6:	61bb      	str	r3, [r7, #24]
    HAL_GPIO_Init(oPWM_STEP1_GPIO_Port, &GPIO_InitStruct);
 80038a8:	f107 030c 	add.w	r3, r7, #12
 80038ac:	4619      	mov	r1, r3
 80038ae:	480e      	ldr	r0, [pc, #56]	; (80038e8 <HAL_TIM_MspPostInit+0x84>)
 80038b0:	f000 fd14 	bl	80042dc <HAL_GPIO_Init>

    __HAL_AFIO_REMAP_TIM3_ENABLE();
 80038b4:	4b0d      	ldr	r3, [pc, #52]	; (80038ec <HAL_TIM_MspPostInit+0x88>)
 80038b6:	685b      	ldr	r3, [r3, #4]
 80038b8:	61fb      	str	r3, [r7, #28]
 80038ba:	69fb      	ldr	r3, [r7, #28]
 80038bc:	f423 6340 	bic.w	r3, r3, #3072	; 0xc00
 80038c0:	61fb      	str	r3, [r7, #28]
 80038c2:	69fb      	ldr	r3, [r7, #28]
 80038c4:	f043 63e0 	orr.w	r3, r3, #117440512	; 0x7000000
 80038c8:	61fb      	str	r3, [r7, #28]
 80038ca:	69fb      	ldr	r3, [r7, #28]
 80038cc:	f443 6340 	orr.w	r3, r3, #3072	; 0xc00
 80038d0:	61fb      	str	r3, [r7, #28]
 80038d2:	4a06      	ldr	r2, [pc, #24]	; (80038ec <HAL_TIM_MspPostInit+0x88>)
 80038d4:	69fb      	ldr	r3, [r7, #28]
 80038d6:	6053      	str	r3, [r2, #4]
  /* USER CODE BEGIN TIM3_MspPostInit 1 */

  /* USER CODE END TIM3_MspPostInit 1 */
  }

}
 80038d8:	bf00      	nop
 80038da:	3720      	adds	r7, #32
 80038dc:	46bd      	mov	sp, r7
 80038de:	bd80      	pop	{r7, pc}
 80038e0:	40000400 	.word	0x40000400
 80038e4:	40021000 	.word	0x40021000
 80038e8:	40011000 	.word	0x40011000
 80038ec:	40010000 	.word	0x40010000

080038f0 <NMI_Handler>:
/******************************************************************************/
/**
  * @brief This function handles Non maskable interrupt.
  */
void NMI_Handler(void)
{
 80038f0:	b480      	push	{r7}
 80038f2:	af00      	add	r7, sp, #0
  /* USER CODE BEGIN NonMaskableInt_IRQn 0 */

  /* USER CODE END NonMaskableInt_IRQn 0 */
  /* USER CODE BEGIN NonMaskableInt_IRQn 1 */
  while (1)
 80038f4:	e7fe      	b.n	80038f4 <NMI_Handler+0x4>

080038f6 <HardFault_Handler>:

/**
  * @brief This function handles Hard fault interrupt.
  */
void HardFault_Handler(void)
{
 80038f6:	b480      	push	{r7}
 80038f8:	af00      	add	r7, sp, #0
  /* USER CODE BEGIN HardFault_IRQn 0 */

  /* USER CODE END HardFault_IRQn 0 */
  while (1)
 80038fa:	e7fe      	b.n	80038fa <HardFault_Handler+0x4>

080038fc <MemManage_Handler>:

/**
  * @brief This function handles Memory management fault.
  */
void MemManage_Handler(void)
{
 80038fc:	b480      	push	{r7}
 80038fe:	af00      	add	r7, sp, #0
  /* USER CODE BEGIN MemoryManagement_IRQn 0 */

  /* USER CODE END MemoryManagement_IRQn 0 */
  while (1)
 8003900:	e7fe      	b.n	8003900 <MemManage_Handler+0x4>

08003902 <BusFault_Handler>:

/**
  * @brief This function handles Prefetch fault, memory access fault.
  */
void BusFault_Handler(void)
{
 8003902:	b480      	push	{r7}
 8003904:	af00      	add	r7, sp, #0
  /* USER CODE BEGIN BusFault_IRQn 0 */

  /* USER CODE END BusFault_IRQn 0 */
  while (1)
 8003906:	e7fe      	b.n	8003906 <BusFault_Handler+0x4>

08003908 <UsageFault_Handler>:

/**
  * @brief This function handles Undefined instruction or illegal state.
  */
void UsageFault_Handler(void)
{
 8003908:	b480      	push	{r7}
 800390a:	af00      	add	r7, sp, #0
  /* USER CODE BEGIN UsageFault_IRQn 0 */

  /* USER CODE END UsageFault_IRQn 0 */
  while (1)
 800390c:	e7fe      	b.n	800390c <UsageFault_Handler+0x4>

0800390e <DebugMon_Handler>:

/**
  * @brief This function handles Debug monitor.
  */
void DebugMon_Handler(void)
{
 800390e:	b480      	push	{r7}
 8003910:	af00      	add	r7, sp, #0

  /* USER CODE END DebugMonitor_IRQn 0 */
  /* USER CODE BEGIN DebugMonitor_IRQn 1 */

  /* USER CODE END DebugMonitor_IRQn 1 */
}
 8003912:	bf00      	nop
 8003914:	46bd      	mov	sp, r7
 8003916:	bc80      	pop	{r7}
 8003918:	4770      	bx	lr

0800391a <SysTick_Handler>:

/**
  * @brief This function handles System tick timer.
  */
void SysTick_Handler(void)
{
 800391a:	b580      	push	{r7, lr}
 800391c:	af00      	add	r7, sp, #0
  /* USER CODE BEGIN SysTick_IRQn 0 */

  /* USER CODE END SysTick_IRQn 0 */
  HAL_IncTick();
 800391e:	f000 f8ab 	bl	8003a78 <HAL_IncTick>
#if (INCLUDE_xTaskGetSchedulerState == 1 )
  if (xTaskGetSchedulerState() != taskSCHEDULER_NOT_STARTED)
 8003922:	f004 fdb9 	bl	8008498 <xTaskGetSchedulerState>
 8003926:	4603      	mov	r3, r0
 8003928:	2b01      	cmp	r3, #1
 800392a:	d001      	beq.n	8003930 <SysTick_Handler+0x16>
  {
#endif /* INCLUDE_xTaskGetSchedulerState */
  xPortSysTickHandler();
 800392c:	f005 faec 	bl	8008f08 <xPortSysTickHandler>
  }
#endif /* INCLUDE_xTaskGetSchedulerState */
  /* USER CODE BEGIN SysTick_IRQn 1 */

  /* USER CODE END SysTick_IRQn 1 */
}
 8003930:	bf00      	nop
 8003932:	bd80      	pop	{r7, pc}

08003934 <EXTI2_IRQHandler>:

/**
  * @brief This function handles EXTI line2 interrupt.
  */
void EXTI2_IRQHandler(void)
{
 8003934:	b580      	push	{r7, lr}
 8003936:	af00      	add	r7, sp, #0
  /* USER CODE BEGIN EXTI2_IRQn 0 */

  /* USER CODE END EXTI2_IRQn 0 */
  HAL_GPIO_EXTI_IRQHandler(GPIO_PIN_2);
 8003938:	2004      	movs	r0, #4
 800393a:	f000 fe93 	bl	8004664 <HAL_GPIO_EXTI_IRQHandler>
  /* USER CODE BEGIN EXTI2_IRQn 1 */

  /* USER CODE END EXTI2_IRQn 1 */
}
 800393e:	bf00      	nop
 8003940:	bd80      	pop	{r7, pc}

08003942 <EXTI9_5_IRQHandler>:

/**
  * @brief This function handles EXTI line[9:5] interrupts.
  */
void EXTI9_5_IRQHandler(void)
{
 8003942:	b580      	push	{r7, lr}
 8003944:	af00      	add	r7, sp, #0
  /* USER CODE BEGIN EXTI9_5_IRQn 0 */

  /* USER CODE END EXTI9_5_IRQn 0 */
  HAL_GPIO_EXTI_IRQHandler(GPIO_PIN_9);
 8003946:	f44f 7000 	mov.w	r0, #512	; 0x200
 800394a:	f000 fe8b 	bl	8004664 <HAL_GPIO_EXTI_IRQHandler>
  /* USER CODE BEGIN EXTI9_5_IRQn 1 */

  /* USER CODE END EXTI9_5_IRQn 1 */
}
 800394e:	bf00      	nop
 8003950:	bd80      	pop	{r7, pc}
	...

08003954 <TIM3_IRQHandler>:

/**
  * @brief This function handles TIM3 global interrupt.
  */
void TIM3_IRQHandler(void)
{
 8003954:	b580      	push	{r7, lr}
 8003956:	af00      	add	r7, sp, #0
  /* USER CODE BEGIN TIM3_IRQn 0 */

  /* USER CODE END TIM3_IRQn 0 */
  HAL_TIM_IRQHandler(&htim3);
 8003958:	4802      	ldr	r0, [pc, #8]	; (8003964 <TIM3_IRQHandler+0x10>)
 800395a:	f002 fac5 	bl	8005ee8 <HAL_TIM_IRQHandler>
  /* USER CODE BEGIN TIM3_IRQn 1 */

  /* USER CODE END TIM3_IRQn 1 */
}
 800395e:	bf00      	nop
 8003960:	bd80      	pop	{r7, pc}
 8003962:	bf00      	nop
 8003964:	20004dd4 	.word	0x20004dd4

08003968 <SPI1_IRQHandler>:

/**
  * @brief This function handles SPI1 global interrupt.
  */
void SPI1_IRQHandler(void)
{
 8003968:	b580      	push	{r7, lr}
 800396a:	af00      	add	r7, sp, #0
  /* USER CODE BEGIN SPI1_IRQn 0 */

  /* USER CODE END SPI1_IRQn 0 */
  HAL_SPI_IRQHandler(&hspi1);
 800396c:	4802      	ldr	r0, [pc, #8]	; (8003978 <SPI1_IRQHandler+0x10>)
 800396e:	f001 feed 	bl	800574c <HAL_SPI_IRQHandler>
  /* USER CODE BEGIN SPI1_IRQn 1 */

  /* USER CODE END SPI1_IRQn 1 */
}
 8003972:	bf00      	nop
 8003974:	bd80      	pop	{r7, pc}
 8003976:	bf00      	nop
 8003978:	20004e1c 	.word	0x20004e1c

0800397c <EXTI15_10_IRQHandler>:

/**
  * @brief This function handles EXTI line[15:10] interrupts.
  */
void EXTI15_10_IRQHandler(void)
{
 800397c:	b580      	push	{r7, lr}
 800397e:	af00      	add	r7, sp, #0
  /* USER CODE BEGIN EXTI15_10_IRQn 0 */


  /* USER CODE END EXTI15_10_IRQn 0 */
  HAL_GPIO_EXTI_IRQHandler(GPIO_PIN_11);
 8003980:	f44f 6000 	mov.w	r0, #2048	; 0x800
 8003984:	f000 fe6e 	bl	8004664 <HAL_GPIO_EXTI_IRQHandler>
  HAL_GPIO_EXTI_IRQHandler(GPIO_PIN_12);
 8003988:	f44f 5080 	mov.w	r0, #4096	; 0x1000
 800398c:	f000 fe6a 	bl	8004664 <HAL_GPIO_EXTI_IRQHandler>
  /* USER CODE BEGIN EXTI15_10_IRQn 1 */

  /* USER CODE END EXTI15_10_IRQn 1 */
}
 8003990:	bf00      	nop
 8003992:	bd80      	pop	{r7, pc}

08003994 <SystemInit>:
  * @note   This function should be used only after reset.
  * @param  None
  * @retval None
  */
void SystemInit (void)
{
 8003994:	b480      	push	{r7}
 8003996:	af00      	add	r7, sp, #0

  /* Configure the Vector Table location -------------------------------------*/
#if defined(USER_VECT_TAB_ADDRESS)
  SCB->VTOR = VECT_TAB_BASE_ADDRESS | VECT_TAB_OFFSET; /* Vector Table Relocation in Internal SRAM. */
#endif /* USER_VECT_TAB_ADDRESS */
}
 8003998:	bf00      	nop
 800399a:	46bd      	mov	sp, r7
 800399c:	bc80      	pop	{r7}
 800399e:	4770      	bx	lr

080039a0 <Reset_Handler>:
 80039a0:	2100      	movs	r1, #0
 80039a2:	e003      	b.n	80039ac <LoopCopyDataInit>

080039a4 <CopyDataInit>:
 80039a4:	4b0b      	ldr	r3, [pc, #44]	; (80039d4 <LoopFillZerobss+0x14>)
 80039a6:	585b      	ldr	r3, [r3, r1]
 80039a8:	5043      	str	r3, [r0, r1]
 80039aa:	3104      	adds	r1, #4

080039ac <LoopCopyDataInit>:
 80039ac:	480a      	ldr	r0, [pc, #40]	; (80039d8 <LoopFillZerobss+0x18>)
 80039ae:	4b0b      	ldr	r3, [pc, #44]	; (80039dc <LoopFillZerobss+0x1c>)
 80039b0:	1842      	adds	r2, r0, r1
 80039b2:	429a      	cmp	r2, r3
 80039b4:	d3f6      	bcc.n	80039a4 <CopyDataInit>
 80039b6:	4a0a      	ldr	r2, [pc, #40]	; (80039e0 <LoopFillZerobss+0x20>)
 80039b8:	e002      	b.n	80039c0 <LoopFillZerobss>

080039ba <FillZerobss>:
 80039ba:	2300      	movs	r3, #0
 80039bc:	f842 3b04 	str.w	r3, [r2], #4

080039c0 <LoopFillZerobss>:
 80039c0:	4b08      	ldr	r3, [pc, #32]	; (80039e4 <LoopFillZerobss+0x24>)
 80039c2:	429a      	cmp	r2, r3
 80039c4:	d3f9      	bcc.n	80039ba <FillZerobss>
 80039c6:	f7ff ffe5 	bl	8003994 <SystemInit>
 80039ca:	f005 fc69 	bl	80092a0 <__libc_init_array>
 80039ce:	f7ff fc87 	bl	80032e0 <main>
 80039d2:	4770      	bx	lr
 80039d4:	0800941c 	.word	0x0800941c
 80039d8:	20000000 	.word	0x20000000
 80039dc:	20000010 	.word	0x20000010
 80039e0:	20000010 	.word	0x20000010
 80039e4:	20004ed8 	.word	0x20004ed8

080039e8 <ADC1_2_IRQHandler>:
 80039e8:	e7fe      	b.n	80039e8 <ADC1_2_IRQHandler>
	...

080039ec <HAL_Init>:
  *         need to ensure that the SysTick time base is always set to 1 millisecond
  *         to have correct HAL operation.
  * @retval HAL status
  */
HAL_StatusTypeDef HAL_Init(void)
{
 80039ec:	b580      	push	{r7, lr}
 80039ee:	af00      	add	r7, sp, #0
    defined(STM32F102x6) || defined(STM32F102xB) || \
    defined(STM32F103x6) || defined(STM32F103xB) || defined(STM32F103xE) || defined(STM32F103xG) || \
    defined(STM32F105xC) || defined(STM32F107xC)

  /* Prefetch buffer is not available on value line devices */
  __HAL_FLASH_PREFETCH_BUFFER_ENABLE();
 80039f0:	4b08      	ldr	r3, [pc, #32]	; (8003a14 <HAL_Init+0x28>)
 80039f2:	681b      	ldr	r3, [r3, #0]
 80039f4:	4a07      	ldr	r2, [pc, #28]	; (8003a14 <HAL_Init+0x28>)
 80039f6:	f043 0310 	orr.w	r3, r3, #16
 80039fa:	6013      	str	r3, [r2, #0]
#endif
#endif /* PREFETCH_ENABLE */

  /* Set Interrupt Group Priority */
  HAL_NVIC_SetPriorityGrouping(NVIC_PRIORITYGROUP_4);
 80039fc:	2003      	movs	r0, #3
 80039fe:	f000 f923 	bl	8003c48 <HAL_NVIC_SetPriorityGrouping>

  /* Use systick as time base source and configure 1ms tick (default clock after Reset is HSI) */
  HAL_InitTick(TICK_INT_PRIORITY);
 8003a02:	200f      	movs	r0, #15
 8003a04:	f000 f808 	bl	8003a18 <HAL_InitTick>

  /* Init the low level hardware */
  HAL_MspInit();
 8003a08:	f7ff fe88 	bl	800371c <HAL_MspInit>

  /* Return function status */
  return HAL_OK;
 8003a0c:	2300      	movs	r3, #0
}
 8003a0e:	4618      	mov	r0, r3
 8003a10:	bd80      	pop	{r7, pc}
 8003a12:	bf00      	nop
 8003a14:	40022000 	.word	0x40022000

08003a18 <HAL_InitTick>:
  *       implementation  in user file.
  * @param TickPriority Tick interrupt priority.
  * @retval HAL status
  */
__weak HAL_StatusTypeDef HAL_InitTick(uint32_t TickPriority)
{
 8003a18:	b580      	push	{r7, lr}
 8003a1a:	b082      	sub	sp, #8
 8003a1c:	af00      	add	r7, sp, #0
 8003a1e:	6078      	str	r0, [r7, #4]
  /* Configure the SysTick to have interrupt in 1ms time basis*/
  if (HAL_SYSTICK_Config(SystemCoreClock / (1000U / uwTickFreq)) > 0U)
 8003a20:	4b12      	ldr	r3, [pc, #72]	; (8003a6c <HAL_InitTick+0x54>)
 8003a22:	681a      	ldr	r2, [r3, #0]
 8003a24:	4b12      	ldr	r3, [pc, #72]	; (8003a70 <HAL_InitTick+0x58>)
 8003a26:	781b      	ldrb	r3, [r3, #0]
 8003a28:	4619      	mov	r1, r3
 8003a2a:	f44f 737a 	mov.w	r3, #1000	; 0x3e8
 8003a2e:	fbb3 f3f1 	udiv	r3, r3, r1
 8003a32:	fbb2 f3f3 	udiv	r3, r2, r3
 8003a36:	4618      	mov	r0, r3
 8003a38:	f000 f93b 	bl	8003cb2 <HAL_SYSTICK_Config>
 8003a3c:	4603      	mov	r3, r0
 8003a3e:	2b00      	cmp	r3, #0
 8003a40:	d001      	beq.n	8003a46 <HAL_InitTick+0x2e>
  {
    return HAL_ERROR;
 8003a42:	2301      	movs	r3, #1
 8003a44:	e00e      	b.n	8003a64 <HAL_InitTick+0x4c>
  }

  /* Configure the SysTick IRQ priority */
  if (TickPriority < (1UL << __NVIC_PRIO_BITS))
 8003a46:	687b      	ldr	r3, [r7, #4]
 8003a48:	2b0f      	cmp	r3, #15
 8003a4a:	d80a      	bhi.n	8003a62 <HAL_InitTick+0x4a>
  {
    HAL_NVIC_SetPriority(SysTick_IRQn, TickPriority, 0U);
 8003a4c:	2200      	movs	r2, #0
 8003a4e:	6879      	ldr	r1, [r7, #4]
 8003a50:	f04f 30ff 	mov.w	r0, #4294967295
 8003a54:	f000 f903 	bl	8003c5e <HAL_NVIC_SetPriority>
    uwTickPrio = TickPriority;
 8003a58:	4a06      	ldr	r2, [pc, #24]	; (8003a74 <HAL_InitTick+0x5c>)
 8003a5a:	687b      	ldr	r3, [r7, #4]
 8003a5c:	6013      	str	r3, [r2, #0]
  {
    return HAL_ERROR;
  }

  /* Return function status */
  return HAL_OK;
 8003a5e:	2300      	movs	r3, #0
 8003a60:	e000      	b.n	8003a64 <HAL_InitTick+0x4c>
    return HAL_ERROR;
 8003a62:	2301      	movs	r3, #1
}
 8003a64:	4618      	mov	r0, r3
 8003a66:	3708      	adds	r7, #8
 8003a68:	46bd      	mov	sp, r7
 8003a6a:	bd80      	pop	{r7, pc}
 8003a6c:	20000000 	.word	0x20000000
 8003a70:	20000008 	.word	0x20000008
 8003a74:	20000004 	.word	0x20000004

08003a78 <HAL_IncTick>:
  * @note This function is declared as __weak to be overwritten in case of other
  *      implementations in user file.
  * @retval None
  */
__weak void HAL_IncTick(void)
{
 8003a78:	b480      	push	{r7}
 8003a7a:	af00      	add	r7, sp, #0
  uwTick += uwTickFreq;
 8003a7c:	4b05      	ldr	r3, [pc, #20]	; (8003a94 <HAL_IncTick+0x1c>)
 8003a7e:	781b      	ldrb	r3, [r3, #0]
 8003a80:	461a      	mov	r2, r3
 8003a82:	4b05      	ldr	r3, [pc, #20]	; (8003a98 <HAL_IncTick+0x20>)
 8003a84:	681b      	ldr	r3, [r3, #0]
 8003a86:	4413      	add	r3, r2
 8003a88:	4a03      	ldr	r2, [pc, #12]	; (8003a98 <HAL_IncTick+0x20>)
 8003a8a:	6013      	str	r3, [r2, #0]
}
 8003a8c:	bf00      	nop
 8003a8e:	46bd      	mov	sp, r7
 8003a90:	bc80      	pop	{r7}
 8003a92:	4770      	bx	lr
 8003a94:	20000008 	.word	0x20000008
 8003a98:	20004e74 	.word	0x20004e74

08003a9c <HAL_GetTick>:
  * @note  This function is declared as __weak to be overwritten in case of other
  *       implementations in user file.
  * @retval tick value
  */
__weak uint32_t HAL_GetTick(void)
{
 8003a9c:	b480      	push	{r7}
 8003a9e:	af00      	add	r7, sp, #0
  return uwTick;
 8003aa0:	4b02      	ldr	r3, [pc, #8]	; (8003aac <HAL_GetTick+0x10>)
 8003aa2:	681b      	ldr	r3, [r3, #0]
}
 8003aa4:	4618      	mov	r0, r3
 8003aa6:	46bd      	mov	sp, r7
 8003aa8:	bc80      	pop	{r7}
 8003aaa:	4770      	bx	lr
 8003aac:	20004e74 	.word	0x20004e74

08003ab0 <__NVIC_SetPriorityGrouping>:
           In case of a conflict between priority grouping and available
           priority bits (__NVIC_PRIO_BITS), the smallest possible priority group is set.
  \param [in]      PriorityGroup  Priority grouping field.
 */
__STATIC_INLINE void __NVIC_SetPriorityGrouping(uint32_t PriorityGroup)
{
 8003ab0:	b480      	push	{r7}
 8003ab2:	b085      	sub	sp, #20
 8003ab4:	af00      	add	r7, sp, #0
 8003ab6:	6078      	str	r0, [r7, #4]
  uint32_t reg_value;
  uint32_t PriorityGroupTmp = (PriorityGroup & (uint32_t)0x07UL);             /* only values 0..7 are used          */
 8003ab8:	687b      	ldr	r3, [r7, #4]
 8003aba:	f003 0307 	and.w	r3, r3, #7
 8003abe:	60fb      	str	r3, [r7, #12]

  reg_value  =  SCB->AIRCR;                                                   /* read old register configuration    */
 8003ac0:	4b0c      	ldr	r3, [pc, #48]	; (8003af4 <__NVIC_SetPriorityGrouping+0x44>)
 8003ac2:	68db      	ldr	r3, [r3, #12]
 8003ac4:	60bb      	str	r3, [r7, #8]
  reg_value &= ~((uint32_t)(SCB_AIRCR_VECTKEY_Msk | SCB_AIRCR_PRIGROUP_Msk)); /* clear bits to change               */
 8003ac6:	68ba      	ldr	r2, [r7, #8]
 8003ac8:	f64f 03ff 	movw	r3, #63743	; 0xf8ff
 8003acc:	4013      	ands	r3, r2
 8003ace:	60bb      	str	r3, [r7, #8]
  reg_value  =  (reg_value                                   |
                ((uint32_t)0x5FAUL << SCB_AIRCR_VECTKEY_Pos) |
                (PriorityGroupTmp << SCB_AIRCR_PRIGROUP_Pos) );               /* Insert write key and priority group */
 8003ad0:	68fb      	ldr	r3, [r7, #12]
 8003ad2:	021a      	lsls	r2, r3, #8
                ((uint32_t)0x5FAUL << SCB_AIRCR_VECTKEY_Pos) |
 8003ad4:	68bb      	ldr	r3, [r7, #8]
 8003ad6:	4313      	orrs	r3, r2
  reg_value  =  (reg_value                                   |
 8003ad8:	f043 63bf 	orr.w	r3, r3, #100139008	; 0x5f80000
 8003adc:	f443 3300 	orr.w	r3, r3, #131072	; 0x20000
 8003ae0:	60bb      	str	r3, [r7, #8]
  SCB->AIRCR =  reg_value;
 8003ae2:	4a04      	ldr	r2, [pc, #16]	; (8003af4 <__NVIC_SetPriorityGrouping+0x44>)
 8003ae4:	68bb      	ldr	r3, [r7, #8]
 8003ae6:	60d3      	str	r3, [r2, #12]
}
 8003ae8:	bf00      	nop
 8003aea:	3714      	adds	r7, #20
 8003aec:	46bd      	mov	sp, r7
 8003aee:	bc80      	pop	{r7}
 8003af0:	4770      	bx	lr
 8003af2:	bf00      	nop
 8003af4:	e000ed00 	.word	0xe000ed00

08003af8 <__NVIC_GetPriorityGrouping>:
  \brief   Get Priority Grouping
  \details Reads the priority grouping field from the NVIC Interrupt Controller.
  \return                Priority grouping field (SCB->AIRCR [10:8] PRIGROUP field).
 */
__STATIC_INLINE uint32_t __NVIC_GetPriorityGrouping(void)
{
 8003af8:	b480      	push	{r7}
 8003afa:	af00      	add	r7, sp, #0
  return ((uint32_t)((SCB->AIRCR & SCB_AIRCR_PRIGROUP_Msk) >> SCB_AIRCR_PRIGROUP_Pos));
 8003afc:	4b04      	ldr	r3, [pc, #16]	; (8003b10 <__NVIC_GetPriorityGrouping+0x18>)
 8003afe:	68db      	ldr	r3, [r3, #12]
 8003b00:	0a1b      	lsrs	r3, r3, #8
 8003b02:	f003 0307 	and.w	r3, r3, #7
}
 8003b06:	4618      	mov	r0, r3
 8003b08:	46bd      	mov	sp, r7
 8003b0a:	bc80      	pop	{r7}
 8003b0c:	4770      	bx	lr
 8003b0e:	bf00      	nop
 8003b10:	e000ed00 	.word	0xe000ed00

08003b14 <__NVIC_EnableIRQ>:
  \details Enables a device specific interrupt in the NVIC interrupt controller.
  \param [in]      IRQn  Device specific interrupt number.
  \note    IRQn must not be negative.
 */
__STATIC_INLINE void __NVIC_EnableIRQ(IRQn_Type IRQn)
{
 8003b14:	b480      	push	{r7}
 8003b16:	b083      	sub	sp, #12
 8003b18:	af00      	add	r7, sp, #0
 8003b1a:	4603      	mov	r3, r0
 8003b1c:	71fb      	strb	r3, [r7, #7]
  if ((int32_t)(IRQn) >= 0)
 8003b1e:	f997 3007 	ldrsb.w	r3, [r7, #7]
 8003b22:	2b00      	cmp	r3, #0
 8003b24:	db0b      	blt.n	8003b3e <__NVIC_EnableIRQ+0x2a>
  {
    NVIC->ISER[(((uint32_t)IRQn) >> 5UL)] = (uint32_t)(1UL << (((uint32_t)IRQn) & 0x1FUL));
 8003b26:	79fb      	ldrb	r3, [r7, #7]
 8003b28:	f003 021f 	and.w	r2, r3, #31
 8003b2c:	4906      	ldr	r1, [pc, #24]	; (8003b48 <__NVIC_EnableIRQ+0x34>)
 8003b2e:	f997 3007 	ldrsb.w	r3, [r7, #7]
 8003b32:	095b      	lsrs	r3, r3, #5
 8003b34:	2001      	movs	r0, #1
 8003b36:	fa00 f202 	lsl.w	r2, r0, r2
 8003b3a:	f841 2023 	str.w	r2, [r1, r3, lsl #2]
  }
}
 8003b3e:	bf00      	nop
 8003b40:	370c      	adds	r7, #12
 8003b42:	46bd      	mov	sp, r7
 8003b44:	bc80      	pop	{r7}
 8003b46:	4770      	bx	lr
 8003b48:	e000e100 	.word	0xe000e100

08003b4c <__NVIC_SetPriority>:
  \param [in]      IRQn  Interrupt number.
  \param [in]  priority  Priority to set.
  \note    The priority cannot be set for every processor exception.
 */
__STATIC_INLINE void __NVIC_SetPriority(IRQn_Type IRQn, uint32_t priority)
{
 8003b4c:	b480      	push	{r7}
 8003b4e:	b083      	sub	sp, #12
 8003b50:	af00      	add	r7, sp, #0
 8003b52:	4603      	mov	r3, r0
 8003b54:	6039      	str	r1, [r7, #0]
 8003b56:	71fb      	strb	r3, [r7, #7]
  if ((int32_t)(IRQn) >= 0)
 8003b58:	f997 3007 	ldrsb.w	r3, [r7, #7]
 8003b5c:	2b00      	cmp	r3, #0
 8003b5e:	db0a      	blt.n	8003b76 <__NVIC_SetPriority+0x2a>
  {
    NVIC->IP[((uint32_t)IRQn)]               = (uint8_t)((priority << (8U - __NVIC_PRIO_BITS)) & (uint32_t)0xFFUL);
 8003b60:	683b      	ldr	r3, [r7, #0]
 8003b62:	b2da      	uxtb	r2, r3
 8003b64:	490c      	ldr	r1, [pc, #48]	; (8003b98 <__NVIC_SetPriority+0x4c>)
 8003b66:	f997 3007 	ldrsb.w	r3, [r7, #7]
 8003b6a:	0112      	lsls	r2, r2, #4
 8003b6c:	b2d2      	uxtb	r2, r2
 8003b6e:	440b      	add	r3, r1
 8003b70:	f883 2300 	strb.w	r2, [r3, #768]	; 0x300
  }
  else
  {
    SCB->SHP[(((uint32_t)IRQn) & 0xFUL)-4UL] = (uint8_t)((priority << (8U - __NVIC_PRIO_BITS)) & (uint32_t)0xFFUL);
  }
}
 8003b74:	e00a      	b.n	8003b8c <__NVIC_SetPriority+0x40>
    SCB->SHP[(((uint32_t)IRQn) & 0xFUL)-4UL] = (uint8_t)((priority << (8U - __NVIC_PRIO_BITS)) & (uint32_t)0xFFUL);
 8003b76:	683b      	ldr	r3, [r7, #0]
 8003b78:	b2da      	uxtb	r2, r3
 8003b7a:	4908      	ldr	r1, [pc, #32]	; (8003b9c <__NVIC_SetPriority+0x50>)
 8003b7c:	79fb      	ldrb	r3, [r7, #7]
 8003b7e:	f003 030f 	and.w	r3, r3, #15
 8003b82:	3b04      	subs	r3, #4
 8003b84:	0112      	lsls	r2, r2, #4
 8003b86:	b2d2      	uxtb	r2, r2
 8003b88:	440b      	add	r3, r1
 8003b8a:	761a      	strb	r2, [r3, #24]
}
 8003b8c:	bf00      	nop
 8003b8e:	370c      	adds	r7, #12
 8003b90:	46bd      	mov	sp, r7
 8003b92:	bc80      	pop	{r7}
 8003b94:	4770      	bx	lr
 8003b96:	bf00      	nop
 8003b98:	e000e100 	.word	0xe000e100
 8003b9c:	e000ed00 	.word	0xe000ed00

08003ba0 <NVIC_EncodePriority>:
  \param [in]   PreemptPriority  Preemptive priority value (starting from 0).
  \param [in]       SubPriority  Subpriority value (starting from 0).
  \return                        Encoded priority. Value can be used in the function \ref NVIC_SetPriority().
 */
__STATIC_INLINE uint32_t NVIC_EncodePriority (uint32_t PriorityGroup, uint32_t PreemptPriority, uint32_t SubPriority)
{
 8003ba0:	b480      	push	{r7}
 8003ba2:	b089      	sub	sp, #36	; 0x24
 8003ba4:	af00      	add	r7, sp, #0
 8003ba6:	60f8      	str	r0, [r7, #12]
 8003ba8:	60b9      	str	r1, [r7, #8]
 8003baa:	607a      	str	r2, [r7, #4]
  uint32_t PriorityGroupTmp = (PriorityGroup & (uint32_t)0x07UL);   /* only values 0..7 are used          */
 8003bac:	68fb      	ldr	r3, [r7, #12]
 8003bae:	f003 0307 	and.w	r3, r3, #7
 8003bb2:	61fb      	str	r3, [r7, #28]
  uint32_t PreemptPriorityBits;
  uint32_t SubPriorityBits;

  PreemptPriorityBits = ((7UL - PriorityGroupTmp) > (uint32_t)(__NVIC_PRIO_BITS)) ? (uint32_t)(__NVIC_PRIO_BITS) : (uint32_t)(7UL - PriorityGroupTmp);
 8003bb4:	69fb      	ldr	r3, [r7, #28]
 8003bb6:	f1c3 0307 	rsb	r3, r3, #7
 8003bba:	2b04      	cmp	r3, #4
 8003bbc:	bf28      	it	cs
 8003bbe:	2304      	movcs	r3, #4
 8003bc0:	61bb      	str	r3, [r7, #24]
  SubPriorityBits     = ((PriorityGroupTmp + (uint32_t)(__NVIC_PRIO_BITS)) < (uint32_t)7UL) ? (uint32_t)0UL : (uint32_t)((PriorityGroupTmp - 7UL) + (uint32_t)(__NVIC_PRIO_BITS));
 8003bc2:	69fb      	ldr	r3, [r7, #28]
 8003bc4:	3304      	adds	r3, #4
 8003bc6:	2b06      	cmp	r3, #6
 8003bc8:	d902      	bls.n	8003bd0 <NVIC_EncodePriority+0x30>
 8003bca:	69fb      	ldr	r3, [r7, #28]
 8003bcc:	3b03      	subs	r3, #3
 8003bce:	e000      	b.n	8003bd2 <NVIC_EncodePriority+0x32>
 8003bd0:	2300      	movs	r3, #0
 8003bd2:	617b      	str	r3, [r7, #20]

  return (
           ((PreemptPriority & (uint32_t)((1UL << (PreemptPriorityBits)) - 1UL)) << SubPriorityBits) |
 8003bd4:	f04f 32ff 	mov.w	r2, #4294967295
 8003bd8:	69bb      	ldr	r3, [r7, #24]
 8003bda:	fa02 f303 	lsl.w	r3, r2, r3
 8003bde:	43da      	mvns	r2, r3
 8003be0:	68bb      	ldr	r3, [r7, #8]
 8003be2:	401a      	ands	r2, r3
 8003be4:	697b      	ldr	r3, [r7, #20]
 8003be6:	409a      	lsls	r2, r3
           ((SubPriority     & (uint32_t)((1UL << (SubPriorityBits    )) - 1UL)))
 8003be8:	f04f 31ff 	mov.w	r1, #4294967295
 8003bec:	697b      	ldr	r3, [r7, #20]
 8003bee:	fa01 f303 	lsl.w	r3, r1, r3
 8003bf2:	43d9      	mvns	r1, r3
 8003bf4:	687b      	ldr	r3, [r7, #4]
 8003bf6:	400b      	ands	r3, r1
           ((PreemptPriority & (uint32_t)((1UL << (PreemptPriorityBits)) - 1UL)) << SubPriorityBits) |
 8003bf8:	4313      	orrs	r3, r2
         );
}
 8003bfa:	4618      	mov	r0, r3
 8003bfc:	3724      	adds	r7, #36	; 0x24
 8003bfe:	46bd      	mov	sp, r7
 8003c00:	bc80      	pop	{r7}
 8003c02:	4770      	bx	lr

08003c04 <SysTick_Config>:
  \note    When the variable <b>__Vendor_SysTickConfig</b> is set to 1, then the
           function <b>SysTick_Config</b> is not included. In this case, the file <b><i>device</i>.h</b>
           must contain a vendor-specific implementation of this function.
 */
__STATIC_INLINE uint32_t SysTick_Config(uint32_t ticks)
{
 8003c04:	b580      	push	{r7, lr}
 8003c06:	b082      	sub	sp, #8
 8003c08:	af00      	add	r7, sp, #0
 8003c0a:	6078      	str	r0, [r7, #4]
  if ((ticks - 1UL) > SysTick_LOAD_RELOAD_Msk)
 8003c0c:	687b      	ldr	r3, [r7, #4]
 8003c0e:	3b01      	subs	r3, #1
 8003c10:	f1b3 7f80 	cmp.w	r3, #16777216	; 0x1000000
 8003c14:	d301      	bcc.n	8003c1a <SysTick_Config+0x16>
  {
    return (1UL);                                                   /* Reload value impossible */
 8003c16:	2301      	movs	r3, #1
 8003c18:	e00f      	b.n	8003c3a <SysTick_Config+0x36>
  }

  SysTick->LOAD  = (uint32_t)(ticks - 1UL);                         /* set reload register */
 8003c1a:	4a0a      	ldr	r2, [pc, #40]	; (8003c44 <SysTick_Config+0x40>)
 8003c1c:	687b      	ldr	r3, [r7, #4]
 8003c1e:	3b01      	subs	r3, #1
 8003c20:	6053      	str	r3, [r2, #4]
  NVIC_SetPriority (SysTick_IRQn, (1UL << __NVIC_PRIO_BITS) - 1UL); /* set Priority for Systick Interrupt */
 8003c22:	210f      	movs	r1, #15
 8003c24:	f04f 30ff 	mov.w	r0, #4294967295
 8003c28:	f7ff ff90 	bl	8003b4c <__NVIC_SetPriority>
  SysTick->VAL   = 0UL;                                             /* Load the SysTick Counter Value */
 8003c2c:	4b05      	ldr	r3, [pc, #20]	; (8003c44 <SysTick_Config+0x40>)
 8003c2e:	2200      	movs	r2, #0
 8003c30:	609a      	str	r2, [r3, #8]
  SysTick->CTRL  = SysTick_CTRL_CLKSOURCE_Msk |
 8003c32:	4b04      	ldr	r3, [pc, #16]	; (8003c44 <SysTick_Config+0x40>)
 8003c34:	2207      	movs	r2, #7
 8003c36:	601a      	str	r2, [r3, #0]
                   SysTick_CTRL_TICKINT_Msk   |
                   SysTick_CTRL_ENABLE_Msk;                         /* Enable SysTick IRQ and SysTick Timer */
  return (0UL);                                                     /* Function successful */
 8003c38:	2300      	movs	r3, #0
}
 8003c3a:	4618      	mov	r0, r3
 8003c3c:	3708      	adds	r7, #8
 8003c3e:	46bd      	mov	sp, r7
 8003c40:	bd80      	pop	{r7, pc}
 8003c42:	bf00      	nop
 8003c44:	e000e010 	.word	0xe000e010

08003c48 <HAL_NVIC_SetPriorityGrouping>:
  * @note   When the NVIC_PriorityGroup_0 is selected, IRQ preemption is no more possible. 
  *         The pending IRQ priority will be managed only by the subpriority. 
  * @retval None
  */
void HAL_NVIC_SetPriorityGrouping(uint32_t PriorityGroup)
{
 8003c48:	b580      	push	{r7, lr}
 8003c4a:	b082      	sub	sp, #8
 8003c4c:	af00      	add	r7, sp, #0
 8003c4e:	6078      	str	r0, [r7, #4]
  /* Check the parameters */
  assert_param(IS_NVIC_PRIORITY_GROUP(PriorityGroup));
  
  /* Set the PRIGROUP[10:8] bits according to the PriorityGroup parameter value */
  NVIC_SetPriorityGrouping(PriorityGroup);
 8003c50:	6878      	ldr	r0, [r7, #4]
 8003c52:	f7ff ff2d 	bl	8003ab0 <__NVIC_SetPriorityGrouping>
}
 8003c56:	bf00      	nop
 8003c58:	3708      	adds	r7, #8
 8003c5a:	46bd      	mov	sp, r7
 8003c5c:	bd80      	pop	{r7, pc}

08003c5e <HAL_NVIC_SetPriority>:
  *         This parameter can be a value between 0 and 15
  *         A lower priority value indicates a higher priority.          
  * @retval None
  */
void HAL_NVIC_SetPriority(IRQn_Type IRQn, uint32_t PreemptPriority, uint32_t SubPriority)
{ 
 8003c5e:	b580      	push	{r7, lr}
 8003c60:	b086      	sub	sp, #24
 8003c62:	af00      	add	r7, sp, #0
 8003c64:	4603      	mov	r3, r0
 8003c66:	60b9      	str	r1, [r7, #8]
 8003c68:	607a      	str	r2, [r7, #4]
 8003c6a:	73fb      	strb	r3, [r7, #15]
  uint32_t prioritygroup = 0x00U;
 8003c6c:	2300      	movs	r3, #0
 8003c6e:	617b      	str	r3, [r7, #20]
  
  /* Check the parameters */
  assert_param(IS_NVIC_SUB_PRIORITY(SubPriority));
  assert_param(IS_NVIC_PREEMPTION_PRIORITY(PreemptPriority));
  
  prioritygroup = NVIC_GetPriorityGrouping();
 8003c70:	f7ff ff42 	bl	8003af8 <__NVIC_GetPriorityGrouping>
 8003c74:	6178      	str	r0, [r7, #20]
  
  NVIC_SetPriority(IRQn, NVIC_EncodePriority(prioritygroup, PreemptPriority, SubPriority));
 8003c76:	687a      	ldr	r2, [r7, #4]
 8003c78:	68b9      	ldr	r1, [r7, #8]
 8003c7a:	6978      	ldr	r0, [r7, #20]
 8003c7c:	f7ff ff90 	bl	8003ba0 <NVIC_EncodePriority>
 8003c80:	4602      	mov	r2, r0
 8003c82:	f997 300f 	ldrsb.w	r3, [r7, #15]
 8003c86:	4611      	mov	r1, r2
 8003c88:	4618      	mov	r0, r3
 8003c8a:	f7ff ff5f 	bl	8003b4c <__NVIC_SetPriority>
}
 8003c8e:	bf00      	nop
 8003c90:	3718      	adds	r7, #24
 8003c92:	46bd      	mov	sp, r7
 8003c94:	bd80      	pop	{r7, pc}

08003c96 <HAL_NVIC_EnableIRQ>:
  *         This parameter can be an enumerator of IRQn_Type enumeration
  *         (For the complete STM32 Devices IRQ Channels list, please refer to the appropriate CMSIS device file (stm32f10xxx.h))
  * @retval None
  */
void HAL_NVIC_EnableIRQ(IRQn_Type IRQn)
{
 8003c96:	b580      	push	{r7, lr}
 8003c98:	b082      	sub	sp, #8
 8003c9a:	af00      	add	r7, sp, #0
 8003c9c:	4603      	mov	r3, r0
 8003c9e:	71fb      	strb	r3, [r7, #7]
  /* Check the parameters */
  assert_param(IS_NVIC_DEVICE_IRQ(IRQn));

  /* Enable interrupt */
  NVIC_EnableIRQ(IRQn);
 8003ca0:	f997 3007 	ldrsb.w	r3, [r7, #7]
 8003ca4:	4618      	mov	r0, r3
 8003ca6:	f7ff ff35 	bl	8003b14 <__NVIC_EnableIRQ>
}
 8003caa:	bf00      	nop
 8003cac:	3708      	adds	r7, #8
 8003cae:	46bd      	mov	sp, r7
 8003cb0:	bd80      	pop	{r7, pc}

08003cb2 <HAL_SYSTICK_Config>:
  * @param  TicksNumb: Specifies the ticks Number of ticks between two interrupts.
  * @retval status:  - 0  Function succeeded.
  *                  - 1  Function failed.
  */
uint32_t HAL_SYSTICK_Config(uint32_t TicksNumb)
{
 8003cb2:	b580      	push	{r7, lr}
 8003cb4:	b082      	sub	sp, #8
 8003cb6:	af00      	add	r7, sp, #0
 8003cb8:	6078      	str	r0, [r7, #4]
   return SysTick_Config(TicksNumb);
 8003cba:	6878      	ldr	r0, [r7, #4]
 8003cbc:	f7ff ffa2 	bl	8003c04 <SysTick_Config>
 8003cc0:	4603      	mov	r3, r0
}
 8003cc2:	4618      	mov	r0, r3
 8003cc4:	3708      	adds	r7, #8
 8003cc6:	46bd      	mov	sp, r7
 8003cc8:	bd80      	pop	{r7, pc}
	...

08003ccc <HAL_DMA_Abort_IT>:
  * @param  hdma  : pointer to a DMA_HandleTypeDef structure that contains
  *                 the configuration information for the specified DMA Channel.
  * @retval HAL status
  */
HAL_StatusTypeDef HAL_DMA_Abort_IT(DMA_HandleTypeDef *hdma)
{  
 8003ccc:	b580      	push	{r7, lr}
 8003cce:	b084      	sub	sp, #16
 8003cd0:	af00      	add	r7, sp, #0
 8003cd2:	6078      	str	r0, [r7, #4]
  HAL_StatusTypeDef status = HAL_OK;
 8003cd4:	2300      	movs	r3, #0
 8003cd6:	73fb      	strb	r3, [r7, #15]
  
  if(HAL_DMA_STATE_BUSY != hdma->State)
 8003cd8:	687b      	ldr	r3, [r7, #4]
 8003cda:	f893 3021 	ldrb.w	r3, [r3, #33]	; 0x21
 8003cde:	2b02      	cmp	r3, #2
 8003ce0:	d005      	beq.n	8003cee <HAL_DMA_Abort_IT+0x22>
  {
    /* no transfer ongoing */
    hdma->ErrorCode = HAL_DMA_ERROR_NO_XFER;
 8003ce2:	687b      	ldr	r3, [r7, #4]
 8003ce4:	2204      	movs	r2, #4
 8003ce6:	639a      	str	r2, [r3, #56]	; 0x38
        
    status = HAL_ERROR;
 8003ce8:	2301      	movs	r3, #1
 8003cea:	73fb      	strb	r3, [r7, #15]
 8003cec:	e0d6      	b.n	8003e9c <HAL_DMA_Abort_IT+0x1d0>
  }
  else
  { 
    /* Disable DMA IT */
    __HAL_DMA_DISABLE_IT(hdma, (DMA_IT_TC | DMA_IT_HT | DMA_IT_TE));
 8003cee:	687b      	ldr	r3, [r7, #4]
 8003cf0:	681b      	ldr	r3, [r3, #0]
 8003cf2:	681a      	ldr	r2, [r3, #0]
 8003cf4:	687b      	ldr	r3, [r7, #4]
 8003cf6:	681b      	ldr	r3, [r3, #0]
 8003cf8:	f022 020e 	bic.w	r2, r2, #14
 8003cfc:	601a      	str	r2, [r3, #0]

    /* Disable the channel */
    __HAL_DMA_DISABLE(hdma);
 8003cfe:	687b      	ldr	r3, [r7, #4]
 8003d00:	681b      	ldr	r3, [r3, #0]
 8003d02:	681a      	ldr	r2, [r3, #0]
 8003d04:	687b      	ldr	r3, [r7, #4]
 8003d06:	681b      	ldr	r3, [r3, #0]
 8003d08:	f022 0201 	bic.w	r2, r2, #1
 8003d0c:	601a      	str	r2, [r3, #0]

    /* Clear all flags */
    __HAL_DMA_CLEAR_FLAG(hdma, __HAL_DMA_GET_GI_FLAG_INDEX(hdma));
 8003d0e:	687b      	ldr	r3, [r7, #4]
 8003d10:	681b      	ldr	r3, [r3, #0]
 8003d12:	461a      	mov	r2, r3
 8003d14:	4b64      	ldr	r3, [pc, #400]	; (8003ea8 <HAL_DMA_Abort_IT+0x1dc>)
 8003d16:	429a      	cmp	r2, r3
 8003d18:	d958      	bls.n	8003dcc <HAL_DMA_Abort_IT+0x100>
 8003d1a:	687b      	ldr	r3, [r7, #4]
 8003d1c:	681b      	ldr	r3, [r3, #0]
 8003d1e:	4a63      	ldr	r2, [pc, #396]	; (8003eac <HAL_DMA_Abort_IT+0x1e0>)
 8003d20:	4293      	cmp	r3, r2
 8003d22:	d04f      	beq.n	8003dc4 <HAL_DMA_Abort_IT+0xf8>
 8003d24:	687b      	ldr	r3, [r7, #4]
 8003d26:	681b      	ldr	r3, [r3, #0]
 8003d28:	4a61      	ldr	r2, [pc, #388]	; (8003eb0 <HAL_DMA_Abort_IT+0x1e4>)
 8003d2a:	4293      	cmp	r3, r2
 8003d2c:	d048      	beq.n	8003dc0 <HAL_DMA_Abort_IT+0xf4>
 8003d2e:	687b      	ldr	r3, [r7, #4]
 8003d30:	681b      	ldr	r3, [r3, #0]
 8003d32:	4a60      	ldr	r2, [pc, #384]	; (8003eb4 <HAL_DMA_Abort_IT+0x1e8>)
 8003d34:	4293      	cmp	r3, r2
 8003d36:	d040      	beq.n	8003dba <HAL_DMA_Abort_IT+0xee>
 8003d38:	687b      	ldr	r3, [r7, #4]
 8003d3a:	681b      	ldr	r3, [r3, #0]
 8003d3c:	4a5e      	ldr	r2, [pc, #376]	; (8003eb8 <HAL_DMA_Abort_IT+0x1ec>)
 8003d3e:	4293      	cmp	r3, r2
 8003d40:	d038      	beq.n	8003db4 <HAL_DMA_Abort_IT+0xe8>
 8003d42:	687b      	ldr	r3, [r7, #4]
 8003d44:	681b      	ldr	r3, [r3, #0]
 8003d46:	4a5d      	ldr	r2, [pc, #372]	; (8003ebc <HAL_DMA_Abort_IT+0x1f0>)
 8003d48:	4293      	cmp	r3, r2
 8003d4a:	d030      	beq.n	8003dae <HAL_DMA_Abort_IT+0xe2>
 8003d4c:	687b      	ldr	r3, [r7, #4]
 8003d4e:	681b      	ldr	r3, [r3, #0]
 8003d50:	4a5b      	ldr	r2, [pc, #364]	; (8003ec0 <HAL_DMA_Abort_IT+0x1f4>)
 8003d52:	4293      	cmp	r3, r2
 8003d54:	d028      	beq.n	8003da8 <HAL_DMA_Abort_IT+0xdc>
 8003d56:	687b      	ldr	r3, [r7, #4]
 8003d58:	681b      	ldr	r3, [r3, #0]
 8003d5a:	4a53      	ldr	r2, [pc, #332]	; (8003ea8 <HAL_DMA_Abort_IT+0x1dc>)
 8003d5c:	4293      	cmp	r3, r2
 8003d5e:	d020      	beq.n	8003da2 <HAL_DMA_Abort_IT+0xd6>
 8003d60:	687b      	ldr	r3, [r7, #4]
 8003d62:	681b      	ldr	r3, [r3, #0]
 8003d64:	4a57      	ldr	r2, [pc, #348]	; (8003ec4 <HAL_DMA_Abort_IT+0x1f8>)
 8003d66:	4293      	cmp	r3, r2
 8003d68:	d019      	beq.n	8003d9e <HAL_DMA_Abort_IT+0xd2>
 8003d6a:	687b      	ldr	r3, [r7, #4]
 8003d6c:	681b      	ldr	r3, [r3, #0]
 8003d6e:	4a56      	ldr	r2, [pc, #344]	; (8003ec8 <HAL_DMA_Abort_IT+0x1fc>)
 8003d70:	4293      	cmp	r3, r2
 8003d72:	d012      	beq.n	8003d9a <HAL_DMA_Abort_IT+0xce>
 8003d74:	687b      	ldr	r3, [r7, #4]
 8003d76:	681b      	ldr	r3, [r3, #0]
 8003d78:	4a54      	ldr	r2, [pc, #336]	; (8003ecc <HAL_DMA_Abort_IT+0x200>)
 8003d7a:	4293      	cmp	r3, r2
 8003d7c:	d00a      	beq.n	8003d94 <HAL_DMA_Abort_IT+0xc8>
 8003d7e:	687b      	ldr	r3, [r7, #4]
 8003d80:	681b      	ldr	r3, [r3, #0]
 8003d82:	4a53      	ldr	r2, [pc, #332]	; (8003ed0 <HAL_DMA_Abort_IT+0x204>)
 8003d84:	4293      	cmp	r3, r2
 8003d86:	d102      	bne.n	8003d8e <HAL_DMA_Abort_IT+0xc2>
 8003d88:	f44f 5380 	mov.w	r3, #4096	; 0x1000
 8003d8c:	e01b      	b.n	8003dc6 <HAL_DMA_Abort_IT+0xfa>
 8003d8e:	f44f 3380 	mov.w	r3, #65536	; 0x10000
 8003d92:	e018      	b.n	8003dc6 <HAL_DMA_Abort_IT+0xfa>
 8003d94:	f44f 7380 	mov.w	r3, #256	; 0x100
 8003d98:	e015      	b.n	8003dc6 <HAL_DMA_Abort_IT+0xfa>
 8003d9a:	2310      	movs	r3, #16
 8003d9c:	e013      	b.n	8003dc6 <HAL_DMA_Abort_IT+0xfa>
 8003d9e:	2301      	movs	r3, #1
 8003da0:	e011      	b.n	8003dc6 <HAL_DMA_Abort_IT+0xfa>
 8003da2:	f04f 7380 	mov.w	r3, #16777216	; 0x1000000
 8003da6:	e00e      	b.n	8003dc6 <HAL_DMA_Abort_IT+0xfa>
 8003da8:	f44f 1380 	mov.w	r3, #1048576	; 0x100000
 8003dac:	e00b      	b.n	8003dc6 <HAL_DMA_Abort_IT+0xfa>
 8003dae:	f44f 3380 	mov.w	r3, #65536	; 0x10000
 8003db2:	e008      	b.n	8003dc6 <HAL_DMA_Abort_IT+0xfa>
 8003db4:	f44f 5380 	mov.w	r3, #4096	; 0x1000
 8003db8:	e005      	b.n	8003dc6 <HAL_DMA_Abort_IT+0xfa>
 8003dba:	f44f 7380 	mov.w	r3, #256	; 0x100
 8003dbe:	e002      	b.n	8003dc6 <HAL_DMA_Abort_IT+0xfa>
 8003dc0:	2310      	movs	r3, #16
 8003dc2:	e000      	b.n	8003dc6 <HAL_DMA_Abort_IT+0xfa>
 8003dc4:	2301      	movs	r3, #1
 8003dc6:	4a43      	ldr	r2, [pc, #268]	; (8003ed4 <HAL_DMA_Abort_IT+0x208>)
 8003dc8:	6053      	str	r3, [r2, #4]
 8003dca:	e057      	b.n	8003e7c <HAL_DMA_Abort_IT+0x1b0>
 8003dcc:	687b      	ldr	r3, [r7, #4]
 8003dce:	681b      	ldr	r3, [r3, #0]
 8003dd0:	4a36      	ldr	r2, [pc, #216]	; (8003eac <HAL_DMA_Abort_IT+0x1e0>)
 8003dd2:	4293      	cmp	r3, r2
 8003dd4:	d04f      	beq.n	8003e76 <HAL_DMA_Abort_IT+0x1aa>
 8003dd6:	687b      	ldr	r3, [r7, #4]
 8003dd8:	681b      	ldr	r3, [r3, #0]
 8003dda:	4a35      	ldr	r2, [pc, #212]	; (8003eb0 <HAL_DMA_Abort_IT+0x1e4>)
 8003ddc:	4293      	cmp	r3, r2
 8003dde:	d048      	beq.n	8003e72 <HAL_DMA_Abort_IT+0x1a6>
 8003de0:	687b      	ldr	r3, [r7, #4]
 8003de2:	681b      	ldr	r3, [r3, #0]
 8003de4:	4a33      	ldr	r2, [pc, #204]	; (8003eb4 <HAL_DMA_Abort_IT+0x1e8>)
 8003de6:	4293      	cmp	r3, r2
 8003de8:	d040      	beq.n	8003e6c <HAL_DMA_Abort_IT+0x1a0>
 8003dea:	687b      	ldr	r3, [r7, #4]
 8003dec:	681b      	ldr	r3, [r3, #0]
 8003dee:	4a32      	ldr	r2, [pc, #200]	; (8003eb8 <HAL_DMA_Abort_IT+0x1ec>)
 8003df0:	4293      	cmp	r3, r2
 8003df2:	d038      	beq.n	8003e66 <HAL_DMA_Abort_IT+0x19a>
 8003df4:	687b      	ldr	r3, [r7, #4]
 8003df6:	681b      	ldr	r3, [r3, #0]
 8003df8:	4a30      	ldr	r2, [pc, #192]	; (8003ebc <HAL_DMA_Abort_IT+0x1f0>)
 8003dfa:	4293      	cmp	r3, r2
 8003dfc:	d030      	beq.n	8003e60 <HAL_DMA_Abort_IT+0x194>
 8003dfe:	687b      	ldr	r3, [r7, #4]
 8003e00:	681b      	ldr	r3, [r3, #0]
 8003e02:	4a2f      	ldr	r2, [pc, #188]	; (8003ec0 <HAL_DMA_Abort_IT+0x1f4>)
 8003e04:	4293      	cmp	r3, r2
 8003e06:	d028      	beq.n	8003e5a <HAL_DMA_Abort_IT+0x18e>
 8003e08:	687b      	ldr	r3, [r7, #4]
 8003e0a:	681b      	ldr	r3, [r3, #0]
 8003e0c:	4a26      	ldr	r2, [pc, #152]	; (8003ea8 <HAL_DMA_Abort_IT+0x1dc>)
 8003e0e:	4293      	cmp	r3, r2
 8003e10:	d020      	beq.n	8003e54 <HAL_DMA_Abort_IT+0x188>
 8003e12:	687b      	ldr	r3, [r7, #4]
 8003e14:	681b      	ldr	r3, [r3, #0]
 8003e16:	4a2b      	ldr	r2, [pc, #172]	; (8003ec4 <HAL_DMA_Abort_IT+0x1f8>)
 8003e18:	4293      	cmp	r3, r2
 8003e1a:	d019      	beq.n	8003e50 <HAL_DMA_Abort_IT+0x184>
 8003e1c:	687b      	ldr	r3, [r7, #4]
 8003e1e:	681b      	ldr	r3, [r3, #0]
 8003e20:	4a29      	ldr	r2, [pc, #164]	; (8003ec8 <HAL_DMA_Abort_IT+0x1fc>)
 8003e22:	4293      	cmp	r3, r2
 8003e24:	d012      	beq.n	8003e4c <HAL_DMA_Abort_IT+0x180>
 8003e26:	687b      	ldr	r3, [r7, #4]
 8003e28:	681b      	ldr	r3, [r3, #0]
 8003e2a:	4a28      	ldr	r2, [pc, #160]	; (8003ecc <HAL_DMA_Abort_IT+0x200>)
 8003e2c:	4293      	cmp	r3, r2
 8003e2e:	d00a      	beq.n	8003e46 <HAL_DMA_Abort_IT+0x17a>
 8003e30:	687b      	ldr	r3, [r7, #4]
 8003e32:	681b      	ldr	r3, [r3, #0]
 8003e34:	4a26      	ldr	r2, [pc, #152]	; (8003ed0 <HAL_DMA_Abort_IT+0x204>)
 8003e36:	4293      	cmp	r3, r2
 8003e38:	d102      	bne.n	8003e40 <HAL_DMA_Abort_IT+0x174>
 8003e3a:	f44f 5380 	mov.w	r3, #4096	; 0x1000
 8003e3e:	e01b      	b.n	8003e78 <HAL_DMA_Abort_IT+0x1ac>
 8003e40:	f44f 3380 	mov.w	r3, #65536	; 0x10000
 8003e44:	e018      	b.n	8003e78 <HAL_DMA_Abort_IT+0x1ac>
 8003e46:	f44f 7380 	mov.w	r3, #256	; 0x100
 8003e4a:	e015      	b.n	8003e78 <HAL_DMA_Abort_IT+0x1ac>
 8003e4c:	2310      	movs	r3, #16
 8003e4e:	e013      	b.n	8003e78 <HAL_DMA_Abort_IT+0x1ac>
 8003e50:	2301      	movs	r3, #1
 8003e52:	e011      	b.n	8003e78 <HAL_DMA_Abort_IT+0x1ac>
 8003e54:	f04f 7380 	mov.w	r3, #16777216	; 0x1000000
 8003e58:	e00e      	b.n	8003e78 <HAL_DMA_Abort_IT+0x1ac>
 8003e5a:	f44f 1380 	mov.w	r3, #1048576	; 0x100000
 8003e5e:	e00b      	b.n	8003e78 <HAL_DMA_Abort_IT+0x1ac>
 8003e60:	f44f 3380 	mov.w	r3, #65536	; 0x10000
 8003e64:	e008      	b.n	8003e78 <HAL_DMA_Abort_IT+0x1ac>
 8003e66:	f44f 5380 	mov.w	r3, #4096	; 0x1000
 8003e6a:	e005      	b.n	8003e78 <HAL_DMA_Abort_IT+0x1ac>
 8003e6c:	f44f 7380 	mov.w	r3, #256	; 0x100
 8003e70:	e002      	b.n	8003e78 <HAL_DMA_Abort_IT+0x1ac>
 8003e72:	2310      	movs	r3, #16
 8003e74:	e000      	b.n	8003e78 <HAL_DMA_Abort_IT+0x1ac>
 8003e76:	2301      	movs	r3, #1
 8003e78:	4a17      	ldr	r2, [pc, #92]	; (8003ed8 <HAL_DMA_Abort_IT+0x20c>)
 8003e7a:	6053      	str	r3, [r2, #4]

    /* Change the DMA state */
    hdma->State = HAL_DMA_STATE_READY;
 8003e7c:	687b      	ldr	r3, [r7, #4]
 8003e7e:	2201      	movs	r2, #1
 8003e80:	f883 2021 	strb.w	r2, [r3, #33]	; 0x21

    /* Process Unlocked */
    __HAL_UNLOCK(hdma);
 8003e84:	687b      	ldr	r3, [r7, #4]
 8003e86:	2200      	movs	r2, #0
 8003e88:	f883 2020 	strb.w	r2, [r3, #32]

    /* Call User Abort callback */
    if(hdma->XferAbortCallback != NULL)
 8003e8c:	687b      	ldr	r3, [r7, #4]
 8003e8e:	6b5b      	ldr	r3, [r3, #52]	; 0x34
 8003e90:	2b00      	cmp	r3, #0
 8003e92:	d003      	beq.n	8003e9c <HAL_DMA_Abort_IT+0x1d0>
    {
      hdma->XferAbortCallback(hdma);
 8003e94:	687b      	ldr	r3, [r7, #4]
 8003e96:	6b5b      	ldr	r3, [r3, #52]	; 0x34
 8003e98:	6878      	ldr	r0, [r7, #4]
 8003e9a:	4798      	blx	r3
    } 
  }
  return status;
 8003e9c:	7bfb      	ldrb	r3, [r7, #15]
}
 8003e9e:	4618      	mov	r0, r3
 8003ea0:	3710      	adds	r7, #16
 8003ea2:	46bd      	mov	sp, r7
 8003ea4:	bd80      	pop	{r7, pc}
 8003ea6:	bf00      	nop
 8003ea8:	40020080 	.word	0x40020080
 8003eac:	40020008 	.word	0x40020008
 8003eb0:	4002001c 	.word	0x4002001c
 8003eb4:	40020030 	.word	0x40020030
 8003eb8:	40020044 	.word	0x40020044
 8003ebc:	40020058 	.word	0x40020058
 8003ec0:	4002006c 	.word	0x4002006c
 8003ec4:	40020408 	.word	0x40020408
 8003ec8:	4002041c 	.word	0x4002041c
 8003ecc:	40020430 	.word	0x40020430
 8003ed0:	40020444 	.word	0x40020444
 8003ed4:	40020400 	.word	0x40020400
 8003ed8:	40020000 	.word	0x40020000

08003edc <HAL_FLASH_Program>:
  * @param  Data:         Specifies the data to be programmed
  * 
  * @retval HAL_StatusTypeDef HAL Status
  */
HAL_StatusTypeDef HAL_FLASH_Program(uint32_t TypeProgram, uint32_t Address, uint64_t Data)
{
 8003edc:	b5f0      	push	{r4, r5, r6, r7, lr}
 8003ede:	b087      	sub	sp, #28
 8003ee0:	af00      	add	r7, sp, #0
 8003ee2:	60f8      	str	r0, [r7, #12]
 8003ee4:	60b9      	str	r1, [r7, #8]
 8003ee6:	e9c7 2300 	strd	r2, r3, [r7]
  HAL_StatusTypeDef status = HAL_ERROR;
 8003eea:	2301      	movs	r3, #1
 8003eec:	75fb      	strb	r3, [r7, #23]
  uint8_t index = 0;
 8003eee:	2300      	movs	r3, #0
 8003ef0:	75bb      	strb	r3, [r7, #22]
  uint8_t nbiterations = 0;
 8003ef2:	2300      	movs	r3, #0
 8003ef4:	757b      	strb	r3, [r7, #21]
  
  /* Process Locked */
  __HAL_LOCK(&pFlash);
 8003ef6:	4b2f      	ldr	r3, [pc, #188]	; (8003fb4 <HAL_FLASH_Program+0xd8>)
 8003ef8:	7e1b      	ldrb	r3, [r3, #24]
 8003efa:	2b01      	cmp	r3, #1
 8003efc:	d101      	bne.n	8003f02 <HAL_FLASH_Program+0x26>
 8003efe:	2302      	movs	r3, #2
 8003f00:	e054      	b.n	8003fac <HAL_FLASH_Program+0xd0>
 8003f02:	4b2c      	ldr	r3, [pc, #176]	; (8003fb4 <HAL_FLASH_Program+0xd8>)
 8003f04:	2201      	movs	r2, #1
 8003f06:	761a      	strb	r2, [r3, #24]
#if defined(FLASH_BANK2_END)
  if(Address <= FLASH_BANK1_END)
  {
#endif /* FLASH_BANK2_END */
    /* Wait for last operation to be completed */
    status = FLASH_WaitForLastOperation(FLASH_TIMEOUT_VALUE);
 8003f08:	f24c 3050 	movw	r0, #50000	; 0xc350
 8003f0c:	f000 f8a8 	bl	8004060 <FLASH_WaitForLastOperation>
 8003f10:	4603      	mov	r3, r0
 8003f12:	75fb      	strb	r3, [r7, #23]
    /* Wait for last operation to be completed */
    status = FLASH_WaitForLastOperationBank2(FLASH_TIMEOUT_VALUE);
  }
#endif /* FLASH_BANK2_END */
  
  if(status == HAL_OK)
 8003f14:	7dfb      	ldrb	r3, [r7, #23]
 8003f16:	2b00      	cmp	r3, #0
 8003f18:	d144      	bne.n	8003fa4 <HAL_FLASH_Program+0xc8>
  {
    if(TypeProgram == FLASH_TYPEPROGRAM_HALFWORD)
 8003f1a:	68fb      	ldr	r3, [r7, #12]
 8003f1c:	2b01      	cmp	r3, #1
 8003f1e:	d102      	bne.n	8003f26 <HAL_FLASH_Program+0x4a>
    {
      /* Program halfword (16-bit) at a specified address. */
      nbiterations = 1U;
 8003f20:	2301      	movs	r3, #1
 8003f22:	757b      	strb	r3, [r7, #21]
 8003f24:	e007      	b.n	8003f36 <HAL_FLASH_Program+0x5a>
    }
    else if(TypeProgram == FLASH_TYPEPROGRAM_WORD)
 8003f26:	68fb      	ldr	r3, [r7, #12]
 8003f28:	2b02      	cmp	r3, #2
 8003f2a:	d102      	bne.n	8003f32 <HAL_FLASH_Program+0x56>
    {
      /* Program word (32-bit = 2*16-bit) at a specified address. */
      nbiterations = 2U;
 8003f2c:	2302      	movs	r3, #2
 8003f2e:	757b      	strb	r3, [r7, #21]
 8003f30:	e001      	b.n	8003f36 <HAL_FLASH_Program+0x5a>
    }
    else
    {
      /* Program double word (64-bit = 4*16-bit) at a specified address. */
      nbiterations = 4U;
 8003f32:	2304      	movs	r3, #4
 8003f34:	757b      	strb	r3, [r7, #21]
    }

    for (index = 0U; index < nbiterations; index++)
 8003f36:	2300      	movs	r3, #0
 8003f38:	75bb      	strb	r3, [r7, #22]
 8003f3a:	e02d      	b.n	8003f98 <HAL_FLASH_Program+0xbc>
    {
      FLASH_Program_HalfWord((Address + (2U*index)), (uint16_t)(Data >> (16U*index)));
 8003f3c:	7dbb      	ldrb	r3, [r7, #22]
 8003f3e:	005a      	lsls	r2, r3, #1
 8003f40:	68bb      	ldr	r3, [r7, #8]
 8003f42:	eb02 0c03 	add.w	ip, r2, r3
 8003f46:	7dbb      	ldrb	r3, [r7, #22]
 8003f48:	0119      	lsls	r1, r3, #4
 8003f4a:	e9d7 2300 	ldrd	r2, r3, [r7]
 8003f4e:	f1c1 0620 	rsb	r6, r1, #32
 8003f52:	f1a1 0020 	sub.w	r0, r1, #32
 8003f56:	fa22 f401 	lsr.w	r4, r2, r1
 8003f5a:	fa03 f606 	lsl.w	r6, r3, r6
 8003f5e:	4334      	orrs	r4, r6
 8003f60:	fa23 f000 	lsr.w	r0, r3, r0
 8003f64:	4304      	orrs	r4, r0
 8003f66:	fa23 f501 	lsr.w	r5, r3, r1
 8003f6a:	b2a3      	uxth	r3, r4
 8003f6c:	4619      	mov	r1, r3
 8003f6e:	4660      	mov	r0, ip
 8003f70:	f000 f85a 	bl	8004028 <FLASH_Program_HalfWord>
#if defined(FLASH_BANK2_END)
      if(Address <= FLASH_BANK1_END)
      {
#endif /* FLASH_BANK2_END */
        /* Wait for last operation to be completed */
        status = FLASH_WaitForLastOperation(FLASH_TIMEOUT_VALUE);
 8003f74:	f24c 3050 	movw	r0, #50000	; 0xc350
 8003f78:	f000 f872 	bl	8004060 <FLASH_WaitForLastOperation>
 8003f7c:	4603      	mov	r3, r0
 8003f7e:	75fb      	strb	r3, [r7, #23]
    
        /* If the program operation is completed, disable the PG Bit */
        CLEAR_BIT(FLASH->CR, FLASH_CR_PG);
 8003f80:	4b0d      	ldr	r3, [pc, #52]	; (8003fb8 <HAL_FLASH_Program+0xdc>)
 8003f82:	691b      	ldr	r3, [r3, #16]
 8003f84:	4a0c      	ldr	r2, [pc, #48]	; (8003fb8 <HAL_FLASH_Program+0xdc>)
 8003f86:	f023 0301 	bic.w	r3, r3, #1
 8003f8a:	6113      	str	r3, [r2, #16]
        /* If the program operation is completed, disable the PG Bit */
        CLEAR_BIT(FLASH->CR2, FLASH_CR2_PG);
      }
#endif /* FLASH_BANK2_END */
      /* In case of error, stop programation procedure */
      if (status != HAL_OK)
 8003f8c:	7dfb      	ldrb	r3, [r7, #23]
 8003f8e:	2b00      	cmp	r3, #0
 8003f90:	d107      	bne.n	8003fa2 <HAL_FLASH_Program+0xc6>
    for (index = 0U; index < nbiterations; index++)
 8003f92:	7dbb      	ldrb	r3, [r7, #22]
 8003f94:	3301      	adds	r3, #1
 8003f96:	75bb      	strb	r3, [r7, #22]
 8003f98:	7dba      	ldrb	r2, [r7, #22]
 8003f9a:	7d7b      	ldrb	r3, [r7, #21]
 8003f9c:	429a      	cmp	r2, r3
 8003f9e:	d3cd      	bcc.n	8003f3c <HAL_FLASH_Program+0x60>
 8003fa0:	e000      	b.n	8003fa4 <HAL_FLASH_Program+0xc8>
      {
        break;
 8003fa2:	bf00      	nop
      }
    }
  }

  /* Process Unlocked */
  __HAL_UNLOCK(&pFlash);
 8003fa4:	4b03      	ldr	r3, [pc, #12]	; (8003fb4 <HAL_FLASH_Program+0xd8>)
 8003fa6:	2200      	movs	r2, #0
 8003fa8:	761a      	strb	r2, [r3, #24]

  return status;
 8003faa:	7dfb      	ldrb	r3, [r7, #23]
}
 8003fac:	4618      	mov	r0, r3
 8003fae:	371c      	adds	r7, #28
 8003fb0:	46bd      	mov	sp, r7
 8003fb2:	bdf0      	pop	{r4, r5, r6, r7, pc}
 8003fb4:	20004e78 	.word	0x20004e78
 8003fb8:	40022000 	.word	0x40022000

08003fbc <HAL_FLASH_Unlock>:
/**
  * @brief  Unlock the FLASH control register access
  * @retval HAL Status
  */
HAL_StatusTypeDef HAL_FLASH_Unlock(void)
{
 8003fbc:	b480      	push	{r7}
 8003fbe:	b083      	sub	sp, #12
 8003fc0:	af00      	add	r7, sp, #0
  HAL_StatusTypeDef status = HAL_OK;
 8003fc2:	2300      	movs	r3, #0
 8003fc4:	71fb      	strb	r3, [r7, #7]

  if(READ_BIT(FLASH->CR, FLASH_CR_LOCK) != RESET)
 8003fc6:	4b0d      	ldr	r3, [pc, #52]	; (8003ffc <HAL_FLASH_Unlock+0x40>)
 8003fc8:	691b      	ldr	r3, [r3, #16]
 8003fca:	f003 0380 	and.w	r3, r3, #128	; 0x80
 8003fce:	2b00      	cmp	r3, #0
 8003fd0:	d00d      	beq.n	8003fee <HAL_FLASH_Unlock+0x32>
  {
    /* Authorize the FLASH Registers access */
    WRITE_REG(FLASH->KEYR, FLASH_KEY1);
 8003fd2:	4b0a      	ldr	r3, [pc, #40]	; (8003ffc <HAL_FLASH_Unlock+0x40>)
 8003fd4:	4a0a      	ldr	r2, [pc, #40]	; (8004000 <HAL_FLASH_Unlock+0x44>)
 8003fd6:	605a      	str	r2, [r3, #4]
    WRITE_REG(FLASH->KEYR, FLASH_KEY2);
 8003fd8:	4b08      	ldr	r3, [pc, #32]	; (8003ffc <HAL_FLASH_Unlock+0x40>)
 8003fda:	4a0a      	ldr	r2, [pc, #40]	; (8004004 <HAL_FLASH_Unlock+0x48>)
 8003fdc:	605a      	str	r2, [r3, #4]

    /* Verify Flash is unlocked */
    if(READ_BIT(FLASH->CR, FLASH_CR_LOCK) != RESET)
 8003fde:	4b07      	ldr	r3, [pc, #28]	; (8003ffc <HAL_FLASH_Unlock+0x40>)
 8003fe0:	691b      	ldr	r3, [r3, #16]
 8003fe2:	f003 0380 	and.w	r3, r3, #128	; 0x80
 8003fe6:	2b00      	cmp	r3, #0
 8003fe8:	d001      	beq.n	8003fee <HAL_FLASH_Unlock+0x32>
    {
      status = HAL_ERROR;
 8003fea:	2301      	movs	r3, #1
 8003fec:	71fb      	strb	r3, [r7, #7]
      status = HAL_ERROR;
    }
  }
#endif /* FLASH_BANK2_END */

  return status;
 8003fee:	79fb      	ldrb	r3, [r7, #7]
}
 8003ff0:	4618      	mov	r0, r3
 8003ff2:	370c      	adds	r7, #12
 8003ff4:	46bd      	mov	sp, r7
 8003ff6:	bc80      	pop	{r7}
 8003ff8:	4770      	bx	lr
 8003ffa:	bf00      	nop
 8003ffc:	40022000 	.word	0x40022000
 8004000:	45670123 	.word	0x45670123
 8004004:	cdef89ab 	.word	0xcdef89ab

08004008 <HAL_FLASH_Lock>:
/**
  * @brief  Locks the FLASH control register access
  * @retval HAL Status
  */
HAL_StatusTypeDef HAL_FLASH_Lock(void)
{
 8004008:	b480      	push	{r7}
 800400a:	af00      	add	r7, sp, #0
  /* Set the LOCK Bit to lock the FLASH Registers access */
  SET_BIT(FLASH->CR, FLASH_CR_LOCK);
 800400c:	4b05      	ldr	r3, [pc, #20]	; (8004024 <HAL_FLASH_Lock+0x1c>)
 800400e:	691b      	ldr	r3, [r3, #16]
 8004010:	4a04      	ldr	r2, [pc, #16]	; (8004024 <HAL_FLASH_Lock+0x1c>)
 8004012:	f043 0380 	orr.w	r3, r3, #128	; 0x80
 8004016:	6113      	str	r3, [r2, #16]
#if defined(FLASH_BANK2_END)
  /* Set the LOCK Bit to lock the FLASH BANK2 Registers access */
  SET_BIT(FLASH->CR2, FLASH_CR2_LOCK);

#endif /* FLASH_BANK2_END */
  return HAL_OK;  
 8004018:	2300      	movs	r3, #0
}
 800401a:	4618      	mov	r0, r3
 800401c:	46bd      	mov	sp, r7
 800401e:	bc80      	pop	{r7}
 8004020:	4770      	bx	lr
 8004022:	bf00      	nop
 8004024:	40022000 	.word	0x40022000

08004028 <FLASH_Program_HalfWord>:
  * @param  Address specify the address to be programmed.
  * @param  Data    specify the data to be programmed.
  * @retval None
  */
static void FLASH_Program_HalfWord(uint32_t Address, uint16_t Data)
{
 8004028:	b480      	push	{r7}
 800402a:	b083      	sub	sp, #12
 800402c:	af00      	add	r7, sp, #0
 800402e:	6078      	str	r0, [r7, #4]
 8004030:	460b      	mov	r3, r1
 8004032:	807b      	strh	r3, [r7, #2]
  /* Clean the error context */
  pFlash.ErrorCode = HAL_FLASH_ERROR_NONE;
 8004034:	4b08      	ldr	r3, [pc, #32]	; (8004058 <FLASH_Program_HalfWord+0x30>)
 8004036:	2200      	movs	r2, #0
 8004038:	61da      	str	r2, [r3, #28]
#if defined(FLASH_BANK2_END)
  if(Address <= FLASH_BANK1_END)
  {
#endif /* FLASH_BANK2_END */
    /* Proceed to program the new data */
    SET_BIT(FLASH->CR, FLASH_CR_PG);
 800403a:	4b08      	ldr	r3, [pc, #32]	; (800405c <FLASH_Program_HalfWord+0x34>)
 800403c:	691b      	ldr	r3, [r3, #16]
 800403e:	4a07      	ldr	r2, [pc, #28]	; (800405c <FLASH_Program_HalfWord+0x34>)
 8004040:	f043 0301 	orr.w	r3, r3, #1
 8004044:	6113      	str	r3, [r2, #16]
    SET_BIT(FLASH->CR2, FLASH_CR2_PG);
  }
#endif /* FLASH_BANK2_END */

  /* Write data in the address */
  *(__IO uint16_t*)Address = Data;
 8004046:	687b      	ldr	r3, [r7, #4]
 8004048:	887a      	ldrh	r2, [r7, #2]
 800404a:	801a      	strh	r2, [r3, #0]
}
 800404c:	bf00      	nop
 800404e:	370c      	adds	r7, #12
 8004050:	46bd      	mov	sp, r7
 8004052:	bc80      	pop	{r7}
 8004054:	4770      	bx	lr
 8004056:	bf00      	nop
 8004058:	20004e78 	.word	0x20004e78
 800405c:	40022000 	.word	0x40022000

08004060 <FLASH_WaitForLastOperation>:
  * @brief  Wait for a FLASH operation to complete.
  * @param  Timeout  maximum flash operation timeout
  * @retval HAL Status
  */
HAL_StatusTypeDef FLASH_WaitForLastOperation(uint32_t Timeout)
{
 8004060:	b580      	push	{r7, lr}
 8004062:	b084      	sub	sp, #16
 8004064:	af00      	add	r7, sp, #0
 8004066:	6078      	str	r0, [r7, #4]
  /* Wait for the FLASH operation to complete by polling on BUSY flag to be reset.
     Even if the FLASH operation fails, the BUSY flag will be reset and an error
     flag will be set */
     
  uint32_t tickstart = HAL_GetTick();
 8004068:	f7ff fd18 	bl	8003a9c <HAL_GetTick>
 800406c:	60f8      	str	r0, [r7, #12]
     
  while(__HAL_FLASH_GET_FLAG(FLASH_FLAG_BSY)) 
 800406e:	e010      	b.n	8004092 <FLASH_WaitForLastOperation+0x32>
  { 
    if (Timeout != HAL_MAX_DELAY)
 8004070:	687b      	ldr	r3, [r7, #4]
 8004072:	f1b3 3fff 	cmp.w	r3, #4294967295
 8004076:	d00c      	beq.n	8004092 <FLASH_WaitForLastOperation+0x32>
    {
      if((Timeout == 0U) || ((HAL_GetTick()-tickstart) > Timeout))
 8004078:	687b      	ldr	r3, [r7, #4]
 800407a:	2b00      	cmp	r3, #0
 800407c:	d007      	beq.n	800408e <FLASH_WaitForLastOperation+0x2e>
 800407e:	f7ff fd0d 	bl	8003a9c <HAL_GetTick>
 8004082:	4602      	mov	r2, r0
 8004084:	68fb      	ldr	r3, [r7, #12]
 8004086:	1ad3      	subs	r3, r2, r3
 8004088:	687a      	ldr	r2, [r7, #4]
 800408a:	429a      	cmp	r2, r3
 800408c:	d201      	bcs.n	8004092 <FLASH_WaitForLastOperation+0x32>
      {
        return HAL_TIMEOUT;
 800408e:	2303      	movs	r3, #3
 8004090:	e025      	b.n	80040de <FLASH_WaitForLastOperation+0x7e>
  while(__HAL_FLASH_GET_FLAG(FLASH_FLAG_BSY)) 
 8004092:	4b15      	ldr	r3, [pc, #84]	; (80040e8 <FLASH_WaitForLastOperation+0x88>)
 8004094:	68db      	ldr	r3, [r3, #12]
 8004096:	f003 0301 	and.w	r3, r3, #1
 800409a:	2b00      	cmp	r3, #0
 800409c:	d1e8      	bne.n	8004070 <FLASH_WaitForLastOperation+0x10>
      }
    }
  }
  
  /* Check FLASH End of Operation flag  */
  if (__HAL_FLASH_GET_FLAG(FLASH_FLAG_EOP))
 800409e:	4b12      	ldr	r3, [pc, #72]	; (80040e8 <FLASH_WaitForLastOperation+0x88>)
 80040a0:	68db      	ldr	r3, [r3, #12]
 80040a2:	f003 0320 	and.w	r3, r3, #32
 80040a6:	2b00      	cmp	r3, #0
 80040a8:	d002      	beq.n	80040b0 <FLASH_WaitForLastOperation+0x50>
  {
    /* Clear FLASH End of Operation pending bit */
    __HAL_FLASH_CLEAR_FLAG(FLASH_FLAG_EOP);
 80040aa:	4b0f      	ldr	r3, [pc, #60]	; (80040e8 <FLASH_WaitForLastOperation+0x88>)
 80040ac:	2220      	movs	r2, #32
 80040ae:	60da      	str	r2, [r3, #12]
  }
  
  if(__HAL_FLASH_GET_FLAG(FLASH_FLAG_WRPERR)  || 
 80040b0:	4b0d      	ldr	r3, [pc, #52]	; (80040e8 <FLASH_WaitForLastOperation+0x88>)
 80040b2:	68db      	ldr	r3, [r3, #12]
 80040b4:	f003 0310 	and.w	r3, r3, #16
 80040b8:	2b00      	cmp	r3, #0
 80040ba:	d10b      	bne.n	80040d4 <FLASH_WaitForLastOperation+0x74>
     __HAL_FLASH_GET_FLAG(FLASH_FLAG_OPTVERR) || 
 80040bc:	4b0a      	ldr	r3, [pc, #40]	; (80040e8 <FLASH_WaitForLastOperation+0x88>)
 80040be:	69db      	ldr	r3, [r3, #28]
 80040c0:	f003 0301 	and.w	r3, r3, #1
  if(__HAL_FLASH_GET_FLAG(FLASH_FLAG_WRPERR)  || 
 80040c4:	2b00      	cmp	r3, #0
 80040c6:	d105      	bne.n	80040d4 <FLASH_WaitForLastOperation+0x74>
     __HAL_FLASH_GET_FLAG(FLASH_FLAG_PGERR))
 80040c8:	4b07      	ldr	r3, [pc, #28]	; (80040e8 <FLASH_WaitForLastOperation+0x88>)
 80040ca:	68db      	ldr	r3, [r3, #12]
 80040cc:	f003 0304 	and.w	r3, r3, #4
     __HAL_FLASH_GET_FLAG(FLASH_FLAG_OPTVERR) || 
 80040d0:	2b00      	cmp	r3, #0
 80040d2:	d003      	beq.n	80040dc <FLASH_WaitForLastOperation+0x7c>
  {
    /*Save the error code*/
    FLASH_SetErrorCode();
 80040d4:	f000 f80a 	bl	80040ec <FLASH_SetErrorCode>
    return HAL_ERROR;
 80040d8:	2301      	movs	r3, #1
 80040da:	e000      	b.n	80040de <FLASH_WaitForLastOperation+0x7e>
  }

  /* There is no error flag set */
  return HAL_OK;
 80040dc:	2300      	movs	r3, #0
}
 80040de:	4618      	mov	r0, r3
 80040e0:	3710      	adds	r7, #16
 80040e2:	46bd      	mov	sp, r7
 80040e4:	bd80      	pop	{r7, pc}
 80040e6:	bf00      	nop
 80040e8:	40022000 	.word	0x40022000

080040ec <FLASH_SetErrorCode>:
/**
  * @brief  Set the specific FLASH error flag.
  * @retval None
  */
static void FLASH_SetErrorCode(void)
{
 80040ec:	b480      	push	{r7}
 80040ee:	b083      	sub	sp, #12
 80040f0:	af00      	add	r7, sp, #0
  uint32_t flags = 0U;
 80040f2:	2300      	movs	r3, #0
 80040f4:	607b      	str	r3, [r7, #4]
  
#if defined(FLASH_BANK2_END)
  if(__HAL_FLASH_GET_FLAG(FLASH_FLAG_WRPERR) || __HAL_FLASH_GET_FLAG(FLASH_FLAG_WRPERR_BANK2))
#else
  if(__HAL_FLASH_GET_FLAG(FLASH_FLAG_WRPERR))
 80040f6:	4b23      	ldr	r3, [pc, #140]	; (8004184 <FLASH_SetErrorCode+0x98>)
 80040f8:	68db      	ldr	r3, [r3, #12]
 80040fa:	f003 0310 	and.w	r3, r3, #16
 80040fe:	2b00      	cmp	r3, #0
 8004100:	d009      	beq.n	8004116 <FLASH_SetErrorCode+0x2a>
#endif /* FLASH_BANK2_END */
  {
    pFlash.ErrorCode |= HAL_FLASH_ERROR_WRP;
 8004102:	4b21      	ldr	r3, [pc, #132]	; (8004188 <FLASH_SetErrorCode+0x9c>)
 8004104:	69db      	ldr	r3, [r3, #28]
 8004106:	f043 0302 	orr.w	r3, r3, #2
 800410a:	4a1f      	ldr	r2, [pc, #124]	; (8004188 <FLASH_SetErrorCode+0x9c>)
 800410c:	61d3      	str	r3, [r2, #28]
#if defined(FLASH_BANK2_END)
    flags |= FLASH_FLAG_WRPERR | FLASH_FLAG_WRPERR_BANK2;
#else
    flags |= FLASH_FLAG_WRPERR;
 800410e:	687b      	ldr	r3, [r7, #4]
 8004110:	f043 0310 	orr.w	r3, r3, #16
 8004114:	607b      	str	r3, [r7, #4]
#endif /* FLASH_BANK2_END */
  }
#if defined(FLASH_BANK2_END)
  if(__HAL_FLASH_GET_FLAG(FLASH_FLAG_PGERR) || __HAL_FLASH_GET_FLAG(FLASH_FLAG_PGERR_BANK2))
#else
  if(__HAL_FLASH_GET_FLAG(FLASH_FLAG_PGERR))
 8004116:	4b1b      	ldr	r3, [pc, #108]	; (8004184 <FLASH_SetErrorCode+0x98>)
 8004118:	68db      	ldr	r3, [r3, #12]
 800411a:	f003 0304 	and.w	r3, r3, #4
 800411e:	2b00      	cmp	r3, #0
 8004120:	d009      	beq.n	8004136 <FLASH_SetErrorCode+0x4a>
#endif /* FLASH_BANK2_END */
  {
    pFlash.ErrorCode |= HAL_FLASH_ERROR_PROG;
 8004122:	4b19      	ldr	r3, [pc, #100]	; (8004188 <FLASH_SetErrorCode+0x9c>)
 8004124:	69db      	ldr	r3, [r3, #28]
 8004126:	f043 0301 	orr.w	r3, r3, #1
 800412a:	4a17      	ldr	r2, [pc, #92]	; (8004188 <FLASH_SetErrorCode+0x9c>)
 800412c:	61d3      	str	r3, [r2, #28]
#if defined(FLASH_BANK2_END)
    flags |= FLASH_FLAG_PGERR | FLASH_FLAG_PGERR_BANK2;
#else
    flags |= FLASH_FLAG_PGERR;
 800412e:	687b      	ldr	r3, [r7, #4]
 8004130:	f043 0304 	orr.w	r3, r3, #4
 8004134:	607b      	str	r3, [r7, #4]
#endif /* FLASH_BANK2_END */
  }
  if(__HAL_FLASH_GET_FLAG(FLASH_FLAG_OPTVERR))
 8004136:	4b13      	ldr	r3, [pc, #76]	; (8004184 <FLASH_SetErrorCode+0x98>)
 8004138:	69db      	ldr	r3, [r3, #28]
 800413a:	f003 0301 	and.w	r3, r3, #1
 800413e:	2b00      	cmp	r3, #0
 8004140:	d00b      	beq.n	800415a <FLASH_SetErrorCode+0x6e>
  {
    pFlash.ErrorCode |= HAL_FLASH_ERROR_OPTV;
 8004142:	4b11      	ldr	r3, [pc, #68]	; (8004188 <FLASH_SetErrorCode+0x9c>)
 8004144:	69db      	ldr	r3, [r3, #28]
 8004146:	f043 0304 	orr.w	r3, r3, #4
 800414a:	4a0f      	ldr	r2, [pc, #60]	; (8004188 <FLASH_SetErrorCode+0x9c>)
 800414c:	61d3      	str	r3, [r2, #28]
  __HAL_FLASH_CLEAR_FLAG(FLASH_FLAG_OPTVERR);
 800414e:	4b0d      	ldr	r3, [pc, #52]	; (8004184 <FLASH_SetErrorCode+0x98>)
 8004150:	69db      	ldr	r3, [r3, #28]
 8004152:	4a0c      	ldr	r2, [pc, #48]	; (8004184 <FLASH_SetErrorCode+0x98>)
 8004154:	f023 0301 	bic.w	r3, r3, #1
 8004158:	61d3      	str	r3, [r2, #28]
  }

  /* Clear FLASH error pending bits */
  __HAL_FLASH_CLEAR_FLAG(flags);
 800415a:	687b      	ldr	r3, [r7, #4]
 800415c:	f240 1201 	movw	r2, #257	; 0x101
 8004160:	4293      	cmp	r3, r2
 8004162:	d106      	bne.n	8004172 <FLASH_SetErrorCode+0x86>
 8004164:	4b07      	ldr	r3, [pc, #28]	; (8004184 <FLASH_SetErrorCode+0x98>)
 8004166:	69db      	ldr	r3, [r3, #28]
 8004168:	4a06      	ldr	r2, [pc, #24]	; (8004184 <FLASH_SetErrorCode+0x98>)
 800416a:	f023 0301 	bic.w	r3, r3, #1
 800416e:	61d3      	str	r3, [r2, #28]
}  
 8004170:	e002      	b.n	8004178 <FLASH_SetErrorCode+0x8c>
  __HAL_FLASH_CLEAR_FLAG(flags);
 8004172:	4a04      	ldr	r2, [pc, #16]	; (8004184 <FLASH_SetErrorCode+0x98>)
 8004174:	687b      	ldr	r3, [r7, #4]
 8004176:	60d3      	str	r3, [r2, #12]
}  
 8004178:	bf00      	nop
 800417a:	370c      	adds	r7, #12
 800417c:	46bd      	mov	sp, r7
 800417e:	bc80      	pop	{r7}
 8004180:	4770      	bx	lr
 8004182:	bf00      	nop
 8004184:	40022000 	.word	0x40022000
 8004188:	20004e78 	.word	0x20004e78

0800418c <HAL_FLASHEx_Erase>:
  *         (0xFFFFFFFF means that all the pages have been correctly erased)
  *
  * @retval HAL_StatusTypeDef HAL Status
  */
HAL_StatusTypeDef HAL_FLASHEx_Erase(FLASH_EraseInitTypeDef *pEraseInit, uint32_t *PageError)
{
 800418c:	b580      	push	{r7, lr}
 800418e:	b084      	sub	sp, #16
 8004190:	af00      	add	r7, sp, #0
 8004192:	6078      	str	r0, [r7, #4]
 8004194:	6039      	str	r1, [r7, #0]
  HAL_StatusTypeDef status = HAL_ERROR;
 8004196:	2301      	movs	r3, #1
 8004198:	73fb      	strb	r3, [r7, #15]
  uint32_t address = 0U;
 800419a:	2300      	movs	r3, #0
 800419c:	60bb      	str	r3, [r7, #8]

  /* Process Locked */
  __HAL_LOCK(&pFlash);
 800419e:	4b2f      	ldr	r3, [pc, #188]	; (800425c <HAL_FLASHEx_Erase+0xd0>)
 80041a0:	7e1b      	ldrb	r3, [r3, #24]
 80041a2:	2b01      	cmp	r3, #1
 80041a4:	d101      	bne.n	80041aa <HAL_FLASHEx_Erase+0x1e>
 80041a6:	2302      	movs	r3, #2
 80041a8:	e053      	b.n	8004252 <HAL_FLASHEx_Erase+0xc6>
 80041aa:	4b2c      	ldr	r3, [pc, #176]	; (800425c <HAL_FLASHEx_Erase+0xd0>)
 80041ac:	2201      	movs	r2, #1
 80041ae:	761a      	strb	r2, [r3, #24]

  /* Check the parameters */
  assert_param(IS_FLASH_TYPEERASE(pEraseInit->TypeErase));

  if (pEraseInit->TypeErase == FLASH_TYPEERASE_MASSERASE)
 80041b0:	687b      	ldr	r3, [r7, #4]
 80041b2:	681b      	ldr	r3, [r3, #0]
 80041b4:	2b02      	cmp	r3, #2
 80041b6:	d116      	bne.n	80041e6 <HAL_FLASHEx_Erase+0x5a>
    else 
#endif /* FLASH_BANK2_END */
    {
      /* Mass Erase requested for Bank1 */
      /* Wait for last operation to be completed */
      if (FLASH_WaitForLastOperation((uint32_t)FLASH_TIMEOUT_VALUE) == HAL_OK)
 80041b8:	f24c 3050 	movw	r0, #50000	; 0xc350
 80041bc:	f7ff ff50 	bl	8004060 <FLASH_WaitForLastOperation>
 80041c0:	4603      	mov	r3, r0
 80041c2:	2b00      	cmp	r3, #0
 80041c4:	d141      	bne.n	800424a <HAL_FLASHEx_Erase+0xbe>
      {
        /*Mass erase to be done*/
        FLASH_MassErase(FLASH_BANK_1);
 80041c6:	2001      	movs	r0, #1
 80041c8:	f000 f84c 	bl	8004264 <FLASH_MassErase>
        
        /* Wait for last operation to be completed */
        status = FLASH_WaitForLastOperation((uint32_t)FLASH_TIMEOUT_VALUE);
 80041cc:	f24c 3050 	movw	r0, #50000	; 0xc350
 80041d0:	f7ff ff46 	bl	8004060 <FLASH_WaitForLastOperation>
 80041d4:	4603      	mov	r3, r0
 80041d6:	73fb      	strb	r3, [r7, #15]
        
        /* If the erase operation is completed, disable the MER Bit */
        CLEAR_BIT(FLASH->CR, FLASH_CR_MER);
 80041d8:	4b21      	ldr	r3, [pc, #132]	; (8004260 <HAL_FLASHEx_Erase+0xd4>)
 80041da:	691b      	ldr	r3, [r3, #16]
 80041dc:	4a20      	ldr	r2, [pc, #128]	; (8004260 <HAL_FLASHEx_Erase+0xd4>)
 80041de:	f023 0304 	bic.w	r3, r3, #4
 80041e2:	6113      	str	r3, [r2, #16]
 80041e4:	e031      	b.n	800424a <HAL_FLASHEx_Erase+0xbe>
    else
#endif /* FLASH_BANK2_END */
   {
      /* Page Erase requested on address located on bank1 */
      /* Wait for last operation to be completed */
      if (FLASH_WaitForLastOperation((uint32_t)FLASH_TIMEOUT_VALUE) == HAL_OK)
 80041e6:	f24c 3050 	movw	r0, #50000	; 0xc350
 80041ea:	f7ff ff39 	bl	8004060 <FLASH_WaitForLastOperation>
 80041ee:	4603      	mov	r3, r0
 80041f0:	2b00      	cmp	r3, #0
 80041f2:	d12a      	bne.n	800424a <HAL_FLASHEx_Erase+0xbe>
      {
        /*Initialization of PageError variable*/
        *PageError = 0xFFFFFFFFU;
 80041f4:	683b      	ldr	r3, [r7, #0]
 80041f6:	f04f 32ff 	mov.w	r2, #4294967295
 80041fa:	601a      	str	r2, [r3, #0]
        
        /* Erase page by page to be done*/
        for(address = pEraseInit->PageAddress;
 80041fc:	687b      	ldr	r3, [r7, #4]
 80041fe:	689b      	ldr	r3, [r3, #8]
 8004200:	60bb      	str	r3, [r7, #8]
 8004202:	e019      	b.n	8004238 <HAL_FLASHEx_Erase+0xac>
            address < ((pEraseInit->NbPages * FLASH_PAGE_SIZE) + pEraseInit->PageAddress);
            address += FLASH_PAGE_SIZE)
        {
          FLASH_PageErase(address);
 8004204:	68b8      	ldr	r0, [r7, #8]
 8004206:	f000 f849 	bl	800429c <FLASH_PageErase>
          
          /* Wait for last operation to be completed */
          status = FLASH_WaitForLastOperation((uint32_t)FLASH_TIMEOUT_VALUE);
 800420a:	f24c 3050 	movw	r0, #50000	; 0xc350
 800420e:	f7ff ff27 	bl	8004060 <FLASH_WaitForLastOperation>
 8004212:	4603      	mov	r3, r0
 8004214:	73fb      	strb	r3, [r7, #15]
          
          /* If the erase operation is completed, disable the PER Bit */
          CLEAR_BIT(FLASH->CR, FLASH_CR_PER);
 8004216:	4b12      	ldr	r3, [pc, #72]	; (8004260 <HAL_FLASHEx_Erase+0xd4>)
 8004218:	691b      	ldr	r3, [r3, #16]
 800421a:	4a11      	ldr	r2, [pc, #68]	; (8004260 <HAL_FLASHEx_Erase+0xd4>)
 800421c:	f023 0302 	bic.w	r3, r3, #2
 8004220:	6113      	str	r3, [r2, #16]
          
          if (status != HAL_OK)
 8004222:	7bfb      	ldrb	r3, [r7, #15]
 8004224:	2b00      	cmp	r3, #0
 8004226:	d003      	beq.n	8004230 <HAL_FLASHEx_Erase+0xa4>
          {
            /* In case of error, stop erase procedure and return the faulty address */
            *PageError = address;
 8004228:	683b      	ldr	r3, [r7, #0]
 800422a:	68ba      	ldr	r2, [r7, #8]
 800422c:	601a      	str	r2, [r3, #0]
            break;
 800422e:	e00c      	b.n	800424a <HAL_FLASHEx_Erase+0xbe>
            address += FLASH_PAGE_SIZE)
 8004230:	68bb      	ldr	r3, [r7, #8]
 8004232:	f503 6300 	add.w	r3, r3, #2048	; 0x800
 8004236:	60bb      	str	r3, [r7, #8]
            address < ((pEraseInit->NbPages * FLASH_PAGE_SIZE) + pEraseInit->PageAddress);
 8004238:	687b      	ldr	r3, [r7, #4]
 800423a:	68db      	ldr	r3, [r3, #12]
 800423c:	02da      	lsls	r2, r3, #11
 800423e:	687b      	ldr	r3, [r7, #4]
 8004240:	689b      	ldr	r3, [r3, #8]
 8004242:	4413      	add	r3, r2
        for(address = pEraseInit->PageAddress;
 8004244:	68ba      	ldr	r2, [r7, #8]
 8004246:	429a      	cmp	r2, r3
 8004248:	d3dc      	bcc.n	8004204 <HAL_FLASHEx_Erase+0x78>
      }
    }
  }

  /* Process Unlocked */
  __HAL_UNLOCK(&pFlash);
 800424a:	4b04      	ldr	r3, [pc, #16]	; (800425c <HAL_FLASHEx_Erase+0xd0>)
 800424c:	2200      	movs	r2, #0
 800424e:	761a      	strb	r2, [r3, #24]

  return status;
 8004250:	7bfb      	ldrb	r3, [r7, #15]
}
 8004252:	4618      	mov	r0, r3
 8004254:	3710      	adds	r7, #16
 8004256:	46bd      	mov	sp, r7
 8004258:	bd80      	pop	{r7, pc}
 800425a:	bf00      	nop
 800425c:	20004e78 	.word	0x20004e78
 8004260:	40022000 	.word	0x40022000

08004264 <FLASH_MassErase>:
  @endif
  *
  * @retval None
  */
static void FLASH_MassErase(uint32_t Banks)
{
 8004264:	b480      	push	{r7}
 8004266:	b083      	sub	sp, #12
 8004268:	af00      	add	r7, sp, #0
 800426a:	6078      	str	r0, [r7, #4]
  /* Check the parameters */
  assert_param(IS_FLASH_BANK(Banks));

  /* Clean the error context */
  pFlash.ErrorCode = HAL_FLASH_ERROR_NONE;
 800426c:	4b09      	ldr	r3, [pc, #36]	; (8004294 <FLASH_MassErase+0x30>)
 800426e:	2200      	movs	r2, #0
 8004270:	61da      	str	r2, [r3, #28]
#if !defined(FLASH_BANK2_END)
  /* Prevent unused argument(s) compilation warning */
  UNUSED(Banks);
#endif /* FLASH_BANK2_END */  
    /* Only bank1 will be erased*/
    SET_BIT(FLASH->CR, FLASH_CR_MER);
 8004272:	4b09      	ldr	r3, [pc, #36]	; (8004298 <FLASH_MassErase+0x34>)
 8004274:	691b      	ldr	r3, [r3, #16]
 8004276:	4a08      	ldr	r2, [pc, #32]	; (8004298 <FLASH_MassErase+0x34>)
 8004278:	f043 0304 	orr.w	r3, r3, #4
 800427c:	6113      	str	r3, [r2, #16]
    SET_BIT(FLASH->CR, FLASH_CR_STRT);
 800427e:	4b06      	ldr	r3, [pc, #24]	; (8004298 <FLASH_MassErase+0x34>)
 8004280:	691b      	ldr	r3, [r3, #16]
 8004282:	4a05      	ldr	r2, [pc, #20]	; (8004298 <FLASH_MassErase+0x34>)
 8004284:	f043 0340 	orr.w	r3, r3, #64	; 0x40
 8004288:	6113      	str	r3, [r2, #16]
#if defined(FLASH_BANK2_END)
  }
#endif /* FLASH_BANK2_END */
}
 800428a:	bf00      	nop
 800428c:	370c      	adds	r7, #12
 800428e:	46bd      	mov	sp, r7
 8004290:	bc80      	pop	{r7}
 8004292:	4770      	bx	lr
 8004294:	20004e78 	.word	0x20004e78
 8004298:	40022000 	.word	0x40022000

0800429c <FLASH_PageErase>:
  *         The value of this parameter depend on device used within the same series      
  * 
  * @retval None
  */
void FLASH_PageErase(uint32_t PageAddress)
{
 800429c:	b480      	push	{r7}
 800429e:	b083      	sub	sp, #12
 80042a0:	af00      	add	r7, sp, #0
 80042a2:	6078      	str	r0, [r7, #4]
  /* Clean the error context */
  pFlash.ErrorCode = HAL_FLASH_ERROR_NONE;
 80042a4:	4b0b      	ldr	r3, [pc, #44]	; (80042d4 <FLASH_PageErase+0x38>)
 80042a6:	2200      	movs	r2, #0
 80042a8:	61da      	str	r2, [r3, #28]
  }
  else
  {
#endif /* FLASH_BANK2_END */
    /* Proceed to erase the page */
    SET_BIT(FLASH->CR, FLASH_CR_PER);
 80042aa:	4b0b      	ldr	r3, [pc, #44]	; (80042d8 <FLASH_PageErase+0x3c>)
 80042ac:	691b      	ldr	r3, [r3, #16]
 80042ae:	4a0a      	ldr	r2, [pc, #40]	; (80042d8 <FLASH_PageErase+0x3c>)
 80042b0:	f043 0302 	orr.w	r3, r3, #2
 80042b4:	6113      	str	r3, [r2, #16]
    WRITE_REG(FLASH->AR, PageAddress);
 80042b6:	4a08      	ldr	r2, [pc, #32]	; (80042d8 <FLASH_PageErase+0x3c>)
 80042b8:	687b      	ldr	r3, [r7, #4]
 80042ba:	6153      	str	r3, [r2, #20]
    SET_BIT(FLASH->CR, FLASH_CR_STRT);
 80042bc:	4b06      	ldr	r3, [pc, #24]	; (80042d8 <FLASH_PageErase+0x3c>)
 80042be:	691b      	ldr	r3, [r3, #16]
 80042c0:	4a05      	ldr	r2, [pc, #20]	; (80042d8 <FLASH_PageErase+0x3c>)
 80042c2:	f043 0340 	orr.w	r3, r3, #64	; 0x40
 80042c6:	6113      	str	r3, [r2, #16]
#if defined(FLASH_BANK2_END)
  }
#endif /* FLASH_BANK2_END */
}
 80042c8:	bf00      	nop
 80042ca:	370c      	adds	r7, #12
 80042cc:	46bd      	mov	sp, r7
 80042ce:	bc80      	pop	{r7}
 80042d0:	4770      	bx	lr
 80042d2:	bf00      	nop
 80042d4:	20004e78 	.word	0x20004e78
 80042d8:	40022000 	.word	0x40022000

080042dc <HAL_GPIO_Init>:
  * @param  GPIO_Init: pointer to a GPIO_InitTypeDef structure that contains
  *         the configuration information for the specified GPIO peripheral.
  * @retval None
  */
void HAL_GPIO_Init(GPIO_TypeDef  *GPIOx, GPIO_InitTypeDef *GPIO_Init)
{
 80042dc:	b480      	push	{r7}
 80042de:	b08b      	sub	sp, #44	; 0x2c
 80042e0:	af00      	add	r7, sp, #0
 80042e2:	6078      	str	r0, [r7, #4]
 80042e4:	6039      	str	r1, [r7, #0]
  uint32_t position = 0x00u;
 80042e6:	2300      	movs	r3, #0
 80042e8:	627b      	str	r3, [r7, #36]	; 0x24
  uint32_t ioposition;
  uint32_t iocurrent;
  uint32_t temp;
  uint32_t config = 0x00u;
 80042ea:	2300      	movs	r3, #0
 80042ec:	623b      	str	r3, [r7, #32]
  assert_param(IS_GPIO_ALL_INSTANCE(GPIOx));
  assert_param(IS_GPIO_PIN(GPIO_Init->Pin));
  assert_param(IS_GPIO_MODE(GPIO_Init->Mode));

  /* Configure the port pins */
  while (((GPIO_Init->Pin) >> position) != 0x00u)
 80042ee:	e179      	b.n	80045e4 <HAL_GPIO_Init+0x308>
  {
    /* Get the IO position */
    ioposition = (0x01uL << position);
 80042f0:	2201      	movs	r2, #1
 80042f2:	6a7b      	ldr	r3, [r7, #36]	; 0x24
 80042f4:	fa02 f303 	lsl.w	r3, r2, r3
 80042f8:	61fb      	str	r3, [r7, #28]

    /* Get the current IO position */
    iocurrent = (uint32_t)(GPIO_Init->Pin) & ioposition;
 80042fa:	683b      	ldr	r3, [r7, #0]
 80042fc:	681b      	ldr	r3, [r3, #0]
 80042fe:	69fa      	ldr	r2, [r7, #28]
 8004300:	4013      	ands	r3, r2
 8004302:	61bb      	str	r3, [r7, #24]

    if (iocurrent == ioposition)
 8004304:	69ba      	ldr	r2, [r7, #24]
 8004306:	69fb      	ldr	r3, [r7, #28]
 8004308:	429a      	cmp	r2, r3
 800430a:	f040 8168 	bne.w	80045de <HAL_GPIO_Init+0x302>
    {
      /* Check the Alternate function parameters */
      assert_param(IS_GPIO_AF_INSTANCE(GPIOx));

      /* Based on the required mode, filling config variable with MODEy[1:0] and CNFy[3:2] corresponding bits */
      switch (GPIO_Init->Mode)
 800430e:	683b      	ldr	r3, [r7, #0]
 8004310:	685b      	ldr	r3, [r3, #4]
 8004312:	4aa0      	ldr	r2, [pc, #640]	; (8004594 <HAL_GPIO_Init+0x2b8>)
 8004314:	4293      	cmp	r3, r2
 8004316:	d05e      	beq.n	80043d6 <HAL_GPIO_Init+0xfa>
 8004318:	4a9e      	ldr	r2, [pc, #632]	; (8004594 <HAL_GPIO_Init+0x2b8>)
 800431a:	4293      	cmp	r3, r2
 800431c:	d875      	bhi.n	800440a <HAL_GPIO_Init+0x12e>
 800431e:	4a9e      	ldr	r2, [pc, #632]	; (8004598 <HAL_GPIO_Init+0x2bc>)
 8004320:	4293      	cmp	r3, r2
 8004322:	d058      	beq.n	80043d6 <HAL_GPIO_Init+0xfa>
 8004324:	4a9c      	ldr	r2, [pc, #624]	; (8004598 <HAL_GPIO_Init+0x2bc>)
 8004326:	4293      	cmp	r3, r2
 8004328:	d86f      	bhi.n	800440a <HAL_GPIO_Init+0x12e>
 800432a:	4a9c      	ldr	r2, [pc, #624]	; (800459c <HAL_GPIO_Init+0x2c0>)
 800432c:	4293      	cmp	r3, r2
 800432e:	d052      	beq.n	80043d6 <HAL_GPIO_Init+0xfa>
 8004330:	4a9a      	ldr	r2, [pc, #616]	; (800459c <HAL_GPIO_Init+0x2c0>)
 8004332:	4293      	cmp	r3, r2
 8004334:	d869      	bhi.n	800440a <HAL_GPIO_Init+0x12e>
 8004336:	4a9a      	ldr	r2, [pc, #616]	; (80045a0 <HAL_GPIO_Init+0x2c4>)
 8004338:	4293      	cmp	r3, r2
 800433a:	d04c      	beq.n	80043d6 <HAL_GPIO_Init+0xfa>
 800433c:	4a98      	ldr	r2, [pc, #608]	; (80045a0 <HAL_GPIO_Init+0x2c4>)
 800433e:	4293      	cmp	r3, r2
 8004340:	d863      	bhi.n	800440a <HAL_GPIO_Init+0x12e>
 8004342:	4a98      	ldr	r2, [pc, #608]	; (80045a4 <HAL_GPIO_Init+0x2c8>)
 8004344:	4293      	cmp	r3, r2
 8004346:	d046      	beq.n	80043d6 <HAL_GPIO_Init+0xfa>
 8004348:	4a96      	ldr	r2, [pc, #600]	; (80045a4 <HAL_GPIO_Init+0x2c8>)
 800434a:	4293      	cmp	r3, r2
 800434c:	d85d      	bhi.n	800440a <HAL_GPIO_Init+0x12e>
 800434e:	2b12      	cmp	r3, #18
 8004350:	d82a      	bhi.n	80043a8 <HAL_GPIO_Init+0xcc>
 8004352:	2b12      	cmp	r3, #18
 8004354:	d859      	bhi.n	800440a <HAL_GPIO_Init+0x12e>
 8004356:	a201      	add	r2, pc, #4	; (adr r2, 800435c <HAL_GPIO_Init+0x80>)
 8004358:	f852 f023 	ldr.w	pc, [r2, r3, lsl #2]
 800435c:	080043d7 	.word	0x080043d7
 8004360:	080043b1 	.word	0x080043b1
 8004364:	080043c3 	.word	0x080043c3
 8004368:	08004405 	.word	0x08004405
 800436c:	0800440b 	.word	0x0800440b
 8004370:	0800440b 	.word	0x0800440b
 8004374:	0800440b 	.word	0x0800440b
 8004378:	0800440b 	.word	0x0800440b
 800437c:	0800440b 	.word	0x0800440b
 8004380:	0800440b 	.word	0x0800440b
 8004384:	0800440b 	.word	0x0800440b
 8004388:	0800440b 	.word	0x0800440b
 800438c:	0800440b 	.word	0x0800440b
 8004390:	0800440b 	.word	0x0800440b
 8004394:	0800440b 	.word	0x0800440b
 8004398:	0800440b 	.word	0x0800440b
 800439c:	0800440b 	.word	0x0800440b
 80043a0:	080043b9 	.word	0x080043b9
 80043a4:	080043cd 	.word	0x080043cd
 80043a8:	4a7f      	ldr	r2, [pc, #508]	; (80045a8 <HAL_GPIO_Init+0x2cc>)
 80043aa:	4293      	cmp	r3, r2
 80043ac:	d013      	beq.n	80043d6 <HAL_GPIO_Init+0xfa>
          config = GPIO_CR_MODE_INPUT + GPIO_CR_CNF_ANALOG;
          break;

        /* Parameters are checked with assert_param */
        default:
          break;
 80043ae:	e02c      	b.n	800440a <HAL_GPIO_Init+0x12e>
          config = GPIO_Init->Speed + GPIO_CR_CNF_GP_OUTPUT_PP;
 80043b0:	683b      	ldr	r3, [r7, #0]
 80043b2:	68db      	ldr	r3, [r3, #12]
 80043b4:	623b      	str	r3, [r7, #32]
          break;
 80043b6:	e029      	b.n	800440c <HAL_GPIO_Init+0x130>
          config = GPIO_Init->Speed + GPIO_CR_CNF_GP_OUTPUT_OD;
 80043b8:	683b      	ldr	r3, [r7, #0]
 80043ba:	68db      	ldr	r3, [r3, #12]
 80043bc:	3304      	adds	r3, #4
 80043be:	623b      	str	r3, [r7, #32]
          break;
 80043c0:	e024      	b.n	800440c <HAL_GPIO_Init+0x130>
          config = GPIO_Init->Speed + GPIO_CR_CNF_AF_OUTPUT_PP;
 80043c2:	683b      	ldr	r3, [r7, #0]
 80043c4:	68db      	ldr	r3, [r3, #12]
 80043c6:	3308      	adds	r3, #8
 80043c8:	623b      	str	r3, [r7, #32]
          break;
 80043ca:	e01f      	b.n	800440c <HAL_GPIO_Init+0x130>
          config = GPIO_Init->Speed + GPIO_CR_CNF_AF_OUTPUT_OD;
 80043cc:	683b      	ldr	r3, [r7, #0]
 80043ce:	68db      	ldr	r3, [r3, #12]
 80043d0:	330c      	adds	r3, #12
 80043d2:	623b      	str	r3, [r7, #32]
          break;
 80043d4:	e01a      	b.n	800440c <HAL_GPIO_Init+0x130>
          if (GPIO_Init->Pull == GPIO_NOPULL)
 80043d6:	683b      	ldr	r3, [r7, #0]
 80043d8:	689b      	ldr	r3, [r3, #8]
 80043da:	2b00      	cmp	r3, #0
 80043dc:	d102      	bne.n	80043e4 <HAL_GPIO_Init+0x108>
            config = GPIO_CR_MODE_INPUT + GPIO_CR_CNF_INPUT_FLOATING;
 80043de:	2304      	movs	r3, #4
 80043e0:	623b      	str	r3, [r7, #32]
          break;
 80043e2:	e013      	b.n	800440c <HAL_GPIO_Init+0x130>
          else if (GPIO_Init->Pull == GPIO_PULLUP)
 80043e4:	683b      	ldr	r3, [r7, #0]
 80043e6:	689b      	ldr	r3, [r3, #8]
 80043e8:	2b01      	cmp	r3, #1
 80043ea:	d105      	bne.n	80043f8 <HAL_GPIO_Init+0x11c>
            config = GPIO_CR_MODE_INPUT + GPIO_CR_CNF_INPUT_PU_PD;
 80043ec:	2308      	movs	r3, #8
 80043ee:	623b      	str	r3, [r7, #32]
            GPIOx->BSRR = ioposition;
 80043f0:	687b      	ldr	r3, [r7, #4]
 80043f2:	69fa      	ldr	r2, [r7, #28]
 80043f4:	611a      	str	r2, [r3, #16]
          break;
 80043f6:	e009      	b.n	800440c <HAL_GPIO_Init+0x130>
            config = GPIO_CR_MODE_INPUT + GPIO_CR_CNF_INPUT_PU_PD;
 80043f8:	2308      	movs	r3, #8
 80043fa:	623b      	str	r3, [r7, #32]
            GPIOx->BRR = ioposition;
 80043fc:	687b      	ldr	r3, [r7, #4]
 80043fe:	69fa      	ldr	r2, [r7, #28]
 8004400:	615a      	str	r2, [r3, #20]
          break;
 8004402:	e003      	b.n	800440c <HAL_GPIO_Init+0x130>
          config = GPIO_CR_MODE_INPUT + GPIO_CR_CNF_ANALOG;
 8004404:	2300      	movs	r3, #0
 8004406:	623b      	str	r3, [r7, #32]
          break;
 8004408:	e000      	b.n	800440c <HAL_GPIO_Init+0x130>
          break;
 800440a:	bf00      	nop
      }

      /* Check if the current bit belongs to first half or last half of the pin count number
       in order to address CRH or CRL register*/
      configregister = (iocurrent < GPIO_PIN_8) ? &GPIOx->CRL     : &GPIOx->CRH;
 800440c:	69bb      	ldr	r3, [r7, #24]
 800440e:	2bff      	cmp	r3, #255	; 0xff
 8004410:	d801      	bhi.n	8004416 <HAL_GPIO_Init+0x13a>
 8004412:	687b      	ldr	r3, [r7, #4]
 8004414:	e001      	b.n	800441a <HAL_GPIO_Init+0x13e>
 8004416:	687b      	ldr	r3, [r7, #4]
 8004418:	3304      	adds	r3, #4
 800441a:	617b      	str	r3, [r7, #20]
      registeroffset = (iocurrent < GPIO_PIN_8) ? (position << 2u) : ((position - 8u) << 2u);
 800441c:	69bb      	ldr	r3, [r7, #24]
 800441e:	2bff      	cmp	r3, #255	; 0xff
 8004420:	d802      	bhi.n	8004428 <HAL_GPIO_Init+0x14c>
 8004422:	6a7b      	ldr	r3, [r7, #36]	; 0x24
 8004424:	009b      	lsls	r3, r3, #2
 8004426:	e002      	b.n	800442e <HAL_GPIO_Init+0x152>
 8004428:	6a7b      	ldr	r3, [r7, #36]	; 0x24
 800442a:	3b08      	subs	r3, #8
 800442c:	009b      	lsls	r3, r3, #2
 800442e:	613b      	str	r3, [r7, #16]

      /* Apply the new configuration of the pin to the register */
      MODIFY_REG((*configregister), ((GPIO_CRL_MODE0 | GPIO_CRL_CNF0) << registeroffset), (config << registeroffset));
 8004430:	697b      	ldr	r3, [r7, #20]
 8004432:	681a      	ldr	r2, [r3, #0]
 8004434:	210f      	movs	r1, #15
 8004436:	693b      	ldr	r3, [r7, #16]
 8004438:	fa01 f303 	lsl.w	r3, r1, r3
 800443c:	43db      	mvns	r3, r3
 800443e:	401a      	ands	r2, r3
 8004440:	6a39      	ldr	r1, [r7, #32]
 8004442:	693b      	ldr	r3, [r7, #16]
 8004444:	fa01 f303 	lsl.w	r3, r1, r3
 8004448:	431a      	orrs	r2, r3
 800444a:	697b      	ldr	r3, [r7, #20]
 800444c:	601a      	str	r2, [r3, #0]

      /*--------------------- EXTI Mode Configuration ------------------------*/
      /* Configure the External Interrupt or event for the current IO */
      if ((GPIO_Init->Mode & EXTI_MODE) == EXTI_MODE)
 800444e:	683b      	ldr	r3, [r7, #0]
 8004450:	685b      	ldr	r3, [r3, #4]
 8004452:	f003 5380 	and.w	r3, r3, #268435456	; 0x10000000
 8004456:	2b00      	cmp	r3, #0
 8004458:	f000 80c1 	beq.w	80045de <HAL_GPIO_Init+0x302>
      {
        /* Enable AFIO Clock */
        __HAL_RCC_AFIO_CLK_ENABLE();
 800445c:	4b53      	ldr	r3, [pc, #332]	; (80045ac <HAL_GPIO_Init+0x2d0>)
 800445e:	699b      	ldr	r3, [r3, #24]
 8004460:	4a52      	ldr	r2, [pc, #328]	; (80045ac <HAL_GPIO_Init+0x2d0>)
 8004462:	f043 0301 	orr.w	r3, r3, #1
 8004466:	6193      	str	r3, [r2, #24]
 8004468:	4b50      	ldr	r3, [pc, #320]	; (80045ac <HAL_GPIO_Init+0x2d0>)
 800446a:	699b      	ldr	r3, [r3, #24]
 800446c:	f003 0301 	and.w	r3, r3, #1
 8004470:	60bb      	str	r3, [r7, #8]
 8004472:	68bb      	ldr	r3, [r7, #8]
        temp = AFIO->EXTICR[position >> 2u];
 8004474:	4a4e      	ldr	r2, [pc, #312]	; (80045b0 <HAL_GPIO_Init+0x2d4>)
 8004476:	6a7b      	ldr	r3, [r7, #36]	; 0x24
 8004478:	089b      	lsrs	r3, r3, #2
 800447a:	3302      	adds	r3, #2
 800447c:	f852 3023 	ldr.w	r3, [r2, r3, lsl #2]
 8004480:	60fb      	str	r3, [r7, #12]
        CLEAR_BIT(temp, (0x0Fu) << (4u * (position & 0x03u)));
 8004482:	6a7b      	ldr	r3, [r7, #36]	; 0x24
 8004484:	f003 0303 	and.w	r3, r3, #3
 8004488:	009b      	lsls	r3, r3, #2
 800448a:	220f      	movs	r2, #15
 800448c:	fa02 f303 	lsl.w	r3, r2, r3
 8004490:	43db      	mvns	r3, r3
 8004492:	68fa      	ldr	r2, [r7, #12]
 8004494:	4013      	ands	r3, r2
 8004496:	60fb      	str	r3, [r7, #12]
        SET_BIT(temp, (GPIO_GET_INDEX(GPIOx)) << (4u * (position & 0x03u)));
 8004498:	687b      	ldr	r3, [r7, #4]
 800449a:	4a46      	ldr	r2, [pc, #280]	; (80045b4 <HAL_GPIO_Init+0x2d8>)
 800449c:	4293      	cmp	r3, r2
 800449e:	d01f      	beq.n	80044e0 <HAL_GPIO_Init+0x204>
 80044a0:	687b      	ldr	r3, [r7, #4]
 80044a2:	4a45      	ldr	r2, [pc, #276]	; (80045b8 <HAL_GPIO_Init+0x2dc>)
 80044a4:	4293      	cmp	r3, r2
 80044a6:	d019      	beq.n	80044dc <HAL_GPIO_Init+0x200>
 80044a8:	687b      	ldr	r3, [r7, #4]
 80044aa:	4a44      	ldr	r2, [pc, #272]	; (80045bc <HAL_GPIO_Init+0x2e0>)
 80044ac:	4293      	cmp	r3, r2
 80044ae:	d013      	beq.n	80044d8 <HAL_GPIO_Init+0x1fc>
 80044b0:	687b      	ldr	r3, [r7, #4]
 80044b2:	4a43      	ldr	r2, [pc, #268]	; (80045c0 <HAL_GPIO_Init+0x2e4>)
 80044b4:	4293      	cmp	r3, r2
 80044b6:	d00d      	beq.n	80044d4 <HAL_GPIO_Init+0x1f8>
 80044b8:	687b      	ldr	r3, [r7, #4]
 80044ba:	4a42      	ldr	r2, [pc, #264]	; (80045c4 <HAL_GPIO_Init+0x2e8>)
 80044bc:	4293      	cmp	r3, r2
 80044be:	d007      	beq.n	80044d0 <HAL_GPIO_Init+0x1f4>
 80044c0:	687b      	ldr	r3, [r7, #4]
 80044c2:	4a41      	ldr	r2, [pc, #260]	; (80045c8 <HAL_GPIO_Init+0x2ec>)
 80044c4:	4293      	cmp	r3, r2
 80044c6:	d101      	bne.n	80044cc <HAL_GPIO_Init+0x1f0>
 80044c8:	2305      	movs	r3, #5
 80044ca:	e00a      	b.n	80044e2 <HAL_GPIO_Init+0x206>
 80044cc:	2306      	movs	r3, #6
 80044ce:	e008      	b.n	80044e2 <HAL_GPIO_Init+0x206>
 80044d0:	2304      	movs	r3, #4
 80044d2:	e006      	b.n	80044e2 <HAL_GPIO_Init+0x206>
 80044d4:	2303      	movs	r3, #3
 80044d6:	e004      	b.n	80044e2 <HAL_GPIO_Init+0x206>
 80044d8:	2302      	movs	r3, #2
 80044da:	e002      	b.n	80044e2 <HAL_GPIO_Init+0x206>
 80044dc:	2301      	movs	r3, #1
 80044de:	e000      	b.n	80044e2 <HAL_GPIO_Init+0x206>
 80044e0:	2300      	movs	r3, #0
 80044e2:	6a7a      	ldr	r2, [r7, #36]	; 0x24
 80044e4:	f002 0203 	and.w	r2, r2, #3
 80044e8:	0092      	lsls	r2, r2, #2
 80044ea:	4093      	lsls	r3, r2
 80044ec:	68fa      	ldr	r2, [r7, #12]
 80044ee:	4313      	orrs	r3, r2
 80044f0:	60fb      	str	r3, [r7, #12]
        AFIO->EXTICR[position >> 2u] = temp;
 80044f2:	492f      	ldr	r1, [pc, #188]	; (80045b0 <HAL_GPIO_Init+0x2d4>)
 80044f4:	6a7b      	ldr	r3, [r7, #36]	; 0x24
 80044f6:	089b      	lsrs	r3, r3, #2
 80044f8:	3302      	adds	r3, #2
 80044fa:	68fa      	ldr	r2, [r7, #12]
 80044fc:	f841 2023 	str.w	r2, [r1, r3, lsl #2]


        /* Configure the interrupt mask */
        if ((GPIO_Init->Mode & GPIO_MODE_IT) == GPIO_MODE_IT)
 8004500:	683b      	ldr	r3, [r7, #0]
 8004502:	685b      	ldr	r3, [r3, #4]
 8004504:	f403 3380 	and.w	r3, r3, #65536	; 0x10000
 8004508:	2b00      	cmp	r3, #0
 800450a:	d006      	beq.n	800451a <HAL_GPIO_Init+0x23e>
        {
          SET_BIT(EXTI->IMR, iocurrent);
 800450c:	4b2f      	ldr	r3, [pc, #188]	; (80045cc <HAL_GPIO_Init+0x2f0>)
 800450e:	681a      	ldr	r2, [r3, #0]
 8004510:	492e      	ldr	r1, [pc, #184]	; (80045cc <HAL_GPIO_Init+0x2f0>)
 8004512:	69bb      	ldr	r3, [r7, #24]
 8004514:	4313      	orrs	r3, r2
 8004516:	600b      	str	r3, [r1, #0]
 8004518:	e006      	b.n	8004528 <HAL_GPIO_Init+0x24c>
        }
        else
        {
          CLEAR_BIT(EXTI->IMR, iocurrent);
 800451a:	4b2c      	ldr	r3, [pc, #176]	; (80045cc <HAL_GPIO_Init+0x2f0>)
 800451c:	681a      	ldr	r2, [r3, #0]
 800451e:	69bb      	ldr	r3, [r7, #24]
 8004520:	43db      	mvns	r3, r3
 8004522:	492a      	ldr	r1, [pc, #168]	; (80045cc <HAL_GPIO_Init+0x2f0>)
 8004524:	4013      	ands	r3, r2
 8004526:	600b      	str	r3, [r1, #0]
        }

        /* Configure the event mask */
        if ((GPIO_Init->Mode & GPIO_MODE_EVT) == GPIO_MODE_EVT)
 8004528:	683b      	ldr	r3, [r7, #0]
 800452a:	685b      	ldr	r3, [r3, #4]
 800452c:	f403 3300 	and.w	r3, r3, #131072	; 0x20000
 8004530:	2b00      	cmp	r3, #0
 8004532:	d006      	beq.n	8004542 <HAL_GPIO_Init+0x266>
        {
          SET_BIT(EXTI->EMR, iocurrent);
 8004534:	4b25      	ldr	r3, [pc, #148]	; (80045cc <HAL_GPIO_Init+0x2f0>)
 8004536:	685a      	ldr	r2, [r3, #4]
 8004538:	4924      	ldr	r1, [pc, #144]	; (80045cc <HAL_GPIO_Init+0x2f0>)
 800453a:	69bb      	ldr	r3, [r7, #24]
 800453c:	4313      	orrs	r3, r2
 800453e:	604b      	str	r3, [r1, #4]
 8004540:	e006      	b.n	8004550 <HAL_GPIO_Init+0x274>
        }
        else
        {
          CLEAR_BIT(EXTI->EMR, iocurrent);
 8004542:	4b22      	ldr	r3, [pc, #136]	; (80045cc <HAL_GPIO_Init+0x2f0>)
 8004544:	685a      	ldr	r2, [r3, #4]
 8004546:	69bb      	ldr	r3, [r7, #24]
 8004548:	43db      	mvns	r3, r3
 800454a:	4920      	ldr	r1, [pc, #128]	; (80045cc <HAL_GPIO_Init+0x2f0>)
 800454c:	4013      	ands	r3, r2
 800454e:	604b      	str	r3, [r1, #4]
        }

        /* Enable or disable the rising trigger */
        if ((GPIO_Init->Mode & RISING_EDGE) == RISING_EDGE)
 8004550:	683b      	ldr	r3, [r7, #0]
 8004552:	685b      	ldr	r3, [r3, #4]
 8004554:	f403 1380 	and.w	r3, r3, #1048576	; 0x100000
 8004558:	2b00      	cmp	r3, #0
 800455a:	d006      	beq.n	800456a <HAL_GPIO_Init+0x28e>
        {
          SET_BIT(EXTI->RTSR, iocurrent);
 800455c:	4b1b      	ldr	r3, [pc, #108]	; (80045cc <HAL_GPIO_Init+0x2f0>)
 800455e:	689a      	ldr	r2, [r3, #8]
 8004560:	491a      	ldr	r1, [pc, #104]	; (80045cc <HAL_GPIO_Init+0x2f0>)
 8004562:	69bb      	ldr	r3, [r7, #24]
 8004564:	4313      	orrs	r3, r2
 8004566:	608b      	str	r3, [r1, #8]
 8004568:	e006      	b.n	8004578 <HAL_GPIO_Init+0x29c>
        }
        else
        {
          CLEAR_BIT(EXTI->RTSR, iocurrent);
 800456a:	4b18      	ldr	r3, [pc, #96]	; (80045cc <HAL_GPIO_Init+0x2f0>)
 800456c:	689a      	ldr	r2, [r3, #8]
 800456e:	69bb      	ldr	r3, [r7, #24]
 8004570:	43db      	mvns	r3, r3
 8004572:	4916      	ldr	r1, [pc, #88]	; (80045cc <HAL_GPIO_Init+0x2f0>)
 8004574:	4013      	ands	r3, r2
 8004576:	608b      	str	r3, [r1, #8]
        }

        /* Enable or disable the falling trigger */
        if ((GPIO_Init->Mode & FALLING_EDGE) == FALLING_EDGE)
 8004578:	683b      	ldr	r3, [r7, #0]
 800457a:	685b      	ldr	r3, [r3, #4]
 800457c:	f403 1300 	and.w	r3, r3, #2097152	; 0x200000
 8004580:	2b00      	cmp	r3, #0
 8004582:	d025      	beq.n	80045d0 <HAL_GPIO_Init+0x2f4>
        {
          SET_BIT(EXTI->FTSR, iocurrent);
 8004584:	4b11      	ldr	r3, [pc, #68]	; (80045cc <HAL_GPIO_Init+0x2f0>)
 8004586:	68da      	ldr	r2, [r3, #12]
 8004588:	4910      	ldr	r1, [pc, #64]	; (80045cc <HAL_GPIO_Init+0x2f0>)
 800458a:	69bb      	ldr	r3, [r7, #24]
 800458c:	4313      	orrs	r3, r2
 800458e:	60cb      	str	r3, [r1, #12]
 8004590:	e025      	b.n	80045de <HAL_GPIO_Init+0x302>
 8004592:	bf00      	nop
 8004594:	10320000 	.word	0x10320000
 8004598:	10310000 	.word	0x10310000
 800459c:	10220000 	.word	0x10220000
 80045a0:	10210000 	.word	0x10210000
 80045a4:	10120000 	.word	0x10120000
 80045a8:	10110000 	.word	0x10110000
 80045ac:	40021000 	.word	0x40021000
 80045b0:	40010000 	.word	0x40010000
 80045b4:	40010800 	.word	0x40010800
 80045b8:	40010c00 	.word	0x40010c00
 80045bc:	40011000 	.word	0x40011000
 80045c0:	40011400 	.word	0x40011400
 80045c4:	40011800 	.word	0x40011800
 80045c8:	40011c00 	.word	0x40011c00
 80045cc:	40010400 	.word	0x40010400
        }
        else
        {
          CLEAR_BIT(EXTI->FTSR, iocurrent);
 80045d0:	4b0b      	ldr	r3, [pc, #44]	; (8004600 <HAL_GPIO_Init+0x324>)
 80045d2:	68da      	ldr	r2, [r3, #12]
 80045d4:	69bb      	ldr	r3, [r7, #24]
 80045d6:	43db      	mvns	r3, r3
 80045d8:	4909      	ldr	r1, [pc, #36]	; (8004600 <HAL_GPIO_Init+0x324>)
 80045da:	4013      	ands	r3, r2
 80045dc:	60cb      	str	r3, [r1, #12]
        }
      }
    }

	position++;
 80045de:	6a7b      	ldr	r3, [r7, #36]	; 0x24
 80045e0:	3301      	adds	r3, #1
 80045e2:	627b      	str	r3, [r7, #36]	; 0x24
  while (((GPIO_Init->Pin) >> position) != 0x00u)
 80045e4:	683b      	ldr	r3, [r7, #0]
 80045e6:	681a      	ldr	r2, [r3, #0]
 80045e8:	6a7b      	ldr	r3, [r7, #36]	; 0x24
 80045ea:	fa22 f303 	lsr.w	r3, r2, r3
 80045ee:	2b00      	cmp	r3, #0
 80045f0:	f47f ae7e 	bne.w	80042f0 <HAL_GPIO_Init+0x14>
  }
}
 80045f4:	bf00      	nop
 80045f6:	bf00      	nop
 80045f8:	372c      	adds	r7, #44	; 0x2c
 80045fa:	46bd      	mov	sp, r7
 80045fc:	bc80      	pop	{r7}
 80045fe:	4770      	bx	lr
 8004600:	40010400 	.word	0x40010400

08004604 <HAL_GPIO_ReadPin>:
  * @param  GPIO_Pin: specifies the port bit to read.
  *         This parameter can be GPIO_PIN_x where x can be (0..15).
  * @retval The input port pin value.
  */
GPIO_PinState HAL_GPIO_ReadPin(GPIO_TypeDef *GPIOx, uint16_t GPIO_Pin)
{
 8004604:	b480      	push	{r7}
 8004606:	b085      	sub	sp, #20
 8004608:	af00      	add	r7, sp, #0
 800460a:	6078      	str	r0, [r7, #4]
 800460c:	460b      	mov	r3, r1
 800460e:	807b      	strh	r3, [r7, #2]
  GPIO_PinState bitstatus;

  /* Check the parameters */
  assert_param(IS_GPIO_PIN(GPIO_Pin));

  if ((GPIOx->IDR & GPIO_Pin) != (uint32_t)GPIO_PIN_RESET)
 8004610:	687b      	ldr	r3, [r7, #4]
 8004612:	689a      	ldr	r2, [r3, #8]
 8004614:	887b      	ldrh	r3, [r7, #2]
 8004616:	4013      	ands	r3, r2
 8004618:	2b00      	cmp	r3, #0
 800461a:	d002      	beq.n	8004622 <HAL_GPIO_ReadPin+0x1e>
  {
    bitstatus = GPIO_PIN_SET;
 800461c:	2301      	movs	r3, #1
 800461e:	73fb      	strb	r3, [r7, #15]
 8004620:	e001      	b.n	8004626 <HAL_GPIO_ReadPin+0x22>
  }
  else
  {
    bitstatus = GPIO_PIN_RESET;
 8004622:	2300      	movs	r3, #0
 8004624:	73fb      	strb	r3, [r7, #15]
  }
  return bitstatus;
 8004626:	7bfb      	ldrb	r3, [r7, #15]
}
 8004628:	4618      	mov	r0, r3
 800462a:	3714      	adds	r7, #20
 800462c:	46bd      	mov	sp, r7
 800462e:	bc80      	pop	{r7}
 8004630:	4770      	bx	lr

08004632 <HAL_GPIO_WritePin>:
  *            @arg GPIO_PIN_RESET: to clear the port pin
  *            @arg GPIO_PIN_SET: to set the port pin
  * @retval None
  */
void HAL_GPIO_WritePin(GPIO_TypeDef *GPIOx, uint16_t GPIO_Pin, GPIO_PinState PinState)
{
 8004632:	b480      	push	{r7}
 8004634:	b083      	sub	sp, #12
 8004636:	af00      	add	r7, sp, #0
 8004638:	6078      	str	r0, [r7, #4]
 800463a:	460b      	mov	r3, r1
 800463c:	807b      	strh	r3, [r7, #2]
 800463e:	4613      	mov	r3, r2
 8004640:	707b      	strb	r3, [r7, #1]
  /* Check the parameters */
  assert_param(IS_GPIO_PIN(GPIO_Pin));
  assert_param(IS_GPIO_PIN_ACTION(PinState));

  if (PinState != GPIO_PIN_RESET)
 8004642:	787b      	ldrb	r3, [r7, #1]
 8004644:	2b00      	cmp	r3, #0
 8004646:	d003      	beq.n	8004650 <HAL_GPIO_WritePin+0x1e>
  {
    GPIOx->BSRR = GPIO_Pin;
 8004648:	887a      	ldrh	r2, [r7, #2]
 800464a:	687b      	ldr	r3, [r7, #4]
 800464c:	611a      	str	r2, [r3, #16]
  }
  else
  {
    GPIOx->BSRR = (uint32_t)GPIO_Pin << 16u;
  }
}
 800464e:	e003      	b.n	8004658 <HAL_GPIO_WritePin+0x26>
    GPIOx->BSRR = (uint32_t)GPIO_Pin << 16u;
 8004650:	887b      	ldrh	r3, [r7, #2]
 8004652:	041a      	lsls	r2, r3, #16
 8004654:	687b      	ldr	r3, [r7, #4]
 8004656:	611a      	str	r2, [r3, #16]
}
 8004658:	bf00      	nop
 800465a:	370c      	adds	r7, #12
 800465c:	46bd      	mov	sp, r7
 800465e:	bc80      	pop	{r7}
 8004660:	4770      	bx	lr
	...

08004664 <HAL_GPIO_EXTI_IRQHandler>:
  * @brief  This function handles EXTI interrupt request.
  * @param  GPIO_Pin: Specifies the pins connected EXTI line
  * @retval None
  */
void HAL_GPIO_EXTI_IRQHandler(uint16_t GPIO_Pin)
{
 8004664:	b580      	push	{r7, lr}
 8004666:	b082      	sub	sp, #8
 8004668:	af00      	add	r7, sp, #0
 800466a:	4603      	mov	r3, r0
 800466c:	80fb      	strh	r3, [r7, #6]
  /* EXTI line interrupt detected */
  if (__HAL_GPIO_EXTI_GET_IT(GPIO_Pin) != 0x00u)
 800466e:	4b08      	ldr	r3, [pc, #32]	; (8004690 <HAL_GPIO_EXTI_IRQHandler+0x2c>)
 8004670:	695a      	ldr	r2, [r3, #20]
 8004672:	88fb      	ldrh	r3, [r7, #6]
 8004674:	4013      	ands	r3, r2
 8004676:	2b00      	cmp	r3, #0
 8004678:	d006      	beq.n	8004688 <HAL_GPIO_EXTI_IRQHandler+0x24>
  {
    __HAL_GPIO_EXTI_CLEAR_IT(GPIO_Pin);
 800467a:	4a05      	ldr	r2, [pc, #20]	; (8004690 <HAL_GPIO_EXTI_IRQHandler+0x2c>)
 800467c:	88fb      	ldrh	r3, [r7, #6]
 800467e:	6153      	str	r3, [r2, #20]
    HAL_GPIO_EXTI_Callback(GPIO_Pin);
 8004680:	88fb      	ldrh	r3, [r7, #6]
 8004682:	4618      	mov	r0, r3
 8004684:	f7fc fcc6 	bl	8001014 <HAL_GPIO_EXTI_Callback>
  }
}
 8004688:	bf00      	nop
 800468a:	3708      	adds	r7, #8
 800468c:	46bd      	mov	sp, r7
 800468e:	bd80      	pop	{r7, pc}
 8004690:	40010400 	.word	0x40010400

08004694 <HAL_RCC_OscConfig>:
  *         supported by this macro. User should request a transition to HSE Off
  *         first and then HSE On or HSE Bypass.
  * @retval HAL status
  */
HAL_StatusTypeDef HAL_RCC_OscConfig(RCC_OscInitTypeDef  *RCC_OscInitStruct)
{
 8004694:	b580      	push	{r7, lr}
 8004696:	b086      	sub	sp, #24
 8004698:	af00      	add	r7, sp, #0
 800469a:	6078      	str	r0, [r7, #4]
  uint32_t tickstart;
  uint32_t pll_config;

  /* Check Null pointer */
  if (RCC_OscInitStruct == NULL)
 800469c:	687b      	ldr	r3, [r7, #4]
 800469e:	2b00      	cmp	r3, #0
 80046a0:	d101      	bne.n	80046a6 <HAL_RCC_OscConfig+0x12>
  {
    return HAL_ERROR;
 80046a2:	2301      	movs	r3, #1
 80046a4:	e26c      	b.n	8004b80 <HAL_RCC_OscConfig+0x4ec>

  /* Check the parameters */
  assert_param(IS_RCC_OSCILLATORTYPE(RCC_OscInitStruct->OscillatorType));

  /*------------------------------- HSE Configuration ------------------------*/
  if (((RCC_OscInitStruct->OscillatorType) & RCC_OSCILLATORTYPE_HSE) == RCC_OSCILLATORTYPE_HSE)
 80046a6:	687b      	ldr	r3, [r7, #4]
 80046a8:	681b      	ldr	r3, [r3, #0]
 80046aa:	f003 0301 	and.w	r3, r3, #1
 80046ae:	2b00      	cmp	r3, #0
 80046b0:	f000 8087 	beq.w	80047c2 <HAL_RCC_OscConfig+0x12e>
  {
    /* Check the parameters */
    assert_param(IS_RCC_HSE(RCC_OscInitStruct->HSEState));

    /* When the HSE is used as system clock or clock source for PLL in these cases it is not allowed to be disabled */
    if ((__HAL_RCC_GET_SYSCLK_SOURCE() == RCC_SYSCLKSOURCE_STATUS_HSE)
 80046b4:	4b92      	ldr	r3, [pc, #584]	; (8004900 <HAL_RCC_OscConfig+0x26c>)
 80046b6:	685b      	ldr	r3, [r3, #4]
 80046b8:	f003 030c 	and.w	r3, r3, #12
 80046bc:	2b04      	cmp	r3, #4
 80046be:	d00c      	beq.n	80046da <HAL_RCC_OscConfig+0x46>
        || ((__HAL_RCC_GET_SYSCLK_SOURCE() == RCC_SYSCLKSOURCE_STATUS_PLLCLK) && (__HAL_RCC_GET_PLL_OSCSOURCE() == RCC_PLLSOURCE_HSE)))
 80046c0:	4b8f      	ldr	r3, [pc, #572]	; (8004900 <HAL_RCC_OscConfig+0x26c>)
 80046c2:	685b      	ldr	r3, [r3, #4]
 80046c4:	f003 030c 	and.w	r3, r3, #12
 80046c8:	2b08      	cmp	r3, #8
 80046ca:	d112      	bne.n	80046f2 <HAL_RCC_OscConfig+0x5e>
 80046cc:	4b8c      	ldr	r3, [pc, #560]	; (8004900 <HAL_RCC_OscConfig+0x26c>)
 80046ce:	685b      	ldr	r3, [r3, #4]
 80046d0:	f403 3380 	and.w	r3, r3, #65536	; 0x10000
 80046d4:	f5b3 3f80 	cmp.w	r3, #65536	; 0x10000
 80046d8:	d10b      	bne.n	80046f2 <HAL_RCC_OscConfig+0x5e>
    {
      if ((__HAL_RCC_GET_FLAG(RCC_FLAG_HSERDY) != RESET) && (RCC_OscInitStruct->HSEState == RCC_HSE_OFF))
 80046da:	4b89      	ldr	r3, [pc, #548]	; (8004900 <HAL_RCC_OscConfig+0x26c>)
 80046dc:	681b      	ldr	r3, [r3, #0]
 80046de:	f403 3300 	and.w	r3, r3, #131072	; 0x20000
 80046e2:	2b00      	cmp	r3, #0
 80046e4:	d06c      	beq.n	80047c0 <HAL_RCC_OscConfig+0x12c>
 80046e6:	687b      	ldr	r3, [r7, #4]
 80046e8:	685b      	ldr	r3, [r3, #4]
 80046ea:	2b00      	cmp	r3, #0
 80046ec:	d168      	bne.n	80047c0 <HAL_RCC_OscConfig+0x12c>
      {
        return HAL_ERROR;
 80046ee:	2301      	movs	r3, #1
 80046f0:	e246      	b.n	8004b80 <HAL_RCC_OscConfig+0x4ec>
      }
    }
    else
    {
      /* Set the new HSE configuration ---------------------------------------*/
      __HAL_RCC_HSE_CONFIG(RCC_OscInitStruct->HSEState);
 80046f2:	687b      	ldr	r3, [r7, #4]
 80046f4:	685b      	ldr	r3, [r3, #4]
 80046f6:	f5b3 3f80 	cmp.w	r3, #65536	; 0x10000
 80046fa:	d106      	bne.n	800470a <HAL_RCC_OscConfig+0x76>
 80046fc:	4b80      	ldr	r3, [pc, #512]	; (8004900 <HAL_RCC_OscConfig+0x26c>)
 80046fe:	681b      	ldr	r3, [r3, #0]
 8004700:	4a7f      	ldr	r2, [pc, #508]	; (8004900 <HAL_RCC_OscConfig+0x26c>)
 8004702:	f443 3380 	orr.w	r3, r3, #65536	; 0x10000
 8004706:	6013      	str	r3, [r2, #0]
 8004708:	e02e      	b.n	8004768 <HAL_RCC_OscConfig+0xd4>
 800470a:	687b      	ldr	r3, [r7, #4]
 800470c:	685b      	ldr	r3, [r3, #4]
 800470e:	2b00      	cmp	r3, #0
 8004710:	d10c      	bne.n	800472c <HAL_RCC_OscConfig+0x98>
 8004712:	4b7b      	ldr	r3, [pc, #492]	; (8004900 <HAL_RCC_OscConfig+0x26c>)
 8004714:	681b      	ldr	r3, [r3, #0]
 8004716:	4a7a      	ldr	r2, [pc, #488]	; (8004900 <HAL_RCC_OscConfig+0x26c>)
 8004718:	f423 3380 	bic.w	r3, r3, #65536	; 0x10000
 800471c:	6013      	str	r3, [r2, #0]
 800471e:	4b78      	ldr	r3, [pc, #480]	; (8004900 <HAL_RCC_OscConfig+0x26c>)
 8004720:	681b      	ldr	r3, [r3, #0]
 8004722:	4a77      	ldr	r2, [pc, #476]	; (8004900 <HAL_RCC_OscConfig+0x26c>)
 8004724:	f423 2380 	bic.w	r3, r3, #262144	; 0x40000
 8004728:	6013      	str	r3, [r2, #0]
 800472a:	e01d      	b.n	8004768 <HAL_RCC_OscConfig+0xd4>
 800472c:	687b      	ldr	r3, [r7, #4]
 800472e:	685b      	ldr	r3, [r3, #4]
 8004730:	f5b3 2fa0 	cmp.w	r3, #327680	; 0x50000
 8004734:	d10c      	bne.n	8004750 <HAL_RCC_OscConfig+0xbc>
 8004736:	4b72      	ldr	r3, [pc, #456]	; (8004900 <HAL_RCC_OscConfig+0x26c>)
 8004738:	681b      	ldr	r3, [r3, #0]
 800473a:	4a71      	ldr	r2, [pc, #452]	; (8004900 <HAL_RCC_OscConfig+0x26c>)
 800473c:	f443 2380 	orr.w	r3, r3, #262144	; 0x40000
 8004740:	6013      	str	r3, [r2, #0]
 8004742:	4b6f      	ldr	r3, [pc, #444]	; (8004900 <HAL_RCC_OscConfig+0x26c>)
 8004744:	681b      	ldr	r3, [r3, #0]
 8004746:	4a6e      	ldr	r2, [pc, #440]	; (8004900 <HAL_RCC_OscConfig+0x26c>)
 8004748:	f443 3380 	orr.w	r3, r3, #65536	; 0x10000
 800474c:	6013      	str	r3, [r2, #0]
 800474e:	e00b      	b.n	8004768 <HAL_RCC_OscConfig+0xd4>
 8004750:	4b6b      	ldr	r3, [pc, #428]	; (8004900 <HAL_RCC_OscConfig+0x26c>)
 8004752:	681b      	ldr	r3, [r3, #0]
 8004754:	4a6a      	ldr	r2, [pc, #424]	; (8004900 <HAL_RCC_OscConfig+0x26c>)
 8004756:	f423 3380 	bic.w	r3, r3, #65536	; 0x10000
 800475a:	6013      	str	r3, [r2, #0]
 800475c:	4b68      	ldr	r3, [pc, #416]	; (8004900 <HAL_RCC_OscConfig+0x26c>)
 800475e:	681b      	ldr	r3, [r3, #0]
 8004760:	4a67      	ldr	r2, [pc, #412]	; (8004900 <HAL_RCC_OscConfig+0x26c>)
 8004762:	f423 2380 	bic.w	r3, r3, #262144	; 0x40000
 8004766:	6013      	str	r3, [r2, #0]


      /* Check the HSE State */
      if (RCC_OscInitStruct->HSEState != RCC_HSE_OFF)
 8004768:	687b      	ldr	r3, [r7, #4]
 800476a:	685b      	ldr	r3, [r3, #4]
 800476c:	2b00      	cmp	r3, #0
 800476e:	d013      	beq.n	8004798 <HAL_RCC_OscConfig+0x104>
      {
        /* Get Start Tick */
        tickstart = HAL_GetTick();
 8004770:	f7ff f994 	bl	8003a9c <HAL_GetTick>
 8004774:	6138      	str	r0, [r7, #16]

        /* Wait till HSE is ready */
        while (__HAL_RCC_GET_FLAG(RCC_FLAG_HSERDY) == RESET)
 8004776:	e008      	b.n	800478a <HAL_RCC_OscConfig+0xf6>
        {
          if ((HAL_GetTick() - tickstart) > HSE_TIMEOUT_VALUE)
 8004778:	f7ff f990 	bl	8003a9c <HAL_GetTick>
 800477c:	4602      	mov	r2, r0
 800477e:	693b      	ldr	r3, [r7, #16]
 8004780:	1ad3      	subs	r3, r2, r3
 8004782:	2b64      	cmp	r3, #100	; 0x64
 8004784:	d901      	bls.n	800478a <HAL_RCC_OscConfig+0xf6>
          {
            return HAL_TIMEOUT;
 8004786:	2303      	movs	r3, #3
 8004788:	e1fa      	b.n	8004b80 <HAL_RCC_OscConfig+0x4ec>
        while (__HAL_RCC_GET_FLAG(RCC_FLAG_HSERDY) == RESET)
 800478a:	4b5d      	ldr	r3, [pc, #372]	; (8004900 <HAL_RCC_OscConfig+0x26c>)
 800478c:	681b      	ldr	r3, [r3, #0]
 800478e:	f403 3300 	and.w	r3, r3, #131072	; 0x20000
 8004792:	2b00      	cmp	r3, #0
 8004794:	d0f0      	beq.n	8004778 <HAL_RCC_OscConfig+0xe4>
 8004796:	e014      	b.n	80047c2 <HAL_RCC_OscConfig+0x12e>
        }
      }
      else
      {
        /* Get Start Tick */
        tickstart = HAL_GetTick();
 8004798:	f7ff f980 	bl	8003a9c <HAL_GetTick>
 800479c:	6138      	str	r0, [r7, #16]

        /* Wait till HSE is disabled */
        while (__HAL_RCC_GET_FLAG(RCC_FLAG_HSERDY) != RESET)
 800479e:	e008      	b.n	80047b2 <HAL_RCC_OscConfig+0x11e>
        {
          if ((HAL_GetTick() - tickstart) > HSE_TIMEOUT_VALUE)
 80047a0:	f7ff f97c 	bl	8003a9c <HAL_GetTick>
 80047a4:	4602      	mov	r2, r0
 80047a6:	693b      	ldr	r3, [r7, #16]
 80047a8:	1ad3      	subs	r3, r2, r3
 80047aa:	2b64      	cmp	r3, #100	; 0x64
 80047ac:	d901      	bls.n	80047b2 <HAL_RCC_OscConfig+0x11e>
          {
            return HAL_TIMEOUT;
 80047ae:	2303      	movs	r3, #3
 80047b0:	e1e6      	b.n	8004b80 <HAL_RCC_OscConfig+0x4ec>
        while (__HAL_RCC_GET_FLAG(RCC_FLAG_HSERDY) != RESET)
 80047b2:	4b53      	ldr	r3, [pc, #332]	; (8004900 <HAL_RCC_OscConfig+0x26c>)
 80047b4:	681b      	ldr	r3, [r3, #0]
 80047b6:	f403 3300 	and.w	r3, r3, #131072	; 0x20000
 80047ba:	2b00      	cmp	r3, #0
 80047bc:	d1f0      	bne.n	80047a0 <HAL_RCC_OscConfig+0x10c>
 80047be:	e000      	b.n	80047c2 <HAL_RCC_OscConfig+0x12e>
      if ((__HAL_RCC_GET_FLAG(RCC_FLAG_HSERDY) != RESET) && (RCC_OscInitStruct->HSEState == RCC_HSE_OFF))
 80047c0:	bf00      	nop
        }
      }
    }
  }
  /*----------------------------- HSI Configuration --------------------------*/
  if (((RCC_OscInitStruct->OscillatorType) & RCC_OSCILLATORTYPE_HSI) == RCC_OSCILLATORTYPE_HSI)
 80047c2:	687b      	ldr	r3, [r7, #4]
 80047c4:	681b      	ldr	r3, [r3, #0]
 80047c6:	f003 0302 	and.w	r3, r3, #2
 80047ca:	2b00      	cmp	r3, #0
 80047cc:	d063      	beq.n	8004896 <HAL_RCC_OscConfig+0x202>
    /* Check the parameters */
    assert_param(IS_RCC_HSI(RCC_OscInitStruct->HSIState));
    assert_param(IS_RCC_CALIBRATION_VALUE(RCC_OscInitStruct->HSICalibrationValue));

    /* Check if HSI is used as system clock or as PLL source when PLL is selected as system clock */
    if ((__HAL_RCC_GET_SYSCLK_SOURCE() == RCC_SYSCLKSOURCE_STATUS_HSI)
 80047ce:	4b4c      	ldr	r3, [pc, #304]	; (8004900 <HAL_RCC_OscConfig+0x26c>)
 80047d0:	685b      	ldr	r3, [r3, #4]
 80047d2:	f003 030c 	and.w	r3, r3, #12
 80047d6:	2b00      	cmp	r3, #0
 80047d8:	d00b      	beq.n	80047f2 <HAL_RCC_OscConfig+0x15e>
        || ((__HAL_RCC_GET_SYSCLK_SOURCE() == RCC_SYSCLKSOURCE_STATUS_PLLCLK) && (__HAL_RCC_GET_PLL_OSCSOURCE() == RCC_PLLSOURCE_HSI_DIV2)))
 80047da:	4b49      	ldr	r3, [pc, #292]	; (8004900 <HAL_RCC_OscConfig+0x26c>)
 80047dc:	685b      	ldr	r3, [r3, #4]
 80047de:	f003 030c 	and.w	r3, r3, #12
 80047e2:	2b08      	cmp	r3, #8
 80047e4:	d11c      	bne.n	8004820 <HAL_RCC_OscConfig+0x18c>
 80047e6:	4b46      	ldr	r3, [pc, #280]	; (8004900 <HAL_RCC_OscConfig+0x26c>)
 80047e8:	685b      	ldr	r3, [r3, #4]
 80047ea:	f403 3380 	and.w	r3, r3, #65536	; 0x10000
 80047ee:	2b00      	cmp	r3, #0
 80047f0:	d116      	bne.n	8004820 <HAL_RCC_OscConfig+0x18c>
    {
      /* When HSI is used as system clock it will not disabled */
      if ((__HAL_RCC_GET_FLAG(RCC_FLAG_HSIRDY) != RESET) && (RCC_OscInitStruct->HSIState != RCC_HSI_ON))
 80047f2:	4b43      	ldr	r3, [pc, #268]	; (8004900 <HAL_RCC_OscConfig+0x26c>)
 80047f4:	681b      	ldr	r3, [r3, #0]
 80047f6:	f003 0302 	and.w	r3, r3, #2
 80047fa:	2b00      	cmp	r3, #0
 80047fc:	d005      	beq.n	800480a <HAL_RCC_OscConfig+0x176>
 80047fe:	687b      	ldr	r3, [r7, #4]
 8004800:	691b      	ldr	r3, [r3, #16]
 8004802:	2b01      	cmp	r3, #1
 8004804:	d001      	beq.n	800480a <HAL_RCC_OscConfig+0x176>
      {
        return HAL_ERROR;
 8004806:	2301      	movs	r3, #1
 8004808:	e1ba      	b.n	8004b80 <HAL_RCC_OscConfig+0x4ec>
      }
      /* Otherwise, just the calibration is allowed */
      else
      {
        /* Adjusts the Internal High Speed oscillator (HSI) calibration value.*/
        __HAL_RCC_HSI_CALIBRATIONVALUE_ADJUST(RCC_OscInitStruct->HSICalibrationValue);
 800480a:	4b3d      	ldr	r3, [pc, #244]	; (8004900 <HAL_RCC_OscConfig+0x26c>)
 800480c:	681b      	ldr	r3, [r3, #0]
 800480e:	f023 02f8 	bic.w	r2, r3, #248	; 0xf8
 8004812:	687b      	ldr	r3, [r7, #4]
 8004814:	695b      	ldr	r3, [r3, #20]
 8004816:	00db      	lsls	r3, r3, #3
 8004818:	4939      	ldr	r1, [pc, #228]	; (8004900 <HAL_RCC_OscConfig+0x26c>)
 800481a:	4313      	orrs	r3, r2
 800481c:	600b      	str	r3, [r1, #0]
      if ((__HAL_RCC_GET_FLAG(RCC_FLAG_HSIRDY) != RESET) && (RCC_OscInitStruct->HSIState != RCC_HSI_ON))
 800481e:	e03a      	b.n	8004896 <HAL_RCC_OscConfig+0x202>
      }
    }
    else
    {
      /* Check the HSI State */
      if (RCC_OscInitStruct->HSIState != RCC_HSI_OFF)
 8004820:	687b      	ldr	r3, [r7, #4]
 8004822:	691b      	ldr	r3, [r3, #16]
 8004824:	2b00      	cmp	r3, #0
 8004826:	d020      	beq.n	800486a <HAL_RCC_OscConfig+0x1d6>
      {
        /* Enable the Internal High Speed oscillator (HSI). */
        __HAL_RCC_HSI_ENABLE();
 8004828:	4b36      	ldr	r3, [pc, #216]	; (8004904 <HAL_RCC_OscConfig+0x270>)
 800482a:	2201      	movs	r2, #1
 800482c:	601a      	str	r2, [r3, #0]

        /* Get Start Tick */
        tickstart = HAL_GetTick();
 800482e:	f7ff f935 	bl	8003a9c <HAL_GetTick>
 8004832:	6138      	str	r0, [r7, #16]

        /* Wait till HSI is ready */
        while (__HAL_RCC_GET_FLAG(RCC_FLAG_HSIRDY) == RESET)
 8004834:	e008      	b.n	8004848 <HAL_RCC_OscConfig+0x1b4>
        {
          if ((HAL_GetTick() - tickstart) > HSI_TIMEOUT_VALUE)
 8004836:	f7ff f931 	bl	8003a9c <HAL_GetTick>
 800483a:	4602      	mov	r2, r0
 800483c:	693b      	ldr	r3, [r7, #16]
 800483e:	1ad3      	subs	r3, r2, r3
 8004840:	2b02      	cmp	r3, #2
 8004842:	d901      	bls.n	8004848 <HAL_RCC_OscConfig+0x1b4>
          {
            return HAL_TIMEOUT;
 8004844:	2303      	movs	r3, #3
 8004846:	e19b      	b.n	8004b80 <HAL_RCC_OscConfig+0x4ec>
        while (__HAL_RCC_GET_FLAG(RCC_FLAG_HSIRDY) == RESET)
 8004848:	4b2d      	ldr	r3, [pc, #180]	; (8004900 <HAL_RCC_OscConfig+0x26c>)
 800484a:	681b      	ldr	r3, [r3, #0]
 800484c:	f003 0302 	and.w	r3, r3, #2
 8004850:	2b00      	cmp	r3, #0
 8004852:	d0f0      	beq.n	8004836 <HAL_RCC_OscConfig+0x1a2>
          }
        }

        /* Adjusts the Internal High Speed oscillator (HSI) calibration value.*/
        __HAL_RCC_HSI_CALIBRATIONVALUE_ADJUST(RCC_OscInitStruct->HSICalibrationValue);
 8004854:	4b2a      	ldr	r3, [pc, #168]	; (8004900 <HAL_RCC_OscConfig+0x26c>)
 8004856:	681b      	ldr	r3, [r3, #0]
 8004858:	f023 02f8 	bic.w	r2, r3, #248	; 0xf8
 800485c:	687b      	ldr	r3, [r7, #4]
 800485e:	695b      	ldr	r3, [r3, #20]
 8004860:	00db      	lsls	r3, r3, #3
 8004862:	4927      	ldr	r1, [pc, #156]	; (8004900 <HAL_RCC_OscConfig+0x26c>)
 8004864:	4313      	orrs	r3, r2
 8004866:	600b      	str	r3, [r1, #0]
 8004868:	e015      	b.n	8004896 <HAL_RCC_OscConfig+0x202>
      }
      else
      {
        /* Disable the Internal High Speed oscillator (HSI). */
        __HAL_RCC_HSI_DISABLE();
 800486a:	4b26      	ldr	r3, [pc, #152]	; (8004904 <HAL_RCC_OscConfig+0x270>)
 800486c:	2200      	movs	r2, #0
 800486e:	601a      	str	r2, [r3, #0]

        /* Get Start Tick */
        tickstart = HAL_GetTick();
 8004870:	f7ff f914 	bl	8003a9c <HAL_GetTick>
 8004874:	6138      	str	r0, [r7, #16]

        /* Wait till HSI is disabled */
        while (__HAL_RCC_GET_FLAG(RCC_FLAG_HSIRDY) != RESET)
 8004876:	e008      	b.n	800488a <HAL_RCC_OscConfig+0x1f6>
        {
          if ((HAL_GetTick() - tickstart) > HSI_TIMEOUT_VALUE)
 8004878:	f7ff f910 	bl	8003a9c <HAL_GetTick>
 800487c:	4602      	mov	r2, r0
 800487e:	693b      	ldr	r3, [r7, #16]
 8004880:	1ad3      	subs	r3, r2, r3
 8004882:	2b02      	cmp	r3, #2
 8004884:	d901      	bls.n	800488a <HAL_RCC_OscConfig+0x1f6>
          {
            return HAL_TIMEOUT;
 8004886:	2303      	movs	r3, #3
 8004888:	e17a      	b.n	8004b80 <HAL_RCC_OscConfig+0x4ec>
        while (__HAL_RCC_GET_FLAG(RCC_FLAG_HSIRDY) != RESET)
 800488a:	4b1d      	ldr	r3, [pc, #116]	; (8004900 <HAL_RCC_OscConfig+0x26c>)
 800488c:	681b      	ldr	r3, [r3, #0]
 800488e:	f003 0302 	and.w	r3, r3, #2
 8004892:	2b00      	cmp	r3, #0
 8004894:	d1f0      	bne.n	8004878 <HAL_RCC_OscConfig+0x1e4>
        }
      }
    }
  }
  /*------------------------------ LSI Configuration -------------------------*/
  if (((RCC_OscInitStruct->OscillatorType) & RCC_OSCILLATORTYPE_LSI) == RCC_OSCILLATORTYPE_LSI)
 8004896:	687b      	ldr	r3, [r7, #4]
 8004898:	681b      	ldr	r3, [r3, #0]
 800489a:	f003 0308 	and.w	r3, r3, #8
 800489e:	2b00      	cmp	r3, #0
 80048a0:	d03a      	beq.n	8004918 <HAL_RCC_OscConfig+0x284>
  {
    /* Check the parameters */
    assert_param(IS_RCC_LSI(RCC_OscInitStruct->LSIState));

    /* Check the LSI State */
    if (RCC_OscInitStruct->LSIState != RCC_LSI_OFF)
 80048a2:	687b      	ldr	r3, [r7, #4]
 80048a4:	699b      	ldr	r3, [r3, #24]
 80048a6:	2b00      	cmp	r3, #0
 80048a8:	d019      	beq.n	80048de <HAL_RCC_OscConfig+0x24a>
    {
      /* Enable the Internal Low Speed oscillator (LSI). */
      __HAL_RCC_LSI_ENABLE();
 80048aa:	4b17      	ldr	r3, [pc, #92]	; (8004908 <HAL_RCC_OscConfig+0x274>)
 80048ac:	2201      	movs	r2, #1
 80048ae:	601a      	str	r2, [r3, #0]

      /* Get Start Tick */
      tickstart = HAL_GetTick();
 80048b0:	f7ff f8f4 	bl	8003a9c <HAL_GetTick>
 80048b4:	6138      	str	r0, [r7, #16]

      /* Wait till LSI is ready */
      while (__HAL_RCC_GET_FLAG(RCC_FLAG_LSIRDY) == RESET)
 80048b6:	e008      	b.n	80048ca <HAL_RCC_OscConfig+0x236>
      {
        if ((HAL_GetTick() - tickstart) > LSI_TIMEOUT_VALUE)
 80048b8:	f7ff f8f0 	bl	8003a9c <HAL_GetTick>
 80048bc:	4602      	mov	r2, r0
 80048be:	693b      	ldr	r3, [r7, #16]
 80048c0:	1ad3      	subs	r3, r2, r3
 80048c2:	2b02      	cmp	r3, #2
 80048c4:	d901      	bls.n	80048ca <HAL_RCC_OscConfig+0x236>
        {
          return HAL_TIMEOUT;
 80048c6:	2303      	movs	r3, #3
 80048c8:	e15a      	b.n	8004b80 <HAL_RCC_OscConfig+0x4ec>
      while (__HAL_RCC_GET_FLAG(RCC_FLAG_LSIRDY) == RESET)
 80048ca:	4b0d      	ldr	r3, [pc, #52]	; (8004900 <HAL_RCC_OscConfig+0x26c>)
 80048cc:	6a5b      	ldr	r3, [r3, #36]	; 0x24
 80048ce:	f003 0302 	and.w	r3, r3, #2
 80048d2:	2b00      	cmp	r3, #0
 80048d4:	d0f0      	beq.n	80048b8 <HAL_RCC_OscConfig+0x224>
        }
      }
      /*  To have a fully stabilized clock in the specified range, a software delay of 1ms
          should be added.*/
      RCC_Delay(1);
 80048d6:	2001      	movs	r0, #1
 80048d8:	f000 faa6 	bl	8004e28 <RCC_Delay>
 80048dc:	e01c      	b.n	8004918 <HAL_RCC_OscConfig+0x284>
    }
    else
    {
      /* Disable the Internal Low Speed oscillator (LSI). */
      __HAL_RCC_LSI_DISABLE();
 80048de:	4b0a      	ldr	r3, [pc, #40]	; (8004908 <HAL_RCC_OscConfig+0x274>)
 80048e0:	2200      	movs	r2, #0
 80048e2:	601a      	str	r2, [r3, #0]

      /* Get Start Tick */
      tickstart = HAL_GetTick();
 80048e4:	f7ff f8da 	bl	8003a9c <HAL_GetTick>
 80048e8:	6138      	str	r0, [r7, #16]

      /* Wait till LSI is disabled */
      while (__HAL_RCC_GET_FLAG(RCC_FLAG_LSIRDY) != RESET)
 80048ea:	e00f      	b.n	800490c <HAL_RCC_OscConfig+0x278>
      {
        if ((HAL_GetTick() - tickstart) > LSI_TIMEOUT_VALUE)
 80048ec:	f7ff f8d6 	bl	8003a9c <HAL_GetTick>
 80048f0:	4602      	mov	r2, r0
 80048f2:	693b      	ldr	r3, [r7, #16]
 80048f4:	1ad3      	subs	r3, r2, r3
 80048f6:	2b02      	cmp	r3, #2
 80048f8:	d908      	bls.n	800490c <HAL_RCC_OscConfig+0x278>
        {
          return HAL_TIMEOUT;
 80048fa:	2303      	movs	r3, #3
 80048fc:	e140      	b.n	8004b80 <HAL_RCC_OscConfig+0x4ec>
 80048fe:	bf00      	nop
 8004900:	40021000 	.word	0x40021000
 8004904:	42420000 	.word	0x42420000
 8004908:	42420480 	.word	0x42420480
      while (__HAL_RCC_GET_FLAG(RCC_FLAG_LSIRDY) != RESET)
 800490c:	4b9e      	ldr	r3, [pc, #632]	; (8004b88 <HAL_RCC_OscConfig+0x4f4>)
 800490e:	6a5b      	ldr	r3, [r3, #36]	; 0x24
 8004910:	f003 0302 	and.w	r3, r3, #2
 8004914:	2b00      	cmp	r3, #0
 8004916:	d1e9      	bne.n	80048ec <HAL_RCC_OscConfig+0x258>
        }
      }
    }
  }
  /*------------------------------ LSE Configuration -------------------------*/
  if (((RCC_OscInitStruct->OscillatorType) & RCC_OSCILLATORTYPE_LSE) == RCC_OSCILLATORTYPE_LSE)
 8004918:	687b      	ldr	r3, [r7, #4]
 800491a:	681b      	ldr	r3, [r3, #0]
 800491c:	f003 0304 	and.w	r3, r3, #4
 8004920:	2b00      	cmp	r3, #0
 8004922:	f000 80a6 	beq.w	8004a72 <HAL_RCC_OscConfig+0x3de>
  {
    FlagStatus       pwrclkchanged = RESET;
 8004926:	2300      	movs	r3, #0
 8004928:	75fb      	strb	r3, [r7, #23]
    /* Check the parameters */
    assert_param(IS_RCC_LSE(RCC_OscInitStruct->LSEState));

    /* Update LSE configuration in Backup Domain control register    */
    /* Requires to enable write access to Backup Domain of necessary */
    if (__HAL_RCC_PWR_IS_CLK_DISABLED())
 800492a:	4b97      	ldr	r3, [pc, #604]	; (8004b88 <HAL_RCC_OscConfig+0x4f4>)
 800492c:	69db      	ldr	r3, [r3, #28]
 800492e:	f003 5380 	and.w	r3, r3, #268435456	; 0x10000000
 8004932:	2b00      	cmp	r3, #0
 8004934:	d10d      	bne.n	8004952 <HAL_RCC_OscConfig+0x2be>
    {
      __HAL_RCC_PWR_CLK_ENABLE();
 8004936:	4b94      	ldr	r3, [pc, #592]	; (8004b88 <HAL_RCC_OscConfig+0x4f4>)
 8004938:	69db      	ldr	r3, [r3, #28]
 800493a:	4a93      	ldr	r2, [pc, #588]	; (8004b88 <HAL_RCC_OscConfig+0x4f4>)
 800493c:	f043 5380 	orr.w	r3, r3, #268435456	; 0x10000000
 8004940:	61d3      	str	r3, [r2, #28]
 8004942:	4b91      	ldr	r3, [pc, #580]	; (8004b88 <HAL_RCC_OscConfig+0x4f4>)
 8004944:	69db      	ldr	r3, [r3, #28]
 8004946:	f003 5380 	and.w	r3, r3, #268435456	; 0x10000000
 800494a:	60bb      	str	r3, [r7, #8]
 800494c:	68bb      	ldr	r3, [r7, #8]
      pwrclkchanged = SET;
 800494e:	2301      	movs	r3, #1
 8004950:	75fb      	strb	r3, [r7, #23]
    }

    if (HAL_IS_BIT_CLR(PWR->CR, PWR_CR_DBP))
 8004952:	4b8e      	ldr	r3, [pc, #568]	; (8004b8c <HAL_RCC_OscConfig+0x4f8>)
 8004954:	681b      	ldr	r3, [r3, #0]
 8004956:	f403 7380 	and.w	r3, r3, #256	; 0x100
 800495a:	2b00      	cmp	r3, #0
 800495c:	d118      	bne.n	8004990 <HAL_RCC_OscConfig+0x2fc>
    {
      /* Enable write access to Backup domain */
      SET_BIT(PWR->CR, PWR_CR_DBP);
 800495e:	4b8b      	ldr	r3, [pc, #556]	; (8004b8c <HAL_RCC_OscConfig+0x4f8>)
 8004960:	681b      	ldr	r3, [r3, #0]
 8004962:	4a8a      	ldr	r2, [pc, #552]	; (8004b8c <HAL_RCC_OscConfig+0x4f8>)
 8004964:	f443 7380 	orr.w	r3, r3, #256	; 0x100
 8004968:	6013      	str	r3, [r2, #0]

      /* Wait for Backup domain Write protection disable */
      tickstart = HAL_GetTick();
 800496a:	f7ff f897 	bl	8003a9c <HAL_GetTick>
 800496e:	6138      	str	r0, [r7, #16]

      while (HAL_IS_BIT_CLR(PWR->CR, PWR_CR_DBP))
 8004970:	e008      	b.n	8004984 <HAL_RCC_OscConfig+0x2f0>
      {
        if ((HAL_GetTick() - tickstart) > RCC_DBP_TIMEOUT_VALUE)
 8004972:	f7ff f893 	bl	8003a9c <HAL_GetTick>
 8004976:	4602      	mov	r2, r0
 8004978:	693b      	ldr	r3, [r7, #16]
 800497a:	1ad3      	subs	r3, r2, r3
 800497c:	2b64      	cmp	r3, #100	; 0x64
 800497e:	d901      	bls.n	8004984 <HAL_RCC_OscConfig+0x2f0>
        {
          return HAL_TIMEOUT;
 8004980:	2303      	movs	r3, #3
 8004982:	e0fd      	b.n	8004b80 <HAL_RCC_OscConfig+0x4ec>
      while (HAL_IS_BIT_CLR(PWR->CR, PWR_CR_DBP))
 8004984:	4b81      	ldr	r3, [pc, #516]	; (8004b8c <HAL_RCC_OscConfig+0x4f8>)
 8004986:	681b      	ldr	r3, [r3, #0]
 8004988:	f403 7380 	and.w	r3, r3, #256	; 0x100
 800498c:	2b00      	cmp	r3, #0
 800498e:	d0f0      	beq.n	8004972 <HAL_RCC_OscConfig+0x2de>
        }
      }
    }

    /* Set the new LSE configuration -----------------------------------------*/
    __HAL_RCC_LSE_CONFIG(RCC_OscInitStruct->LSEState);
 8004990:	687b      	ldr	r3, [r7, #4]
 8004992:	68db      	ldr	r3, [r3, #12]
 8004994:	2b01      	cmp	r3, #1
 8004996:	d106      	bne.n	80049a6 <HAL_RCC_OscConfig+0x312>
 8004998:	4b7b      	ldr	r3, [pc, #492]	; (8004b88 <HAL_RCC_OscConfig+0x4f4>)
 800499a:	6a1b      	ldr	r3, [r3, #32]
 800499c:	4a7a      	ldr	r2, [pc, #488]	; (8004b88 <HAL_RCC_OscConfig+0x4f4>)
 800499e:	f043 0301 	orr.w	r3, r3, #1
 80049a2:	6213      	str	r3, [r2, #32]
 80049a4:	e02d      	b.n	8004a02 <HAL_RCC_OscConfig+0x36e>
 80049a6:	687b      	ldr	r3, [r7, #4]
 80049a8:	68db      	ldr	r3, [r3, #12]
 80049aa:	2b00      	cmp	r3, #0
 80049ac:	d10c      	bne.n	80049c8 <HAL_RCC_OscConfig+0x334>
 80049ae:	4b76      	ldr	r3, [pc, #472]	; (8004b88 <HAL_RCC_OscConfig+0x4f4>)
 80049b0:	6a1b      	ldr	r3, [r3, #32]
 80049b2:	4a75      	ldr	r2, [pc, #468]	; (8004b88 <HAL_RCC_OscConfig+0x4f4>)
 80049b4:	f023 0301 	bic.w	r3, r3, #1
 80049b8:	6213      	str	r3, [r2, #32]
 80049ba:	4b73      	ldr	r3, [pc, #460]	; (8004b88 <HAL_RCC_OscConfig+0x4f4>)
 80049bc:	6a1b      	ldr	r3, [r3, #32]
 80049be:	4a72      	ldr	r2, [pc, #456]	; (8004b88 <HAL_RCC_OscConfig+0x4f4>)
 80049c0:	f023 0304 	bic.w	r3, r3, #4
 80049c4:	6213      	str	r3, [r2, #32]
 80049c6:	e01c      	b.n	8004a02 <HAL_RCC_OscConfig+0x36e>
 80049c8:	687b      	ldr	r3, [r7, #4]
 80049ca:	68db      	ldr	r3, [r3, #12]
 80049cc:	2b05      	cmp	r3, #5
 80049ce:	d10c      	bne.n	80049ea <HAL_RCC_OscConfig+0x356>
 80049d0:	4b6d      	ldr	r3, [pc, #436]	; (8004b88 <HAL_RCC_OscConfig+0x4f4>)
 80049d2:	6a1b      	ldr	r3, [r3, #32]
 80049d4:	4a6c      	ldr	r2, [pc, #432]	; (8004b88 <HAL_RCC_OscConfig+0x4f4>)
 80049d6:	f043 0304 	orr.w	r3, r3, #4
 80049da:	6213      	str	r3, [r2, #32]
 80049dc:	4b6a      	ldr	r3, [pc, #424]	; (8004b88 <HAL_RCC_OscConfig+0x4f4>)
 80049de:	6a1b      	ldr	r3, [r3, #32]
 80049e0:	4a69      	ldr	r2, [pc, #420]	; (8004b88 <HAL_RCC_OscConfig+0x4f4>)
 80049e2:	f043 0301 	orr.w	r3, r3, #1
 80049e6:	6213      	str	r3, [r2, #32]
 80049e8:	e00b      	b.n	8004a02 <HAL_RCC_OscConfig+0x36e>
 80049ea:	4b67      	ldr	r3, [pc, #412]	; (8004b88 <HAL_RCC_OscConfig+0x4f4>)
 80049ec:	6a1b      	ldr	r3, [r3, #32]
 80049ee:	4a66      	ldr	r2, [pc, #408]	; (8004b88 <HAL_RCC_OscConfig+0x4f4>)
 80049f0:	f023 0301 	bic.w	r3, r3, #1
 80049f4:	6213      	str	r3, [r2, #32]
 80049f6:	4b64      	ldr	r3, [pc, #400]	; (8004b88 <HAL_RCC_OscConfig+0x4f4>)
 80049f8:	6a1b      	ldr	r3, [r3, #32]
 80049fa:	4a63      	ldr	r2, [pc, #396]	; (8004b88 <HAL_RCC_OscConfig+0x4f4>)
 80049fc:	f023 0304 	bic.w	r3, r3, #4
 8004a00:	6213      	str	r3, [r2, #32]
    /* Check the LSE State */
    if (RCC_OscInitStruct->LSEState != RCC_LSE_OFF)
 8004a02:	687b      	ldr	r3, [r7, #4]
 8004a04:	68db      	ldr	r3, [r3, #12]
 8004a06:	2b00      	cmp	r3, #0
 8004a08:	d015      	beq.n	8004a36 <HAL_RCC_OscConfig+0x3a2>
    {
      /* Get Start Tick */
      tickstart = HAL_GetTick();
 8004a0a:	f7ff f847 	bl	8003a9c <HAL_GetTick>
 8004a0e:	6138      	str	r0, [r7, #16]

      /* Wait till LSE is ready */
      while (__HAL_RCC_GET_FLAG(RCC_FLAG_LSERDY) == RESET)
 8004a10:	e00a      	b.n	8004a28 <HAL_RCC_OscConfig+0x394>
      {
        if ((HAL_GetTick() - tickstart) > RCC_LSE_TIMEOUT_VALUE)
 8004a12:	f7ff f843 	bl	8003a9c <HAL_GetTick>
 8004a16:	4602      	mov	r2, r0
 8004a18:	693b      	ldr	r3, [r7, #16]
 8004a1a:	1ad3      	subs	r3, r2, r3
 8004a1c:	f241 3288 	movw	r2, #5000	; 0x1388
 8004a20:	4293      	cmp	r3, r2
 8004a22:	d901      	bls.n	8004a28 <HAL_RCC_OscConfig+0x394>
        {
          return HAL_TIMEOUT;
 8004a24:	2303      	movs	r3, #3
 8004a26:	e0ab      	b.n	8004b80 <HAL_RCC_OscConfig+0x4ec>
      while (__HAL_RCC_GET_FLAG(RCC_FLAG_LSERDY) == RESET)
 8004a28:	4b57      	ldr	r3, [pc, #348]	; (8004b88 <HAL_RCC_OscConfig+0x4f4>)
 8004a2a:	6a1b      	ldr	r3, [r3, #32]
 8004a2c:	f003 0302 	and.w	r3, r3, #2
 8004a30:	2b00      	cmp	r3, #0
 8004a32:	d0ee      	beq.n	8004a12 <HAL_RCC_OscConfig+0x37e>
 8004a34:	e014      	b.n	8004a60 <HAL_RCC_OscConfig+0x3cc>
      }
    }
    else
    {
      /* Get Start Tick */
      tickstart = HAL_GetTick();
 8004a36:	f7ff f831 	bl	8003a9c <HAL_GetTick>
 8004a3a:	6138      	str	r0, [r7, #16]

      /* Wait till LSE is disabled */
      while (__HAL_RCC_GET_FLAG(RCC_FLAG_LSERDY) != RESET)
 8004a3c:	e00a      	b.n	8004a54 <HAL_RCC_OscConfig+0x3c0>
      {
        if ((HAL_GetTick() - tickstart) > RCC_LSE_TIMEOUT_VALUE)
 8004a3e:	f7ff f82d 	bl	8003a9c <HAL_GetTick>
 8004a42:	4602      	mov	r2, r0
 8004a44:	693b      	ldr	r3, [r7, #16]
 8004a46:	1ad3      	subs	r3, r2, r3
 8004a48:	f241 3288 	movw	r2, #5000	; 0x1388
 8004a4c:	4293      	cmp	r3, r2
 8004a4e:	d901      	bls.n	8004a54 <HAL_RCC_OscConfig+0x3c0>
        {
          return HAL_TIMEOUT;
 8004a50:	2303      	movs	r3, #3
 8004a52:	e095      	b.n	8004b80 <HAL_RCC_OscConfig+0x4ec>
      while (__HAL_RCC_GET_FLAG(RCC_FLAG_LSERDY) != RESET)
 8004a54:	4b4c      	ldr	r3, [pc, #304]	; (8004b88 <HAL_RCC_OscConfig+0x4f4>)
 8004a56:	6a1b      	ldr	r3, [r3, #32]
 8004a58:	f003 0302 	and.w	r3, r3, #2
 8004a5c:	2b00      	cmp	r3, #0
 8004a5e:	d1ee      	bne.n	8004a3e <HAL_RCC_OscConfig+0x3aa>
        }
      }
    }

    /* Require to disable power clock if necessary */
    if (pwrclkchanged == SET)
 8004a60:	7dfb      	ldrb	r3, [r7, #23]
 8004a62:	2b01      	cmp	r3, #1
 8004a64:	d105      	bne.n	8004a72 <HAL_RCC_OscConfig+0x3de>
    {
      __HAL_RCC_PWR_CLK_DISABLE();
 8004a66:	4b48      	ldr	r3, [pc, #288]	; (8004b88 <HAL_RCC_OscConfig+0x4f4>)
 8004a68:	69db      	ldr	r3, [r3, #28]
 8004a6a:	4a47      	ldr	r2, [pc, #284]	; (8004b88 <HAL_RCC_OscConfig+0x4f4>)
 8004a6c:	f023 5380 	bic.w	r3, r3, #268435456	; 0x10000000
 8004a70:	61d3      	str	r3, [r2, #28]

#endif /* RCC_CR_PLL2ON */
  /*-------------------------------- PLL Configuration -----------------------*/
  /* Check the parameters */
  assert_param(IS_RCC_PLL(RCC_OscInitStruct->PLL.PLLState));
  if ((RCC_OscInitStruct->PLL.PLLState) != RCC_PLL_NONE)
 8004a72:	687b      	ldr	r3, [r7, #4]
 8004a74:	69db      	ldr	r3, [r3, #28]
 8004a76:	2b00      	cmp	r3, #0
 8004a78:	f000 8081 	beq.w	8004b7e <HAL_RCC_OscConfig+0x4ea>
  {
    /* Check if the PLL is used as system clock or not */
    if (__HAL_RCC_GET_SYSCLK_SOURCE() != RCC_SYSCLKSOURCE_STATUS_PLLCLK)
 8004a7c:	4b42      	ldr	r3, [pc, #264]	; (8004b88 <HAL_RCC_OscConfig+0x4f4>)
 8004a7e:	685b      	ldr	r3, [r3, #4]
 8004a80:	f003 030c 	and.w	r3, r3, #12
 8004a84:	2b08      	cmp	r3, #8
 8004a86:	d061      	beq.n	8004b4c <HAL_RCC_OscConfig+0x4b8>
    {
      if ((RCC_OscInitStruct->PLL.PLLState) == RCC_PLL_ON)
 8004a88:	687b      	ldr	r3, [r7, #4]
 8004a8a:	69db      	ldr	r3, [r3, #28]
 8004a8c:	2b02      	cmp	r3, #2
 8004a8e:	d146      	bne.n	8004b1e <HAL_RCC_OscConfig+0x48a>
        /* Check the parameters */
        assert_param(IS_RCC_PLLSOURCE(RCC_OscInitStruct->PLL.PLLSource));
        assert_param(IS_RCC_PLL_MUL(RCC_OscInitStruct->PLL.PLLMUL));

        /* Disable the main PLL. */
        __HAL_RCC_PLL_DISABLE();
 8004a90:	4b3f      	ldr	r3, [pc, #252]	; (8004b90 <HAL_RCC_OscConfig+0x4fc>)
 8004a92:	2200      	movs	r2, #0
 8004a94:	601a      	str	r2, [r3, #0]

        /* Get Start Tick */
        tickstart = HAL_GetTick();
 8004a96:	f7ff f801 	bl	8003a9c <HAL_GetTick>
 8004a9a:	6138      	str	r0, [r7, #16]

        /* Wait till PLL is disabled */
        while (__HAL_RCC_GET_FLAG(RCC_FLAG_PLLRDY)  != RESET)
 8004a9c:	e008      	b.n	8004ab0 <HAL_RCC_OscConfig+0x41c>
        {
          if ((HAL_GetTick() - tickstart) > PLL_TIMEOUT_VALUE)
 8004a9e:	f7fe fffd 	bl	8003a9c <HAL_GetTick>
 8004aa2:	4602      	mov	r2, r0
 8004aa4:	693b      	ldr	r3, [r7, #16]
 8004aa6:	1ad3      	subs	r3, r2, r3
 8004aa8:	2b02      	cmp	r3, #2
 8004aaa:	d901      	bls.n	8004ab0 <HAL_RCC_OscConfig+0x41c>
          {
            return HAL_TIMEOUT;
 8004aac:	2303      	movs	r3, #3
 8004aae:	e067      	b.n	8004b80 <HAL_RCC_OscConfig+0x4ec>
        while (__HAL_RCC_GET_FLAG(RCC_FLAG_PLLRDY)  != RESET)
 8004ab0:	4b35      	ldr	r3, [pc, #212]	; (8004b88 <HAL_RCC_OscConfig+0x4f4>)
 8004ab2:	681b      	ldr	r3, [r3, #0]
 8004ab4:	f003 7300 	and.w	r3, r3, #33554432	; 0x2000000
 8004ab8:	2b00      	cmp	r3, #0
 8004aba:	d1f0      	bne.n	8004a9e <HAL_RCC_OscConfig+0x40a>
          }
        }

        /* Configure the HSE prediv factor --------------------------------*/
        /* It can be written only when the PLL is disabled. Not used in PLL source is different than HSE */
        if (RCC_OscInitStruct->PLL.PLLSource == RCC_PLLSOURCE_HSE)
 8004abc:	687b      	ldr	r3, [r7, #4]
 8004abe:	6a1b      	ldr	r3, [r3, #32]
 8004ac0:	f5b3 3f80 	cmp.w	r3, #65536	; 0x10000
 8004ac4:	d108      	bne.n	8004ad8 <HAL_RCC_OscConfig+0x444>
          /* Set PREDIV1 source */
          SET_BIT(RCC->CFGR2, RCC_OscInitStruct->Prediv1Source);
#endif /* RCC_CFGR2_PREDIV1SRC */

          /* Set PREDIV1 Value */
          __HAL_RCC_HSE_PREDIV_CONFIG(RCC_OscInitStruct->HSEPredivValue);
 8004ac6:	4b30      	ldr	r3, [pc, #192]	; (8004b88 <HAL_RCC_OscConfig+0x4f4>)
 8004ac8:	685b      	ldr	r3, [r3, #4]
 8004aca:	f423 3200 	bic.w	r2, r3, #131072	; 0x20000
 8004ace:	687b      	ldr	r3, [r7, #4]
 8004ad0:	689b      	ldr	r3, [r3, #8]
 8004ad2:	492d      	ldr	r1, [pc, #180]	; (8004b88 <HAL_RCC_OscConfig+0x4f4>)
 8004ad4:	4313      	orrs	r3, r2
 8004ad6:	604b      	str	r3, [r1, #4]
        }

        /* Configure the main PLL clock source and multiplication factors. */
        __HAL_RCC_PLL_CONFIG(RCC_OscInitStruct->PLL.PLLSource,
 8004ad8:	4b2b      	ldr	r3, [pc, #172]	; (8004b88 <HAL_RCC_OscConfig+0x4f4>)
 8004ada:	685b      	ldr	r3, [r3, #4]
 8004adc:	f423 1274 	bic.w	r2, r3, #3997696	; 0x3d0000
 8004ae0:	687b      	ldr	r3, [r7, #4]
 8004ae2:	6a19      	ldr	r1, [r3, #32]
 8004ae4:	687b      	ldr	r3, [r7, #4]
 8004ae6:	6a5b      	ldr	r3, [r3, #36]	; 0x24
 8004ae8:	430b      	orrs	r3, r1
 8004aea:	4927      	ldr	r1, [pc, #156]	; (8004b88 <HAL_RCC_OscConfig+0x4f4>)
 8004aec:	4313      	orrs	r3, r2
 8004aee:	604b      	str	r3, [r1, #4]
                             RCC_OscInitStruct->PLL.PLLMUL);
        /* Enable the main PLL. */
        __HAL_RCC_PLL_ENABLE();
 8004af0:	4b27      	ldr	r3, [pc, #156]	; (8004b90 <HAL_RCC_OscConfig+0x4fc>)
 8004af2:	2201      	movs	r2, #1
 8004af4:	601a      	str	r2, [r3, #0]

        /* Get Start Tick */
        tickstart = HAL_GetTick();
 8004af6:	f7fe ffd1 	bl	8003a9c <HAL_GetTick>
 8004afa:	6138      	str	r0, [r7, #16]

        /* Wait till PLL is ready */
        while (__HAL_RCC_GET_FLAG(RCC_FLAG_PLLRDY)  == RESET)
 8004afc:	e008      	b.n	8004b10 <HAL_RCC_OscConfig+0x47c>
        {
          if ((HAL_GetTick() - tickstart) > PLL_TIMEOUT_VALUE)
 8004afe:	f7fe ffcd 	bl	8003a9c <HAL_GetTick>
 8004b02:	4602      	mov	r2, r0
 8004b04:	693b      	ldr	r3, [r7, #16]
 8004b06:	1ad3      	subs	r3, r2, r3
 8004b08:	2b02      	cmp	r3, #2
 8004b0a:	d901      	bls.n	8004b10 <HAL_RCC_OscConfig+0x47c>
          {
            return HAL_TIMEOUT;
 8004b0c:	2303      	movs	r3, #3
 8004b0e:	e037      	b.n	8004b80 <HAL_RCC_OscConfig+0x4ec>
        while (__HAL_RCC_GET_FLAG(RCC_FLAG_PLLRDY)  == RESET)
 8004b10:	4b1d      	ldr	r3, [pc, #116]	; (8004b88 <HAL_RCC_OscConfig+0x4f4>)
 8004b12:	681b      	ldr	r3, [r3, #0]
 8004b14:	f003 7300 	and.w	r3, r3, #33554432	; 0x2000000
 8004b18:	2b00      	cmp	r3, #0
 8004b1a:	d0f0      	beq.n	8004afe <HAL_RCC_OscConfig+0x46a>
 8004b1c:	e02f      	b.n	8004b7e <HAL_RCC_OscConfig+0x4ea>
        }
      }
      else
      {
        /* Disable the main PLL. */
        __HAL_RCC_PLL_DISABLE();
 8004b1e:	4b1c      	ldr	r3, [pc, #112]	; (8004b90 <HAL_RCC_OscConfig+0x4fc>)
 8004b20:	2200      	movs	r2, #0
 8004b22:	601a      	str	r2, [r3, #0]

        /* Get Start Tick */
        tickstart = HAL_GetTick();
 8004b24:	f7fe ffba 	bl	8003a9c <HAL_GetTick>
 8004b28:	6138      	str	r0, [r7, #16]

        /* Wait till PLL is disabled */
        while (__HAL_RCC_GET_FLAG(RCC_FLAG_PLLRDY)  != RESET)
 8004b2a:	e008      	b.n	8004b3e <HAL_RCC_OscConfig+0x4aa>
        {
          if ((HAL_GetTick() - tickstart) > PLL_TIMEOUT_VALUE)
 8004b2c:	f7fe ffb6 	bl	8003a9c <HAL_GetTick>
 8004b30:	4602      	mov	r2, r0
 8004b32:	693b      	ldr	r3, [r7, #16]
 8004b34:	1ad3      	subs	r3, r2, r3
 8004b36:	2b02      	cmp	r3, #2
 8004b38:	d901      	bls.n	8004b3e <HAL_RCC_OscConfig+0x4aa>
          {
            return HAL_TIMEOUT;
 8004b3a:	2303      	movs	r3, #3
 8004b3c:	e020      	b.n	8004b80 <HAL_RCC_OscConfig+0x4ec>
        while (__HAL_RCC_GET_FLAG(RCC_FLAG_PLLRDY)  != RESET)
 8004b3e:	4b12      	ldr	r3, [pc, #72]	; (8004b88 <HAL_RCC_OscConfig+0x4f4>)
 8004b40:	681b      	ldr	r3, [r3, #0]
 8004b42:	f003 7300 	and.w	r3, r3, #33554432	; 0x2000000
 8004b46:	2b00      	cmp	r3, #0
 8004b48:	d1f0      	bne.n	8004b2c <HAL_RCC_OscConfig+0x498>
 8004b4a:	e018      	b.n	8004b7e <HAL_RCC_OscConfig+0x4ea>
      }
    }
    else
    {
      /* Check if there is a request to disable the PLL used as System clock source */
      if ((RCC_OscInitStruct->PLL.PLLState) == RCC_PLL_OFF)
 8004b4c:	687b      	ldr	r3, [r7, #4]
 8004b4e:	69db      	ldr	r3, [r3, #28]
 8004b50:	2b01      	cmp	r3, #1
 8004b52:	d101      	bne.n	8004b58 <HAL_RCC_OscConfig+0x4c4>
      {
        return HAL_ERROR;
 8004b54:	2301      	movs	r3, #1
 8004b56:	e013      	b.n	8004b80 <HAL_RCC_OscConfig+0x4ec>
      }
      else
      {
        /* Do not return HAL_ERROR if request repeats the current configuration */
        pll_config = RCC->CFGR;
 8004b58:	4b0b      	ldr	r3, [pc, #44]	; (8004b88 <HAL_RCC_OscConfig+0x4f4>)
 8004b5a:	685b      	ldr	r3, [r3, #4]
 8004b5c:	60fb      	str	r3, [r7, #12]
        if ((READ_BIT(pll_config, RCC_CFGR_PLLSRC) != RCC_OscInitStruct->PLL.PLLSource) ||
 8004b5e:	68fb      	ldr	r3, [r7, #12]
 8004b60:	f403 3280 	and.w	r2, r3, #65536	; 0x10000
 8004b64:	687b      	ldr	r3, [r7, #4]
 8004b66:	6a1b      	ldr	r3, [r3, #32]
 8004b68:	429a      	cmp	r2, r3
 8004b6a:	d106      	bne.n	8004b7a <HAL_RCC_OscConfig+0x4e6>
            (READ_BIT(pll_config, RCC_CFGR_PLLMULL) != RCC_OscInitStruct->PLL.PLLMUL))
 8004b6c:	68fb      	ldr	r3, [r7, #12]
 8004b6e:	f403 1270 	and.w	r2, r3, #3932160	; 0x3c0000
 8004b72:	687b      	ldr	r3, [r7, #4]
 8004b74:	6a5b      	ldr	r3, [r3, #36]	; 0x24
        if ((READ_BIT(pll_config, RCC_CFGR_PLLSRC) != RCC_OscInitStruct->PLL.PLLSource) ||
 8004b76:	429a      	cmp	r2, r3
 8004b78:	d001      	beq.n	8004b7e <HAL_RCC_OscConfig+0x4ea>
        {
          return HAL_ERROR;
 8004b7a:	2301      	movs	r3, #1
 8004b7c:	e000      	b.n	8004b80 <HAL_RCC_OscConfig+0x4ec>
        }
      }
    }
  }

  return HAL_OK;
 8004b7e:	2300      	movs	r3, #0
}
 8004b80:	4618      	mov	r0, r3
 8004b82:	3718      	adds	r7, #24
 8004b84:	46bd      	mov	sp, r7
 8004b86:	bd80      	pop	{r7, pc}
 8004b88:	40021000 	.word	0x40021000
 8004b8c:	40007000 	.word	0x40007000
 8004b90:	42420060 	.word	0x42420060

08004b94 <HAL_RCC_ClockConfig>:
  *         You can use @ref HAL_RCC_GetClockConfig() function to know which clock is
  *         currently used as system clock source.
  * @retval HAL status
  */
HAL_StatusTypeDef HAL_RCC_ClockConfig(RCC_ClkInitTypeDef  *RCC_ClkInitStruct, uint32_t FLatency)
{
 8004b94:	b580      	push	{r7, lr}
 8004b96:	b084      	sub	sp, #16
 8004b98:	af00      	add	r7, sp, #0
 8004b9a:	6078      	str	r0, [r7, #4]
 8004b9c:	6039      	str	r1, [r7, #0]
  uint32_t tickstart;

  /* Check Null pointer */
  if (RCC_ClkInitStruct == NULL)
 8004b9e:	687b      	ldr	r3, [r7, #4]
 8004ba0:	2b00      	cmp	r3, #0
 8004ba2:	d101      	bne.n	8004ba8 <HAL_RCC_ClockConfig+0x14>
  {
    return HAL_ERROR;
 8004ba4:	2301      	movs	r3, #1
 8004ba6:	e0d0      	b.n	8004d4a <HAL_RCC_ClockConfig+0x1b6>
  must be correctly programmed according to the frequency of the CPU clock
    (HCLK) of the device. */

#if defined(FLASH_ACR_LATENCY)
  /* Increasing the number of wait states because of higher CPU frequency */
  if (FLatency > __HAL_FLASH_GET_LATENCY())
 8004ba8:	4b6a      	ldr	r3, [pc, #424]	; (8004d54 <HAL_RCC_ClockConfig+0x1c0>)
 8004baa:	681b      	ldr	r3, [r3, #0]
 8004bac:	f003 0307 	and.w	r3, r3, #7
 8004bb0:	683a      	ldr	r2, [r7, #0]
 8004bb2:	429a      	cmp	r2, r3
 8004bb4:	d910      	bls.n	8004bd8 <HAL_RCC_ClockConfig+0x44>
  {
    /* Program the new number of wait states to the LATENCY bits in the FLASH_ACR register */
    __HAL_FLASH_SET_LATENCY(FLatency);
 8004bb6:	4b67      	ldr	r3, [pc, #412]	; (8004d54 <HAL_RCC_ClockConfig+0x1c0>)
 8004bb8:	681b      	ldr	r3, [r3, #0]
 8004bba:	f023 0207 	bic.w	r2, r3, #7
 8004bbe:	4965      	ldr	r1, [pc, #404]	; (8004d54 <HAL_RCC_ClockConfig+0x1c0>)
 8004bc0:	683b      	ldr	r3, [r7, #0]
 8004bc2:	4313      	orrs	r3, r2
 8004bc4:	600b      	str	r3, [r1, #0]

    /* Check that the new number of wait states is taken into account to access the Flash
    memory by reading the FLASH_ACR register */
    if (__HAL_FLASH_GET_LATENCY() != FLatency)
 8004bc6:	4b63      	ldr	r3, [pc, #396]	; (8004d54 <HAL_RCC_ClockConfig+0x1c0>)
 8004bc8:	681b      	ldr	r3, [r3, #0]
 8004bca:	f003 0307 	and.w	r3, r3, #7
 8004bce:	683a      	ldr	r2, [r7, #0]
 8004bd0:	429a      	cmp	r2, r3
 8004bd2:	d001      	beq.n	8004bd8 <HAL_RCC_ClockConfig+0x44>
  {
    return HAL_ERROR;
 8004bd4:	2301      	movs	r3, #1
 8004bd6:	e0b8      	b.n	8004d4a <HAL_RCC_ClockConfig+0x1b6>
  }
}

#endif /* FLASH_ACR_LATENCY */
/*-------------------------- HCLK Configuration --------------------------*/
if (((RCC_ClkInitStruct->ClockType) & RCC_CLOCKTYPE_HCLK) == RCC_CLOCKTYPE_HCLK)
 8004bd8:	687b      	ldr	r3, [r7, #4]
 8004bda:	681b      	ldr	r3, [r3, #0]
 8004bdc:	f003 0302 	and.w	r3, r3, #2
 8004be0:	2b00      	cmp	r3, #0
 8004be2:	d020      	beq.n	8004c26 <HAL_RCC_ClockConfig+0x92>
  {
    /* Set the highest APBx dividers in order to ensure that we do not go through
    a non-spec phase whatever we decrease or increase HCLK. */
    if (((RCC_ClkInitStruct->ClockType) & RCC_CLOCKTYPE_PCLK1) == RCC_CLOCKTYPE_PCLK1)
 8004be4:	687b      	ldr	r3, [r7, #4]
 8004be6:	681b      	ldr	r3, [r3, #0]
 8004be8:	f003 0304 	and.w	r3, r3, #4
 8004bec:	2b00      	cmp	r3, #0
 8004bee:	d005      	beq.n	8004bfc <HAL_RCC_ClockConfig+0x68>
    {
      MODIFY_REG(RCC->CFGR, RCC_CFGR_PPRE1, RCC_HCLK_DIV16);
 8004bf0:	4b59      	ldr	r3, [pc, #356]	; (8004d58 <HAL_RCC_ClockConfig+0x1c4>)
 8004bf2:	685b      	ldr	r3, [r3, #4]
 8004bf4:	4a58      	ldr	r2, [pc, #352]	; (8004d58 <HAL_RCC_ClockConfig+0x1c4>)
 8004bf6:	f443 63e0 	orr.w	r3, r3, #1792	; 0x700
 8004bfa:	6053      	str	r3, [r2, #4]
    }

    if (((RCC_ClkInitStruct->ClockType) & RCC_CLOCKTYPE_PCLK2) == RCC_CLOCKTYPE_PCLK2)
 8004bfc:	687b      	ldr	r3, [r7, #4]
 8004bfe:	681b      	ldr	r3, [r3, #0]
 8004c00:	f003 0308 	and.w	r3, r3, #8
 8004c04:	2b00      	cmp	r3, #0
 8004c06:	d005      	beq.n	8004c14 <HAL_RCC_ClockConfig+0x80>
    {
      MODIFY_REG(RCC->CFGR, RCC_CFGR_PPRE2, (RCC_HCLK_DIV16 << 3));
 8004c08:	4b53      	ldr	r3, [pc, #332]	; (8004d58 <HAL_RCC_ClockConfig+0x1c4>)
 8004c0a:	685b      	ldr	r3, [r3, #4]
 8004c0c:	4a52      	ldr	r2, [pc, #328]	; (8004d58 <HAL_RCC_ClockConfig+0x1c4>)
 8004c0e:	f443 5360 	orr.w	r3, r3, #14336	; 0x3800
 8004c12:	6053      	str	r3, [r2, #4]
    }

    /* Set the new HCLK clock divider */
    assert_param(IS_RCC_HCLK(RCC_ClkInitStruct->AHBCLKDivider));
    MODIFY_REG(RCC->CFGR, RCC_CFGR_HPRE, RCC_ClkInitStruct->AHBCLKDivider);
 8004c14:	4b50      	ldr	r3, [pc, #320]	; (8004d58 <HAL_RCC_ClockConfig+0x1c4>)
 8004c16:	685b      	ldr	r3, [r3, #4]
 8004c18:	f023 02f0 	bic.w	r2, r3, #240	; 0xf0
 8004c1c:	687b      	ldr	r3, [r7, #4]
 8004c1e:	689b      	ldr	r3, [r3, #8]
 8004c20:	494d      	ldr	r1, [pc, #308]	; (8004d58 <HAL_RCC_ClockConfig+0x1c4>)
 8004c22:	4313      	orrs	r3, r2
 8004c24:	604b      	str	r3, [r1, #4]
  }

  /*------------------------- SYSCLK Configuration ---------------------------*/
  if (((RCC_ClkInitStruct->ClockType) & RCC_CLOCKTYPE_SYSCLK) == RCC_CLOCKTYPE_SYSCLK)
 8004c26:	687b      	ldr	r3, [r7, #4]
 8004c28:	681b      	ldr	r3, [r3, #0]
 8004c2a:	f003 0301 	and.w	r3, r3, #1
 8004c2e:	2b00      	cmp	r3, #0
 8004c30:	d040      	beq.n	8004cb4 <HAL_RCC_ClockConfig+0x120>
  {
    assert_param(IS_RCC_SYSCLKSOURCE(RCC_ClkInitStruct->SYSCLKSource));

    /* HSE is selected as System Clock Source */
    if (RCC_ClkInitStruct->SYSCLKSource == RCC_SYSCLKSOURCE_HSE)
 8004c32:	687b      	ldr	r3, [r7, #4]
 8004c34:	685b      	ldr	r3, [r3, #4]
 8004c36:	2b01      	cmp	r3, #1
 8004c38:	d107      	bne.n	8004c4a <HAL_RCC_ClockConfig+0xb6>
    {
      /* Check the HSE ready flag */
      if (__HAL_RCC_GET_FLAG(RCC_FLAG_HSERDY) == RESET)
 8004c3a:	4b47      	ldr	r3, [pc, #284]	; (8004d58 <HAL_RCC_ClockConfig+0x1c4>)
 8004c3c:	681b      	ldr	r3, [r3, #0]
 8004c3e:	f403 3300 	and.w	r3, r3, #131072	; 0x20000
 8004c42:	2b00      	cmp	r3, #0
 8004c44:	d115      	bne.n	8004c72 <HAL_RCC_ClockConfig+0xde>
      {
        return HAL_ERROR;
 8004c46:	2301      	movs	r3, #1
 8004c48:	e07f      	b.n	8004d4a <HAL_RCC_ClockConfig+0x1b6>
      }
    }
    /* PLL is selected as System Clock Source */
    else if (RCC_ClkInitStruct->SYSCLKSource == RCC_SYSCLKSOURCE_PLLCLK)
 8004c4a:	687b      	ldr	r3, [r7, #4]
 8004c4c:	685b      	ldr	r3, [r3, #4]
 8004c4e:	2b02      	cmp	r3, #2
 8004c50:	d107      	bne.n	8004c62 <HAL_RCC_ClockConfig+0xce>
    {
      /* Check the PLL ready flag */
      if (__HAL_RCC_GET_FLAG(RCC_FLAG_PLLRDY) == RESET)
 8004c52:	4b41      	ldr	r3, [pc, #260]	; (8004d58 <HAL_RCC_ClockConfig+0x1c4>)
 8004c54:	681b      	ldr	r3, [r3, #0]
 8004c56:	f003 7300 	and.w	r3, r3, #33554432	; 0x2000000
 8004c5a:	2b00      	cmp	r3, #0
 8004c5c:	d109      	bne.n	8004c72 <HAL_RCC_ClockConfig+0xde>
      {
        return HAL_ERROR;
 8004c5e:	2301      	movs	r3, #1
 8004c60:	e073      	b.n	8004d4a <HAL_RCC_ClockConfig+0x1b6>
    }
    /* HSI is selected as System Clock Source */
    else
    {
      /* Check the HSI ready flag */
      if (__HAL_RCC_GET_FLAG(RCC_FLAG_HSIRDY) == RESET)
 8004c62:	4b3d      	ldr	r3, [pc, #244]	; (8004d58 <HAL_RCC_ClockConfig+0x1c4>)
 8004c64:	681b      	ldr	r3, [r3, #0]
 8004c66:	f003 0302 	and.w	r3, r3, #2
 8004c6a:	2b00      	cmp	r3, #0
 8004c6c:	d101      	bne.n	8004c72 <HAL_RCC_ClockConfig+0xde>
      {
        return HAL_ERROR;
 8004c6e:	2301      	movs	r3, #1
 8004c70:	e06b      	b.n	8004d4a <HAL_RCC_ClockConfig+0x1b6>
      }
    }
    __HAL_RCC_SYSCLK_CONFIG(RCC_ClkInitStruct->SYSCLKSource);
 8004c72:	4b39      	ldr	r3, [pc, #228]	; (8004d58 <HAL_RCC_ClockConfig+0x1c4>)
 8004c74:	685b      	ldr	r3, [r3, #4]
 8004c76:	f023 0203 	bic.w	r2, r3, #3
 8004c7a:	687b      	ldr	r3, [r7, #4]
 8004c7c:	685b      	ldr	r3, [r3, #4]
 8004c7e:	4936      	ldr	r1, [pc, #216]	; (8004d58 <HAL_RCC_ClockConfig+0x1c4>)
 8004c80:	4313      	orrs	r3, r2
 8004c82:	604b      	str	r3, [r1, #4]

    /* Get Start Tick */
    tickstart = HAL_GetTick();
 8004c84:	f7fe ff0a 	bl	8003a9c <HAL_GetTick>
 8004c88:	60f8      	str	r0, [r7, #12]

    while (__HAL_RCC_GET_SYSCLK_SOURCE() != (RCC_ClkInitStruct->SYSCLKSource << RCC_CFGR_SWS_Pos))
 8004c8a:	e00a      	b.n	8004ca2 <HAL_RCC_ClockConfig+0x10e>
    {
      if ((HAL_GetTick() - tickstart) > CLOCKSWITCH_TIMEOUT_VALUE)
 8004c8c:	f7fe ff06 	bl	8003a9c <HAL_GetTick>
 8004c90:	4602      	mov	r2, r0
 8004c92:	68fb      	ldr	r3, [r7, #12]
 8004c94:	1ad3      	subs	r3, r2, r3
 8004c96:	f241 3288 	movw	r2, #5000	; 0x1388
 8004c9a:	4293      	cmp	r3, r2
 8004c9c:	d901      	bls.n	8004ca2 <HAL_RCC_ClockConfig+0x10e>
      {
        return HAL_TIMEOUT;
 8004c9e:	2303      	movs	r3, #3
 8004ca0:	e053      	b.n	8004d4a <HAL_RCC_ClockConfig+0x1b6>
    while (__HAL_RCC_GET_SYSCLK_SOURCE() != (RCC_ClkInitStruct->SYSCLKSource << RCC_CFGR_SWS_Pos))
 8004ca2:	4b2d      	ldr	r3, [pc, #180]	; (8004d58 <HAL_RCC_ClockConfig+0x1c4>)
 8004ca4:	685b      	ldr	r3, [r3, #4]
 8004ca6:	f003 020c 	and.w	r2, r3, #12
 8004caa:	687b      	ldr	r3, [r7, #4]
 8004cac:	685b      	ldr	r3, [r3, #4]
 8004cae:	009b      	lsls	r3, r3, #2
 8004cb0:	429a      	cmp	r2, r3
 8004cb2:	d1eb      	bne.n	8004c8c <HAL_RCC_ClockConfig+0xf8>
    }
  }

#if defined(FLASH_ACR_LATENCY)
  /* Decreasing the number of wait states because of lower CPU frequency */
  if (FLatency < __HAL_FLASH_GET_LATENCY())
 8004cb4:	4b27      	ldr	r3, [pc, #156]	; (8004d54 <HAL_RCC_ClockConfig+0x1c0>)
 8004cb6:	681b      	ldr	r3, [r3, #0]
 8004cb8:	f003 0307 	and.w	r3, r3, #7
 8004cbc:	683a      	ldr	r2, [r7, #0]
 8004cbe:	429a      	cmp	r2, r3
 8004cc0:	d210      	bcs.n	8004ce4 <HAL_RCC_ClockConfig+0x150>
  {
    /* Program the new number of wait states to the LATENCY bits in the FLASH_ACR register */
    __HAL_FLASH_SET_LATENCY(FLatency);
 8004cc2:	4b24      	ldr	r3, [pc, #144]	; (8004d54 <HAL_RCC_ClockConfig+0x1c0>)
 8004cc4:	681b      	ldr	r3, [r3, #0]
 8004cc6:	f023 0207 	bic.w	r2, r3, #7
 8004cca:	4922      	ldr	r1, [pc, #136]	; (8004d54 <HAL_RCC_ClockConfig+0x1c0>)
 8004ccc:	683b      	ldr	r3, [r7, #0]
 8004cce:	4313      	orrs	r3, r2
 8004cd0:	600b      	str	r3, [r1, #0]

    /* Check that the new number of wait states is taken into account to access the Flash
    memory by reading the FLASH_ACR register */
    if (__HAL_FLASH_GET_LATENCY() != FLatency)
 8004cd2:	4b20      	ldr	r3, [pc, #128]	; (8004d54 <HAL_RCC_ClockConfig+0x1c0>)
 8004cd4:	681b      	ldr	r3, [r3, #0]
 8004cd6:	f003 0307 	and.w	r3, r3, #7
 8004cda:	683a      	ldr	r2, [r7, #0]
 8004cdc:	429a      	cmp	r2, r3
 8004cde:	d001      	beq.n	8004ce4 <HAL_RCC_ClockConfig+0x150>
  {
    return HAL_ERROR;
 8004ce0:	2301      	movs	r3, #1
 8004ce2:	e032      	b.n	8004d4a <HAL_RCC_ClockConfig+0x1b6>
  }
}
#endif /* FLASH_ACR_LATENCY */

/*-------------------------- PCLK1 Configuration ---------------------------*/
if (((RCC_ClkInitStruct->ClockType) & RCC_CLOCKTYPE_PCLK1) == RCC_CLOCKTYPE_PCLK1)
 8004ce4:	687b      	ldr	r3, [r7, #4]
 8004ce6:	681b      	ldr	r3, [r3, #0]
 8004ce8:	f003 0304 	and.w	r3, r3, #4
 8004cec:	2b00      	cmp	r3, #0
 8004cee:	d008      	beq.n	8004d02 <HAL_RCC_ClockConfig+0x16e>
  {
    assert_param(IS_RCC_PCLK(RCC_ClkInitStruct->APB1CLKDivider));
    MODIFY_REG(RCC->CFGR, RCC_CFGR_PPRE1, RCC_ClkInitStruct->APB1CLKDivider);
 8004cf0:	4b19      	ldr	r3, [pc, #100]	; (8004d58 <HAL_RCC_ClockConfig+0x1c4>)
 8004cf2:	685b      	ldr	r3, [r3, #4]
 8004cf4:	f423 62e0 	bic.w	r2, r3, #1792	; 0x700
 8004cf8:	687b      	ldr	r3, [r7, #4]
 8004cfa:	68db      	ldr	r3, [r3, #12]
 8004cfc:	4916      	ldr	r1, [pc, #88]	; (8004d58 <HAL_RCC_ClockConfig+0x1c4>)
 8004cfe:	4313      	orrs	r3, r2
 8004d00:	604b      	str	r3, [r1, #4]
  }

  /*-------------------------- PCLK2 Configuration ---------------------------*/
  if (((RCC_ClkInitStruct->ClockType) & RCC_CLOCKTYPE_PCLK2) == RCC_CLOCKTYPE_PCLK2)
 8004d02:	687b      	ldr	r3, [r7, #4]
 8004d04:	681b      	ldr	r3, [r3, #0]
 8004d06:	f003 0308 	and.w	r3, r3, #8
 8004d0a:	2b00      	cmp	r3, #0
 8004d0c:	d009      	beq.n	8004d22 <HAL_RCC_ClockConfig+0x18e>
  {
    assert_param(IS_RCC_PCLK(RCC_ClkInitStruct->APB2CLKDivider));
    MODIFY_REG(RCC->CFGR, RCC_CFGR_PPRE2, ((RCC_ClkInitStruct->APB2CLKDivider) << 3));
 8004d0e:	4b12      	ldr	r3, [pc, #72]	; (8004d58 <HAL_RCC_ClockConfig+0x1c4>)
 8004d10:	685b      	ldr	r3, [r3, #4]
 8004d12:	f423 5260 	bic.w	r2, r3, #14336	; 0x3800
 8004d16:	687b      	ldr	r3, [r7, #4]
 8004d18:	691b      	ldr	r3, [r3, #16]
 8004d1a:	00db      	lsls	r3, r3, #3
 8004d1c:	490e      	ldr	r1, [pc, #56]	; (8004d58 <HAL_RCC_ClockConfig+0x1c4>)
 8004d1e:	4313      	orrs	r3, r2
 8004d20:	604b      	str	r3, [r1, #4]
  }

  /* Update the SystemCoreClock global variable */
  SystemCoreClock = HAL_RCC_GetSysClockFreq() >> AHBPrescTable[(RCC->CFGR & RCC_CFGR_HPRE) >> RCC_CFGR_HPRE_Pos];
 8004d22:	f000 f821 	bl	8004d68 <HAL_RCC_GetSysClockFreq>
 8004d26:	4602      	mov	r2, r0
 8004d28:	4b0b      	ldr	r3, [pc, #44]	; (8004d58 <HAL_RCC_ClockConfig+0x1c4>)
 8004d2a:	685b      	ldr	r3, [r3, #4]
 8004d2c:	091b      	lsrs	r3, r3, #4
 8004d2e:	f003 030f 	and.w	r3, r3, #15
 8004d32:	490a      	ldr	r1, [pc, #40]	; (8004d5c <HAL_RCC_ClockConfig+0x1c8>)
 8004d34:	5ccb      	ldrb	r3, [r1, r3]
 8004d36:	fa22 f303 	lsr.w	r3, r2, r3
 8004d3a:	4a09      	ldr	r2, [pc, #36]	; (8004d60 <HAL_RCC_ClockConfig+0x1cc>)
 8004d3c:	6013      	str	r3, [r2, #0]

  /* Configure the source of time base considering new system clocks settings*/
  HAL_InitTick(uwTickPrio);
 8004d3e:	4b09      	ldr	r3, [pc, #36]	; (8004d64 <HAL_RCC_ClockConfig+0x1d0>)
 8004d40:	681b      	ldr	r3, [r3, #0]
 8004d42:	4618      	mov	r0, r3
 8004d44:	f7fe fe68 	bl	8003a18 <HAL_InitTick>

  return HAL_OK;
 8004d48:	2300      	movs	r3, #0
}
 8004d4a:	4618      	mov	r0, r3
 8004d4c:	3710      	adds	r7, #16
 8004d4e:	46bd      	mov	sp, r7
 8004d50:	bd80      	pop	{r7, pc}
 8004d52:	bf00      	nop
 8004d54:	40022000 	.word	0x40022000
 8004d58:	40021000 	.word	0x40021000
 8004d5c:	08009404 	.word	0x08009404
 8004d60:	20000000 	.word	0x20000000
 8004d64:	20000004 	.word	0x20000004

08004d68 <HAL_RCC_GetSysClockFreq>:
  *         right SYSCLK value. Otherwise, any configuration based on this function will be incorrect.
  *
  * @retval SYSCLK frequency
  */
uint32_t HAL_RCC_GetSysClockFreq(void)
{
 8004d68:	b490      	push	{r4, r7}
 8004d6a:	b08a      	sub	sp, #40	; 0x28
 8004d6c:	af00      	add	r7, sp, #0
#if defined(RCC_CFGR2_PREDIV1SRC)
  const uint8_t aPLLMULFactorTable[14] = {0, 0, 4, 5, 6, 7, 8, 9, 0, 0, 0, 0, 0, 13};
  const uint8_t aPredivFactorTable[16] = {1, 2, 3, 4, 5, 6, 7, 8, 9, 10, 11, 12, 13, 14, 15, 16};
#else
  const uint8_t aPLLMULFactorTable[16] = {2, 3, 4, 5, 6, 7, 8, 9, 10, 11, 12, 13, 14, 15, 16, 16};
 8004d6e:	4b2a      	ldr	r3, [pc, #168]	; (8004e18 <HAL_RCC_GetSysClockFreq+0xb0>)
 8004d70:	1d3c      	adds	r4, r7, #4
 8004d72:	cb0f      	ldmia	r3, {r0, r1, r2, r3}
 8004d74:	e884 000f 	stmia.w	r4, {r0, r1, r2, r3}
#if defined(RCC_CFGR2_PREDIV1)
  const uint8_t aPredivFactorTable[16] = {1, 2, 3, 4, 5, 6, 7, 8, 9, 10, 11, 12, 13, 14, 15, 16};
#else
  const uint8_t aPredivFactorTable[2] = {1, 2};
 8004d78:	f240 2301 	movw	r3, #513	; 0x201
 8004d7c:	803b      	strh	r3, [r7, #0]
#endif /*RCC_CFGR2_PREDIV1*/

#endif
  uint32_t tmpreg = 0U, prediv = 0U, pllclk = 0U, pllmul = 0U;
 8004d7e:	2300      	movs	r3, #0
 8004d80:	61fb      	str	r3, [r7, #28]
 8004d82:	2300      	movs	r3, #0
 8004d84:	61bb      	str	r3, [r7, #24]
 8004d86:	2300      	movs	r3, #0
 8004d88:	627b      	str	r3, [r7, #36]	; 0x24
 8004d8a:	2300      	movs	r3, #0
 8004d8c:	617b      	str	r3, [r7, #20]
  uint32_t sysclockfreq = 0U;
 8004d8e:	2300      	movs	r3, #0
 8004d90:	623b      	str	r3, [r7, #32]
#if defined(RCC_CFGR2_PREDIV1SRC)
  uint32_t prediv2 = 0U, pll2mul = 0U;
#endif /*RCC_CFGR2_PREDIV1SRC*/

  tmpreg = RCC->CFGR;
 8004d92:	4b22      	ldr	r3, [pc, #136]	; (8004e1c <HAL_RCC_GetSysClockFreq+0xb4>)
 8004d94:	685b      	ldr	r3, [r3, #4]
 8004d96:	61fb      	str	r3, [r7, #28]

  /* Get SYSCLK source -------------------------------------------------------*/
  switch (tmpreg & RCC_CFGR_SWS)
 8004d98:	69fb      	ldr	r3, [r7, #28]
 8004d9a:	f003 030c 	and.w	r3, r3, #12
 8004d9e:	2b04      	cmp	r3, #4
 8004da0:	d002      	beq.n	8004da8 <HAL_RCC_GetSysClockFreq+0x40>
 8004da2:	2b08      	cmp	r3, #8
 8004da4:	d003      	beq.n	8004dae <HAL_RCC_GetSysClockFreq+0x46>
 8004da6:	e02d      	b.n	8004e04 <HAL_RCC_GetSysClockFreq+0x9c>
  {
    case RCC_SYSCLKSOURCE_STATUS_HSE:  /* HSE used as system clock */
    {
      sysclockfreq = HSE_VALUE;
 8004da8:	4b1d      	ldr	r3, [pc, #116]	; (8004e20 <HAL_RCC_GetSysClockFreq+0xb8>)
 8004daa:	623b      	str	r3, [r7, #32]
      break;
 8004dac:	e02d      	b.n	8004e0a <HAL_RCC_GetSysClockFreq+0xa2>
    }
    case RCC_SYSCLKSOURCE_STATUS_PLLCLK:  /* PLL used as system clock */
    {
      pllmul = aPLLMULFactorTable[(uint32_t)(tmpreg & RCC_CFGR_PLLMULL) >> RCC_CFGR_PLLMULL_Pos];
 8004dae:	69fb      	ldr	r3, [r7, #28]
 8004db0:	0c9b      	lsrs	r3, r3, #18
 8004db2:	f003 030f 	and.w	r3, r3, #15
 8004db6:	f107 0228 	add.w	r2, r7, #40	; 0x28
 8004dba:	4413      	add	r3, r2
 8004dbc:	f813 3c24 	ldrb.w	r3, [r3, #-36]
 8004dc0:	617b      	str	r3, [r7, #20]
      if ((tmpreg & RCC_CFGR_PLLSRC) != RCC_PLLSOURCE_HSI_DIV2)
 8004dc2:	69fb      	ldr	r3, [r7, #28]
 8004dc4:	f403 3380 	and.w	r3, r3, #65536	; 0x10000
 8004dc8:	2b00      	cmp	r3, #0
 8004dca:	d013      	beq.n	8004df4 <HAL_RCC_GetSysClockFreq+0x8c>
      {
#if defined(RCC_CFGR2_PREDIV1)
        prediv = aPredivFactorTable[(uint32_t)(RCC->CFGR2 & RCC_CFGR2_PREDIV1) >> RCC_CFGR2_PREDIV1_Pos];
#else
        prediv = aPredivFactorTable[(uint32_t)(RCC->CFGR & RCC_CFGR_PLLXTPRE) >> RCC_CFGR_PLLXTPRE_Pos];
 8004dcc:	4b13      	ldr	r3, [pc, #76]	; (8004e1c <HAL_RCC_GetSysClockFreq+0xb4>)
 8004dce:	685b      	ldr	r3, [r3, #4]
 8004dd0:	0c5b      	lsrs	r3, r3, #17
 8004dd2:	f003 0301 	and.w	r3, r3, #1
 8004dd6:	f107 0228 	add.w	r2, r7, #40	; 0x28
 8004dda:	4413      	add	r3, r2
 8004ddc:	f813 3c28 	ldrb.w	r3, [r3, #-40]
 8004de0:	61bb      	str	r3, [r7, #24]
        {
          pllclk = pllclk / 2;
        }
#else
        /* HSE used as PLL clock source : PLLCLK = HSE/PREDIV1 * PLLMUL */
        pllclk = (uint32_t)((HSE_VALUE  * pllmul) / prediv);
 8004de2:	697b      	ldr	r3, [r7, #20]
 8004de4:	4a0e      	ldr	r2, [pc, #56]	; (8004e20 <HAL_RCC_GetSysClockFreq+0xb8>)
 8004de6:	fb02 f203 	mul.w	r2, r2, r3
 8004dea:	69bb      	ldr	r3, [r7, #24]
 8004dec:	fbb2 f3f3 	udiv	r3, r2, r3
 8004df0:	627b      	str	r3, [r7, #36]	; 0x24
 8004df2:	e004      	b.n	8004dfe <HAL_RCC_GetSysClockFreq+0x96>
#endif /*RCC_CFGR2_PREDIV1SRC*/
      }
      else
      {
        /* HSI used as PLL clock source : PLLCLK = HSI/2 * PLLMUL */
        pllclk = (uint32_t)((HSI_VALUE >> 1) * pllmul);
 8004df4:	697b      	ldr	r3, [r7, #20]
 8004df6:	4a0b      	ldr	r2, [pc, #44]	; (8004e24 <HAL_RCC_GetSysClockFreq+0xbc>)
 8004df8:	fb02 f303 	mul.w	r3, r2, r3
 8004dfc:	627b      	str	r3, [r7, #36]	; 0x24
      }
      sysclockfreq = pllclk;
 8004dfe:	6a7b      	ldr	r3, [r7, #36]	; 0x24
 8004e00:	623b      	str	r3, [r7, #32]
      break;
 8004e02:	e002      	b.n	8004e0a <HAL_RCC_GetSysClockFreq+0xa2>
    }
    case RCC_SYSCLKSOURCE_STATUS_HSI:  /* HSI used as system clock source */
    default: /* HSI used as system clock */
    {
      sysclockfreq = HSI_VALUE;
 8004e04:	4b06      	ldr	r3, [pc, #24]	; (8004e20 <HAL_RCC_GetSysClockFreq+0xb8>)
 8004e06:	623b      	str	r3, [r7, #32]
      break;
 8004e08:	bf00      	nop
    }
  }
  return sysclockfreq;
 8004e0a:	6a3b      	ldr	r3, [r7, #32]
}
 8004e0c:	4618      	mov	r0, r3
 8004e0e:	3728      	adds	r7, #40	; 0x28
 8004e10:	46bd      	mov	sp, r7
 8004e12:	bc90      	pop	{r4, r7}
 8004e14:	4770      	bx	lr
 8004e16:	bf00      	nop
 8004e18:	080093a0 	.word	0x080093a0
 8004e1c:	40021000 	.word	0x40021000
 8004e20:	007a1200 	.word	0x007a1200
 8004e24:	003d0900 	.word	0x003d0900

08004e28 <RCC_Delay>:
  * @brief  This function provides delay (in milliseconds) based on CPU cycles method.
  * @param  mdelay: specifies the delay time length, in milliseconds.
  * @retval None
  */
static void RCC_Delay(uint32_t mdelay)
{
 8004e28:	b480      	push	{r7}
 8004e2a:	b085      	sub	sp, #20
 8004e2c:	af00      	add	r7, sp, #0
 8004e2e:	6078      	str	r0, [r7, #4]
  __IO uint32_t Delay = mdelay * (SystemCoreClock / 8U / 1000U);
 8004e30:	4b0a      	ldr	r3, [pc, #40]	; (8004e5c <RCC_Delay+0x34>)
 8004e32:	681b      	ldr	r3, [r3, #0]
 8004e34:	4a0a      	ldr	r2, [pc, #40]	; (8004e60 <RCC_Delay+0x38>)
 8004e36:	fba2 2303 	umull	r2, r3, r2, r3
 8004e3a:	0a5b      	lsrs	r3, r3, #9
 8004e3c:	687a      	ldr	r2, [r7, #4]
 8004e3e:	fb02 f303 	mul.w	r3, r2, r3
 8004e42:	60fb      	str	r3, [r7, #12]
  do
  {
    __NOP();
 8004e44:	bf00      	nop
  }
  while (Delay --);
 8004e46:	68fb      	ldr	r3, [r7, #12]
 8004e48:	1e5a      	subs	r2, r3, #1
 8004e4a:	60fa      	str	r2, [r7, #12]
 8004e4c:	2b00      	cmp	r3, #0
 8004e4e:	d1f9      	bne.n	8004e44 <RCC_Delay+0x1c>
}
 8004e50:	bf00      	nop
 8004e52:	bf00      	nop
 8004e54:	3714      	adds	r7, #20
 8004e56:	46bd      	mov	sp, r7
 8004e58:	bc80      	pop	{r7}
 8004e5a:	4770      	bx	lr
 8004e5c:	20000000 	.word	0x20000000
 8004e60:	10624dd3 	.word	0x10624dd3

08004e64 <HAL_SPI_Init>:
  * @param  hspi pointer to a SPI_HandleTypeDef structure that contains
  *               the configuration information for SPI module.
  * @retval HAL status
  */
HAL_StatusTypeDef HAL_SPI_Init(SPI_HandleTypeDef *hspi)
{
 8004e64:	b580      	push	{r7, lr}
 8004e66:	b082      	sub	sp, #8
 8004e68:	af00      	add	r7, sp, #0
 8004e6a:	6078      	str	r0, [r7, #4]
  /* Check the SPI handle allocation */
  if (hspi == NULL)
 8004e6c:	687b      	ldr	r3, [r7, #4]
 8004e6e:	2b00      	cmp	r3, #0
 8004e70:	d101      	bne.n	8004e76 <HAL_SPI_Init+0x12>
  {
    return HAL_ERROR;
 8004e72:	2301      	movs	r3, #1
 8004e74:	e076      	b.n	8004f64 <HAL_SPI_Init+0x100>
  assert_param(IS_SPI_BAUDRATE_PRESCALER(hspi->Init.BaudRatePrescaler));
  assert_param(IS_SPI_FIRST_BIT(hspi->Init.FirstBit));
  /* TI mode is not supported on this device.
     TIMode parameter is mandatory equal to SPI_TIMODE_DISABLE */
  assert_param(IS_SPI_TIMODE(hspi->Init.TIMode));
  if (hspi->Init.TIMode == SPI_TIMODE_DISABLE)
 8004e76:	687b      	ldr	r3, [r7, #4]
 8004e78:	6a5b      	ldr	r3, [r3, #36]	; 0x24
 8004e7a:	2b00      	cmp	r3, #0
 8004e7c:	d108      	bne.n	8004e90 <HAL_SPI_Init+0x2c>
  {
    assert_param(IS_SPI_CPOL(hspi->Init.CLKPolarity));
    assert_param(IS_SPI_CPHA(hspi->Init.CLKPhase));

    if (hspi->Init.Mode == SPI_MODE_MASTER)
 8004e7e:	687b      	ldr	r3, [r7, #4]
 8004e80:	685b      	ldr	r3, [r3, #4]
 8004e82:	f5b3 7f82 	cmp.w	r3, #260	; 0x104
 8004e86:	d009      	beq.n	8004e9c <HAL_SPI_Init+0x38>
      assert_param(IS_SPI_BAUDRATE_PRESCALER(hspi->Init.BaudRatePrescaler));
    }
    else
    {
      /* Baudrate prescaler not use in Motoraola Slave mode. force to default value */
      hspi->Init.BaudRatePrescaler = SPI_BAUDRATEPRESCALER_2;
 8004e88:	687b      	ldr	r3, [r7, #4]
 8004e8a:	2200      	movs	r2, #0
 8004e8c:	61da      	str	r2, [r3, #28]
 8004e8e:	e005      	b.n	8004e9c <HAL_SPI_Init+0x38>
  else
  {
    assert_param(IS_SPI_BAUDRATE_PRESCALER(hspi->Init.BaudRatePrescaler));

    /* Force polarity and phase to TI protocaol requirements */
    hspi->Init.CLKPolarity = SPI_POLARITY_LOW;
 8004e90:	687b      	ldr	r3, [r7, #4]
 8004e92:	2200      	movs	r2, #0
 8004e94:	611a      	str	r2, [r3, #16]
    hspi->Init.CLKPhase    = SPI_PHASE_1EDGE;
 8004e96:	687b      	ldr	r3, [r7, #4]
 8004e98:	2200      	movs	r2, #0
 8004e9a:	615a      	str	r2, [r3, #20]
  if (hspi->Init.CRCCalculation == SPI_CRCCALCULATION_ENABLE)
  {
    assert_param(IS_SPI_CRC_POLYNOMIAL(hspi->Init.CRCPolynomial));
  }
#else
  hspi->Init.CRCCalculation = SPI_CRCCALCULATION_DISABLE;
 8004e9c:	687b      	ldr	r3, [r7, #4]
 8004e9e:	2200      	movs	r2, #0
 8004ea0:	629a      	str	r2, [r3, #40]	; 0x28
#endif /* USE_SPI_CRC */

  if (hspi->State == HAL_SPI_STATE_RESET)
 8004ea2:	687b      	ldr	r3, [r7, #4]
 8004ea4:	f893 3051 	ldrb.w	r3, [r3, #81]	; 0x51
 8004ea8:	b2db      	uxtb	r3, r3
 8004eaa:	2b00      	cmp	r3, #0
 8004eac:	d106      	bne.n	8004ebc <HAL_SPI_Init+0x58>
  {
    /* Allocate lock resource and initialize it */
    hspi->Lock = HAL_UNLOCKED;
 8004eae:	687b      	ldr	r3, [r7, #4]
 8004eb0:	2200      	movs	r2, #0
 8004eb2:	f883 2050 	strb.w	r2, [r3, #80]	; 0x50

    /* Init the low level hardware : GPIO, CLOCK, NVIC... */
    hspi->MspInitCallback(hspi);
#else
    /* Init the low level hardware : GPIO, CLOCK, NVIC... */
    HAL_SPI_MspInit(hspi);
 8004eb6:	6878      	ldr	r0, [r7, #4]
 8004eb8:	f7fe fc68 	bl	800378c <HAL_SPI_MspInit>
#endif /* USE_HAL_SPI_REGISTER_CALLBACKS */
  }

  hspi->State = HAL_SPI_STATE_BUSY;
 8004ebc:	687b      	ldr	r3, [r7, #4]
 8004ebe:	2202      	movs	r2, #2
 8004ec0:	f883 2051 	strb.w	r2, [r3, #81]	; 0x51

  /* Disable the selected SPI peripheral */
  __HAL_SPI_DISABLE(hspi);
 8004ec4:	687b      	ldr	r3, [r7, #4]
 8004ec6:	681b      	ldr	r3, [r3, #0]
 8004ec8:	681a      	ldr	r2, [r3, #0]
 8004eca:	687b      	ldr	r3, [r7, #4]
 8004ecc:	681b      	ldr	r3, [r3, #0]
 8004ece:	f022 0240 	bic.w	r2, r2, #64	; 0x40
 8004ed2:	601a      	str	r2, [r3, #0]

  /*----------------------- SPIx CR1 & CR2 Configuration ---------------------*/
  /* Configure : SPI Mode, Communication Mode, Data size, Clock polarity and phase, NSS management,
  Communication speed, First bit and CRC calculation state */
  WRITE_REG(hspi->Instance->CR1, ((hspi->Init.Mode & (SPI_CR1_MSTR | SPI_CR1_SSI)) |
 8004ed4:	687b      	ldr	r3, [r7, #4]
 8004ed6:	685b      	ldr	r3, [r3, #4]
 8004ed8:	f403 7282 	and.w	r2, r3, #260	; 0x104
 8004edc:	687b      	ldr	r3, [r7, #4]
 8004ede:	689b      	ldr	r3, [r3, #8]
 8004ee0:	f403 4304 	and.w	r3, r3, #33792	; 0x8400
 8004ee4:	431a      	orrs	r2, r3
 8004ee6:	687b      	ldr	r3, [r7, #4]
 8004ee8:	68db      	ldr	r3, [r3, #12]
 8004eea:	f403 6300 	and.w	r3, r3, #2048	; 0x800
 8004eee:	431a      	orrs	r2, r3
 8004ef0:	687b      	ldr	r3, [r7, #4]
 8004ef2:	691b      	ldr	r3, [r3, #16]
 8004ef4:	f003 0302 	and.w	r3, r3, #2
 8004ef8:	431a      	orrs	r2, r3
 8004efa:	687b      	ldr	r3, [r7, #4]
 8004efc:	695b      	ldr	r3, [r3, #20]
 8004efe:	f003 0301 	and.w	r3, r3, #1
 8004f02:	431a      	orrs	r2, r3
 8004f04:	687b      	ldr	r3, [r7, #4]
 8004f06:	699b      	ldr	r3, [r3, #24]
 8004f08:	f403 7300 	and.w	r3, r3, #512	; 0x200
 8004f0c:	431a      	orrs	r2, r3
 8004f0e:	687b      	ldr	r3, [r7, #4]
 8004f10:	69db      	ldr	r3, [r3, #28]
 8004f12:	f003 0338 	and.w	r3, r3, #56	; 0x38
 8004f16:	431a      	orrs	r2, r3
 8004f18:	687b      	ldr	r3, [r7, #4]
 8004f1a:	6a1b      	ldr	r3, [r3, #32]
 8004f1c:	f003 0380 	and.w	r3, r3, #128	; 0x80
 8004f20:	ea42 0103 	orr.w	r1, r2, r3
 8004f24:	687b      	ldr	r3, [r7, #4]
 8004f26:	6a9b      	ldr	r3, [r3, #40]	; 0x28
 8004f28:	f403 5200 	and.w	r2, r3, #8192	; 0x2000
 8004f2c:	687b      	ldr	r3, [r7, #4]
 8004f2e:	681b      	ldr	r3, [r3, #0]
 8004f30:	430a      	orrs	r2, r1
 8004f32:	601a      	str	r2, [r3, #0]
                                  (hspi->Init.BaudRatePrescaler & SPI_CR1_BR_Msk) |
                                  (hspi->Init.FirstBit  & SPI_CR1_LSBFIRST) |
                                  (hspi->Init.CRCCalculation & SPI_CR1_CRCEN)));

  /* Configure : NSS management */
  WRITE_REG(hspi->Instance->CR2, ((hspi->Init.NSS >> 16U) & SPI_CR2_SSOE));
 8004f34:	687b      	ldr	r3, [r7, #4]
 8004f36:	699b      	ldr	r3, [r3, #24]
 8004f38:	0c1a      	lsrs	r2, r3, #16
 8004f3a:	687b      	ldr	r3, [r7, #4]
 8004f3c:	681b      	ldr	r3, [r3, #0]
 8004f3e:	f002 0204 	and.w	r2, r2, #4
 8004f42:	605a      	str	r2, [r3, #4]
  }
#endif /* USE_SPI_CRC */

#if defined(SPI_I2SCFGR_I2SMOD)
  /* Activate the SPI mode (Make sure that I2SMOD bit in I2SCFGR register is reset) */
  CLEAR_BIT(hspi->Instance->I2SCFGR, SPI_I2SCFGR_I2SMOD);
 8004f44:	687b      	ldr	r3, [r7, #4]
 8004f46:	681b      	ldr	r3, [r3, #0]
 8004f48:	69da      	ldr	r2, [r3, #28]
 8004f4a:	687b      	ldr	r3, [r7, #4]
 8004f4c:	681b      	ldr	r3, [r3, #0]
 8004f4e:	f422 6200 	bic.w	r2, r2, #2048	; 0x800
 8004f52:	61da      	str	r2, [r3, #28]
#endif /* SPI_I2SCFGR_I2SMOD */

  hspi->ErrorCode = HAL_SPI_ERROR_NONE;
 8004f54:	687b      	ldr	r3, [r7, #4]
 8004f56:	2200      	movs	r2, #0
 8004f58:	655a      	str	r2, [r3, #84]	; 0x54
  hspi->State     = HAL_SPI_STATE_READY;
 8004f5a:	687b      	ldr	r3, [r7, #4]
 8004f5c:	2201      	movs	r2, #1
 8004f5e:	f883 2051 	strb.w	r2, [r3, #81]	; 0x51

  return HAL_OK;
 8004f62:	2300      	movs	r3, #0
}
 8004f64:	4618      	mov	r0, r3
 8004f66:	3708      	adds	r7, #8
 8004f68:	46bd      	mov	sp, r7
 8004f6a:	bd80      	pop	{r7, pc}

08004f6c <HAL_SPI_Transmit>:
  * @param  Size amount of data to be sent
  * @param  Timeout Timeout duration
  * @retval HAL status
  */
HAL_StatusTypeDef HAL_SPI_Transmit(SPI_HandleTypeDef *hspi, uint8_t *pData, uint16_t Size, uint32_t Timeout)
{
 8004f6c:	b580      	push	{r7, lr}
 8004f6e:	b088      	sub	sp, #32
 8004f70:	af00      	add	r7, sp, #0
 8004f72:	60f8      	str	r0, [r7, #12]
 8004f74:	60b9      	str	r1, [r7, #8]
 8004f76:	603b      	str	r3, [r7, #0]
 8004f78:	4613      	mov	r3, r2
 8004f7a:	80fb      	strh	r3, [r7, #6]
  uint32_t tickstart;
  HAL_StatusTypeDef errorcode = HAL_OK;
 8004f7c:	2300      	movs	r3, #0
 8004f7e:	77fb      	strb	r3, [r7, #31]

  /* Check Direction parameter */
  assert_param(IS_SPI_DIRECTION_2LINES_OR_1LINE(hspi->Init.Direction));

  /* Process Locked */
  __HAL_LOCK(hspi);
 8004f80:	68fb      	ldr	r3, [r7, #12]
 8004f82:	f893 3050 	ldrb.w	r3, [r3, #80]	; 0x50
 8004f86:	2b01      	cmp	r3, #1
 8004f88:	d101      	bne.n	8004f8e <HAL_SPI_Transmit+0x22>
 8004f8a:	2302      	movs	r3, #2
 8004f8c:	e126      	b.n	80051dc <HAL_SPI_Transmit+0x270>
 8004f8e:	68fb      	ldr	r3, [r7, #12]
 8004f90:	2201      	movs	r2, #1
 8004f92:	f883 2050 	strb.w	r2, [r3, #80]	; 0x50

  /* Init tickstart for timeout management*/
  tickstart = HAL_GetTick();
 8004f96:	f7fe fd81 	bl	8003a9c <HAL_GetTick>
 8004f9a:	61b8      	str	r0, [r7, #24]
  initial_TxXferCount = Size;
 8004f9c:	88fb      	ldrh	r3, [r7, #6]
 8004f9e:	82fb      	strh	r3, [r7, #22]

  if (hspi->State != HAL_SPI_STATE_READY)
 8004fa0:	68fb      	ldr	r3, [r7, #12]
 8004fa2:	f893 3051 	ldrb.w	r3, [r3, #81]	; 0x51
 8004fa6:	b2db      	uxtb	r3, r3
 8004fa8:	2b01      	cmp	r3, #1
 8004faa:	d002      	beq.n	8004fb2 <HAL_SPI_Transmit+0x46>
  {
    errorcode = HAL_BUSY;
 8004fac:	2302      	movs	r3, #2
 8004fae:	77fb      	strb	r3, [r7, #31]
    goto error;
 8004fb0:	e10b      	b.n	80051ca <HAL_SPI_Transmit+0x25e>
  }

  if ((pData == NULL) || (Size == 0U))
 8004fb2:	68bb      	ldr	r3, [r7, #8]
 8004fb4:	2b00      	cmp	r3, #0
 8004fb6:	d002      	beq.n	8004fbe <HAL_SPI_Transmit+0x52>
 8004fb8:	88fb      	ldrh	r3, [r7, #6]
 8004fba:	2b00      	cmp	r3, #0
 8004fbc:	d102      	bne.n	8004fc4 <HAL_SPI_Transmit+0x58>
  {
    errorcode = HAL_ERROR;
 8004fbe:	2301      	movs	r3, #1
 8004fc0:	77fb      	strb	r3, [r7, #31]
    goto error;
 8004fc2:	e102      	b.n	80051ca <HAL_SPI_Transmit+0x25e>
  }

  /* Set the transaction information */
  hspi->State       = HAL_SPI_STATE_BUSY_TX;
 8004fc4:	68fb      	ldr	r3, [r7, #12]
 8004fc6:	2203      	movs	r2, #3
 8004fc8:	f883 2051 	strb.w	r2, [r3, #81]	; 0x51
  hspi->ErrorCode   = HAL_SPI_ERROR_NONE;
 8004fcc:	68fb      	ldr	r3, [r7, #12]
 8004fce:	2200      	movs	r2, #0
 8004fd0:	655a      	str	r2, [r3, #84]	; 0x54
  hspi->pTxBuffPtr  = (uint8_t *)pData;
 8004fd2:	68fb      	ldr	r3, [r7, #12]
 8004fd4:	68ba      	ldr	r2, [r7, #8]
 8004fd6:	631a      	str	r2, [r3, #48]	; 0x30
  hspi->TxXferSize  = Size;
 8004fd8:	68fb      	ldr	r3, [r7, #12]
 8004fda:	88fa      	ldrh	r2, [r7, #6]
 8004fdc:	869a      	strh	r2, [r3, #52]	; 0x34
  hspi->TxXferCount = Size;
 8004fde:	68fb      	ldr	r3, [r7, #12]
 8004fe0:	88fa      	ldrh	r2, [r7, #6]
 8004fe2:	86da      	strh	r2, [r3, #54]	; 0x36

  /*Init field not used in handle to zero */
  hspi->pRxBuffPtr  = (uint8_t *)NULL;
 8004fe4:	68fb      	ldr	r3, [r7, #12]
 8004fe6:	2200      	movs	r2, #0
 8004fe8:	639a      	str	r2, [r3, #56]	; 0x38
  hspi->RxXferSize  = 0U;
 8004fea:	68fb      	ldr	r3, [r7, #12]
 8004fec:	2200      	movs	r2, #0
 8004fee:	879a      	strh	r2, [r3, #60]	; 0x3c
  hspi->RxXferCount = 0U;
 8004ff0:	68fb      	ldr	r3, [r7, #12]
 8004ff2:	2200      	movs	r2, #0
 8004ff4:	87da      	strh	r2, [r3, #62]	; 0x3e
  hspi->TxISR       = NULL;
 8004ff6:	68fb      	ldr	r3, [r7, #12]
 8004ff8:	2200      	movs	r2, #0
 8004ffa:	645a      	str	r2, [r3, #68]	; 0x44
  hspi->RxISR       = NULL;
 8004ffc:	68fb      	ldr	r3, [r7, #12]
 8004ffe:	2200      	movs	r2, #0
 8005000:	641a      	str	r2, [r3, #64]	; 0x40

  /* Configure communication direction : 1Line */
  if (hspi->Init.Direction == SPI_DIRECTION_1LINE)
 8005002:	68fb      	ldr	r3, [r7, #12]
 8005004:	689b      	ldr	r3, [r3, #8]
 8005006:	f5b3 4f00 	cmp.w	r3, #32768	; 0x8000
 800500a:	d10f      	bne.n	800502c <HAL_SPI_Transmit+0xc0>
  {
    /* Disable SPI Peripheral before set 1Line direction (BIDIOE bit) */
    __HAL_SPI_DISABLE(hspi);
 800500c:	68fb      	ldr	r3, [r7, #12]
 800500e:	681b      	ldr	r3, [r3, #0]
 8005010:	681a      	ldr	r2, [r3, #0]
 8005012:	68fb      	ldr	r3, [r7, #12]
 8005014:	681b      	ldr	r3, [r3, #0]
 8005016:	f022 0240 	bic.w	r2, r2, #64	; 0x40
 800501a:	601a      	str	r2, [r3, #0]
    SPI_1LINE_TX(hspi);
 800501c:	68fb      	ldr	r3, [r7, #12]
 800501e:	681b      	ldr	r3, [r3, #0]
 8005020:	681a      	ldr	r2, [r3, #0]
 8005022:	68fb      	ldr	r3, [r7, #12]
 8005024:	681b      	ldr	r3, [r3, #0]
 8005026:	f442 4280 	orr.w	r2, r2, #16384	; 0x4000
 800502a:	601a      	str	r2, [r3, #0]
    SPI_RESET_CRC(hspi);
  }
#endif /* USE_SPI_CRC */

  /* Check if the SPI is already enabled */
  if ((hspi->Instance->CR1 & SPI_CR1_SPE) != SPI_CR1_SPE)
 800502c:	68fb      	ldr	r3, [r7, #12]
 800502e:	681b      	ldr	r3, [r3, #0]
 8005030:	681b      	ldr	r3, [r3, #0]
 8005032:	f003 0340 	and.w	r3, r3, #64	; 0x40
 8005036:	2b40      	cmp	r3, #64	; 0x40
 8005038:	d007      	beq.n	800504a <HAL_SPI_Transmit+0xde>
  {
    /* Enable SPI peripheral */
    __HAL_SPI_ENABLE(hspi);
 800503a:	68fb      	ldr	r3, [r7, #12]
 800503c:	681b      	ldr	r3, [r3, #0]
 800503e:	681a      	ldr	r2, [r3, #0]
 8005040:	68fb      	ldr	r3, [r7, #12]
 8005042:	681b      	ldr	r3, [r3, #0]
 8005044:	f042 0240 	orr.w	r2, r2, #64	; 0x40
 8005048:	601a      	str	r2, [r3, #0]
  }

  /* Transmit data in 16 Bit mode */
  if (hspi->Init.DataSize == SPI_DATASIZE_16BIT)
 800504a:	68fb      	ldr	r3, [r7, #12]
 800504c:	68db      	ldr	r3, [r3, #12]
 800504e:	f5b3 6f00 	cmp.w	r3, #2048	; 0x800
 8005052:	d14b      	bne.n	80050ec <HAL_SPI_Transmit+0x180>
  {
    if ((hspi->Init.Mode == SPI_MODE_SLAVE) || (initial_TxXferCount == 0x01U))
 8005054:	68fb      	ldr	r3, [r7, #12]
 8005056:	685b      	ldr	r3, [r3, #4]
 8005058:	2b00      	cmp	r3, #0
 800505a:	d002      	beq.n	8005062 <HAL_SPI_Transmit+0xf6>
 800505c:	8afb      	ldrh	r3, [r7, #22]
 800505e:	2b01      	cmp	r3, #1
 8005060:	d13e      	bne.n	80050e0 <HAL_SPI_Transmit+0x174>
    {
      hspi->Instance->DR = *((uint16_t *)hspi->pTxBuffPtr);
 8005062:	68fb      	ldr	r3, [r7, #12]
 8005064:	6b1b      	ldr	r3, [r3, #48]	; 0x30
 8005066:	881a      	ldrh	r2, [r3, #0]
 8005068:	68fb      	ldr	r3, [r7, #12]
 800506a:	681b      	ldr	r3, [r3, #0]
 800506c:	60da      	str	r2, [r3, #12]
      hspi->pTxBuffPtr += sizeof(uint16_t);
 800506e:	68fb      	ldr	r3, [r7, #12]
 8005070:	6b1b      	ldr	r3, [r3, #48]	; 0x30
 8005072:	1c9a      	adds	r2, r3, #2
 8005074:	68fb      	ldr	r3, [r7, #12]
 8005076:	631a      	str	r2, [r3, #48]	; 0x30
      hspi->TxXferCount--;
 8005078:	68fb      	ldr	r3, [r7, #12]
 800507a:	8edb      	ldrh	r3, [r3, #54]	; 0x36
 800507c:	b29b      	uxth	r3, r3
 800507e:	3b01      	subs	r3, #1
 8005080:	b29a      	uxth	r2, r3
 8005082:	68fb      	ldr	r3, [r7, #12]
 8005084:	86da      	strh	r2, [r3, #54]	; 0x36
    }
    /* Transmit data in 16 Bit mode */
    while (hspi->TxXferCount > 0U)
 8005086:	e02b      	b.n	80050e0 <HAL_SPI_Transmit+0x174>
    {
      /* Wait until TXE flag is set to send data */
      if (__HAL_SPI_GET_FLAG(hspi, SPI_FLAG_TXE))
 8005088:	68fb      	ldr	r3, [r7, #12]
 800508a:	681b      	ldr	r3, [r3, #0]
 800508c:	689b      	ldr	r3, [r3, #8]
 800508e:	f003 0302 	and.w	r3, r3, #2
 8005092:	2b02      	cmp	r3, #2
 8005094:	d112      	bne.n	80050bc <HAL_SPI_Transmit+0x150>
      {
        hspi->Instance->DR = *((uint16_t *)hspi->pTxBuffPtr);
 8005096:	68fb      	ldr	r3, [r7, #12]
 8005098:	6b1b      	ldr	r3, [r3, #48]	; 0x30
 800509a:	881a      	ldrh	r2, [r3, #0]
 800509c:	68fb      	ldr	r3, [r7, #12]
 800509e:	681b      	ldr	r3, [r3, #0]
 80050a0:	60da      	str	r2, [r3, #12]
        hspi->pTxBuffPtr += sizeof(uint16_t);
 80050a2:	68fb      	ldr	r3, [r7, #12]
 80050a4:	6b1b      	ldr	r3, [r3, #48]	; 0x30
 80050a6:	1c9a      	adds	r2, r3, #2
 80050a8:	68fb      	ldr	r3, [r7, #12]
 80050aa:	631a      	str	r2, [r3, #48]	; 0x30
        hspi->TxXferCount--;
 80050ac:	68fb      	ldr	r3, [r7, #12]
 80050ae:	8edb      	ldrh	r3, [r3, #54]	; 0x36
 80050b0:	b29b      	uxth	r3, r3
 80050b2:	3b01      	subs	r3, #1
 80050b4:	b29a      	uxth	r2, r3
 80050b6:	68fb      	ldr	r3, [r7, #12]
 80050b8:	86da      	strh	r2, [r3, #54]	; 0x36
 80050ba:	e011      	b.n	80050e0 <HAL_SPI_Transmit+0x174>
      }
      else
      {
        /* Timeout management */
        if ((((HAL_GetTick() - tickstart) >=  Timeout) && (Timeout != HAL_MAX_DELAY)) || (Timeout == 0U))
 80050bc:	f7fe fcee 	bl	8003a9c <HAL_GetTick>
 80050c0:	4602      	mov	r2, r0
 80050c2:	69bb      	ldr	r3, [r7, #24]
 80050c4:	1ad3      	subs	r3, r2, r3
 80050c6:	683a      	ldr	r2, [r7, #0]
 80050c8:	429a      	cmp	r2, r3
 80050ca:	d803      	bhi.n	80050d4 <HAL_SPI_Transmit+0x168>
 80050cc:	683b      	ldr	r3, [r7, #0]
 80050ce:	f1b3 3fff 	cmp.w	r3, #4294967295
 80050d2:	d102      	bne.n	80050da <HAL_SPI_Transmit+0x16e>
 80050d4:	683b      	ldr	r3, [r7, #0]
 80050d6:	2b00      	cmp	r3, #0
 80050d8:	d102      	bne.n	80050e0 <HAL_SPI_Transmit+0x174>
        {
          errorcode = HAL_TIMEOUT;
 80050da:	2303      	movs	r3, #3
 80050dc:	77fb      	strb	r3, [r7, #31]
          goto error;
 80050de:	e074      	b.n	80051ca <HAL_SPI_Transmit+0x25e>
    while (hspi->TxXferCount > 0U)
 80050e0:	68fb      	ldr	r3, [r7, #12]
 80050e2:	8edb      	ldrh	r3, [r3, #54]	; 0x36
 80050e4:	b29b      	uxth	r3, r3
 80050e6:	2b00      	cmp	r3, #0
 80050e8:	d1ce      	bne.n	8005088 <HAL_SPI_Transmit+0x11c>
 80050ea:	e04c      	b.n	8005186 <HAL_SPI_Transmit+0x21a>
    }
  }
  /* Transmit data in 8 Bit mode */
  else
  {
    if ((hspi->Init.Mode == SPI_MODE_SLAVE) || (initial_TxXferCount == 0x01U))
 80050ec:	68fb      	ldr	r3, [r7, #12]
 80050ee:	685b      	ldr	r3, [r3, #4]
 80050f0:	2b00      	cmp	r3, #0
 80050f2:	d002      	beq.n	80050fa <HAL_SPI_Transmit+0x18e>
 80050f4:	8afb      	ldrh	r3, [r7, #22]
 80050f6:	2b01      	cmp	r3, #1
 80050f8:	d140      	bne.n	800517c <HAL_SPI_Transmit+0x210>
    {
      *((__IO uint8_t *)&hspi->Instance->DR) = (*hspi->pTxBuffPtr);
 80050fa:	68fb      	ldr	r3, [r7, #12]
 80050fc:	6b1a      	ldr	r2, [r3, #48]	; 0x30
 80050fe:	68fb      	ldr	r3, [r7, #12]
 8005100:	681b      	ldr	r3, [r3, #0]
 8005102:	330c      	adds	r3, #12
 8005104:	7812      	ldrb	r2, [r2, #0]
 8005106:	701a      	strb	r2, [r3, #0]
      hspi->pTxBuffPtr += sizeof(uint8_t);
 8005108:	68fb      	ldr	r3, [r7, #12]
 800510a:	6b1b      	ldr	r3, [r3, #48]	; 0x30
 800510c:	1c5a      	adds	r2, r3, #1
 800510e:	68fb      	ldr	r3, [r7, #12]
 8005110:	631a      	str	r2, [r3, #48]	; 0x30
      hspi->TxXferCount--;
 8005112:	68fb      	ldr	r3, [r7, #12]
 8005114:	8edb      	ldrh	r3, [r3, #54]	; 0x36
 8005116:	b29b      	uxth	r3, r3
 8005118:	3b01      	subs	r3, #1
 800511a:	b29a      	uxth	r2, r3
 800511c:	68fb      	ldr	r3, [r7, #12]
 800511e:	86da      	strh	r2, [r3, #54]	; 0x36
    }
    while (hspi->TxXferCount > 0U)
 8005120:	e02c      	b.n	800517c <HAL_SPI_Transmit+0x210>
    {
      /* Wait until TXE flag is set to send data */
      if (__HAL_SPI_GET_FLAG(hspi, SPI_FLAG_TXE))
 8005122:	68fb      	ldr	r3, [r7, #12]
 8005124:	681b      	ldr	r3, [r3, #0]
 8005126:	689b      	ldr	r3, [r3, #8]
 8005128:	f003 0302 	and.w	r3, r3, #2
 800512c:	2b02      	cmp	r3, #2
 800512e:	d113      	bne.n	8005158 <HAL_SPI_Transmit+0x1ec>
      {
        *((__IO uint8_t *)&hspi->Instance->DR) = (*hspi->pTxBuffPtr);
 8005130:	68fb      	ldr	r3, [r7, #12]
 8005132:	6b1a      	ldr	r2, [r3, #48]	; 0x30
 8005134:	68fb      	ldr	r3, [r7, #12]
 8005136:	681b      	ldr	r3, [r3, #0]
 8005138:	330c      	adds	r3, #12
 800513a:	7812      	ldrb	r2, [r2, #0]
 800513c:	701a      	strb	r2, [r3, #0]
        hspi->pTxBuffPtr += sizeof(uint8_t);
 800513e:	68fb      	ldr	r3, [r7, #12]
 8005140:	6b1b      	ldr	r3, [r3, #48]	; 0x30
 8005142:	1c5a      	adds	r2, r3, #1
 8005144:	68fb      	ldr	r3, [r7, #12]
 8005146:	631a      	str	r2, [r3, #48]	; 0x30
        hspi->TxXferCount--;
 8005148:	68fb      	ldr	r3, [r7, #12]
 800514a:	8edb      	ldrh	r3, [r3, #54]	; 0x36
 800514c:	b29b      	uxth	r3, r3
 800514e:	3b01      	subs	r3, #1
 8005150:	b29a      	uxth	r2, r3
 8005152:	68fb      	ldr	r3, [r7, #12]
 8005154:	86da      	strh	r2, [r3, #54]	; 0x36
 8005156:	e011      	b.n	800517c <HAL_SPI_Transmit+0x210>
      }
      else
      {
        /* Timeout management */
        if ((((HAL_GetTick() - tickstart) >=  Timeout) && (Timeout != HAL_MAX_DELAY)) || (Timeout == 0U))
 8005158:	f7fe fca0 	bl	8003a9c <HAL_GetTick>
 800515c:	4602      	mov	r2, r0
 800515e:	69bb      	ldr	r3, [r7, #24]
 8005160:	1ad3      	subs	r3, r2, r3
 8005162:	683a      	ldr	r2, [r7, #0]
 8005164:	429a      	cmp	r2, r3
 8005166:	d803      	bhi.n	8005170 <HAL_SPI_Transmit+0x204>
 8005168:	683b      	ldr	r3, [r7, #0]
 800516a:	f1b3 3fff 	cmp.w	r3, #4294967295
 800516e:	d102      	bne.n	8005176 <HAL_SPI_Transmit+0x20a>
 8005170:	683b      	ldr	r3, [r7, #0]
 8005172:	2b00      	cmp	r3, #0
 8005174:	d102      	bne.n	800517c <HAL_SPI_Transmit+0x210>
        {
          errorcode = HAL_TIMEOUT;
 8005176:	2303      	movs	r3, #3
 8005178:	77fb      	strb	r3, [r7, #31]
          goto error;
 800517a:	e026      	b.n	80051ca <HAL_SPI_Transmit+0x25e>
    while (hspi->TxXferCount > 0U)
 800517c:	68fb      	ldr	r3, [r7, #12]
 800517e:	8edb      	ldrh	r3, [r3, #54]	; 0x36
 8005180:	b29b      	uxth	r3, r3
 8005182:	2b00      	cmp	r3, #0
 8005184:	d1cd      	bne.n	8005122 <HAL_SPI_Transmit+0x1b6>
    SET_BIT(hspi->Instance->CR1, SPI_CR1_CRCNEXT);
  }
#endif /* USE_SPI_CRC */

  /* Check the end of the transaction */
  if (SPI_EndRxTxTransaction(hspi, Timeout, tickstart) != HAL_OK)
 8005186:	69ba      	ldr	r2, [r7, #24]
 8005188:	6839      	ldr	r1, [r7, #0]
 800518a:	68f8      	ldr	r0, [r7, #12]
 800518c:	f000 fcbc 	bl	8005b08 <SPI_EndRxTxTransaction>
 8005190:	4603      	mov	r3, r0
 8005192:	2b00      	cmp	r3, #0
 8005194:	d002      	beq.n	800519c <HAL_SPI_Transmit+0x230>
  {
    hspi->ErrorCode = HAL_SPI_ERROR_FLAG;
 8005196:	68fb      	ldr	r3, [r7, #12]
 8005198:	2220      	movs	r2, #32
 800519a:	655a      	str	r2, [r3, #84]	; 0x54
  }

  /* Clear overrun flag in 2 Lines communication mode because received is not read */
  if (hspi->Init.Direction == SPI_DIRECTION_2LINES)
 800519c:	68fb      	ldr	r3, [r7, #12]
 800519e:	689b      	ldr	r3, [r3, #8]
 80051a0:	2b00      	cmp	r3, #0
 80051a2:	d10a      	bne.n	80051ba <HAL_SPI_Transmit+0x24e>
  {
    __HAL_SPI_CLEAR_OVRFLAG(hspi);
 80051a4:	2300      	movs	r3, #0
 80051a6:	613b      	str	r3, [r7, #16]
 80051a8:	68fb      	ldr	r3, [r7, #12]
 80051aa:	681b      	ldr	r3, [r3, #0]
 80051ac:	68db      	ldr	r3, [r3, #12]
 80051ae:	613b      	str	r3, [r7, #16]
 80051b0:	68fb      	ldr	r3, [r7, #12]
 80051b2:	681b      	ldr	r3, [r3, #0]
 80051b4:	689b      	ldr	r3, [r3, #8]
 80051b6:	613b      	str	r3, [r7, #16]
 80051b8:	693b      	ldr	r3, [r7, #16]
  }

  if (hspi->ErrorCode != HAL_SPI_ERROR_NONE)
 80051ba:	68fb      	ldr	r3, [r7, #12]
 80051bc:	6d5b      	ldr	r3, [r3, #84]	; 0x54
 80051be:	2b00      	cmp	r3, #0
 80051c0:	d002      	beq.n	80051c8 <HAL_SPI_Transmit+0x25c>
  {
    errorcode = HAL_ERROR;
 80051c2:	2301      	movs	r3, #1
 80051c4:	77fb      	strb	r3, [r7, #31]
 80051c6:	e000      	b.n	80051ca <HAL_SPI_Transmit+0x25e>
  }

error:
 80051c8:	bf00      	nop
  hspi->State = HAL_SPI_STATE_READY;
 80051ca:	68fb      	ldr	r3, [r7, #12]
 80051cc:	2201      	movs	r2, #1
 80051ce:	f883 2051 	strb.w	r2, [r3, #81]	; 0x51
  /* Process Unlocked */
  __HAL_UNLOCK(hspi);
 80051d2:	68fb      	ldr	r3, [r7, #12]
 80051d4:	2200      	movs	r2, #0
 80051d6:	f883 2050 	strb.w	r2, [r3, #80]	; 0x50
  return errorcode;
 80051da:	7ffb      	ldrb	r3, [r7, #31]
}
 80051dc:	4618      	mov	r0, r3
 80051de:	3720      	adds	r7, #32
 80051e0:	46bd      	mov	sp, r7
 80051e2:	bd80      	pop	{r7, pc}

080051e4 <HAL_SPI_Receive>:
  * @param  Size amount of data to be received
  * @param  Timeout Timeout duration
  * @retval HAL status
  */
HAL_StatusTypeDef HAL_SPI_Receive(SPI_HandleTypeDef *hspi, uint8_t *pData, uint16_t Size, uint32_t Timeout)
{
 80051e4:	b580      	push	{r7, lr}
 80051e6:	b088      	sub	sp, #32
 80051e8:	af02      	add	r7, sp, #8
 80051ea:	60f8      	str	r0, [r7, #12]
 80051ec:	60b9      	str	r1, [r7, #8]
 80051ee:	603b      	str	r3, [r7, #0]
 80051f0:	4613      	mov	r3, r2
 80051f2:	80fb      	strh	r3, [r7, #6]
  uint32_t tickstart;
  HAL_StatusTypeDef errorcode = HAL_OK;
 80051f4:	2300      	movs	r3, #0
 80051f6:	75fb      	strb	r3, [r7, #23]

  if ((hspi->Init.Mode == SPI_MODE_MASTER) && (hspi->Init.Direction == SPI_DIRECTION_2LINES))
 80051f8:	68fb      	ldr	r3, [r7, #12]
 80051fa:	685b      	ldr	r3, [r3, #4]
 80051fc:	f5b3 7f82 	cmp.w	r3, #260	; 0x104
 8005200:	d112      	bne.n	8005228 <HAL_SPI_Receive+0x44>
 8005202:	68fb      	ldr	r3, [r7, #12]
 8005204:	689b      	ldr	r3, [r3, #8]
 8005206:	2b00      	cmp	r3, #0
 8005208:	d10e      	bne.n	8005228 <HAL_SPI_Receive+0x44>
  {
    hspi->State = HAL_SPI_STATE_BUSY_RX;
 800520a:	68fb      	ldr	r3, [r7, #12]
 800520c:	2204      	movs	r2, #4
 800520e:	f883 2051 	strb.w	r2, [r3, #81]	; 0x51
    /* Call transmit-receive function to send Dummy data on Tx line and generate clock on CLK line */
    return HAL_SPI_TransmitReceive(hspi, pData, pData, Size, Timeout);
 8005212:	88fa      	ldrh	r2, [r7, #6]
 8005214:	683b      	ldr	r3, [r7, #0]
 8005216:	9300      	str	r3, [sp, #0]
 8005218:	4613      	mov	r3, r2
 800521a:	68ba      	ldr	r2, [r7, #8]
 800521c:	68b9      	ldr	r1, [r7, #8]
 800521e:	68f8      	ldr	r0, [r7, #12]
 8005220:	f000 f8f1 	bl	8005406 <HAL_SPI_TransmitReceive>
 8005224:	4603      	mov	r3, r0
 8005226:	e0ea      	b.n	80053fe <HAL_SPI_Receive+0x21a>
  }

  /* Process Locked */
  __HAL_LOCK(hspi);
 8005228:	68fb      	ldr	r3, [r7, #12]
 800522a:	f893 3050 	ldrb.w	r3, [r3, #80]	; 0x50
 800522e:	2b01      	cmp	r3, #1
 8005230:	d101      	bne.n	8005236 <HAL_SPI_Receive+0x52>
 8005232:	2302      	movs	r3, #2
 8005234:	e0e3      	b.n	80053fe <HAL_SPI_Receive+0x21a>
 8005236:	68fb      	ldr	r3, [r7, #12]
 8005238:	2201      	movs	r2, #1
 800523a:	f883 2050 	strb.w	r2, [r3, #80]	; 0x50

  /* Init tickstart for timeout management*/
  tickstart = HAL_GetTick();
 800523e:	f7fe fc2d 	bl	8003a9c <HAL_GetTick>
 8005242:	6138      	str	r0, [r7, #16]

  if (hspi->State != HAL_SPI_STATE_READY)
 8005244:	68fb      	ldr	r3, [r7, #12]
 8005246:	f893 3051 	ldrb.w	r3, [r3, #81]	; 0x51
 800524a:	b2db      	uxtb	r3, r3
 800524c:	2b01      	cmp	r3, #1
 800524e:	d002      	beq.n	8005256 <HAL_SPI_Receive+0x72>
  {
    errorcode = HAL_BUSY;
 8005250:	2302      	movs	r3, #2
 8005252:	75fb      	strb	r3, [r7, #23]
    goto error;
 8005254:	e0ca      	b.n	80053ec <HAL_SPI_Receive+0x208>
  }

  if ((pData == NULL) || (Size == 0U))
 8005256:	68bb      	ldr	r3, [r7, #8]
 8005258:	2b00      	cmp	r3, #0
 800525a:	d002      	beq.n	8005262 <HAL_SPI_Receive+0x7e>
 800525c:	88fb      	ldrh	r3, [r7, #6]
 800525e:	2b00      	cmp	r3, #0
 8005260:	d102      	bne.n	8005268 <HAL_SPI_Receive+0x84>
  {
    errorcode = HAL_ERROR;
 8005262:	2301      	movs	r3, #1
 8005264:	75fb      	strb	r3, [r7, #23]
    goto error;
 8005266:	e0c1      	b.n	80053ec <HAL_SPI_Receive+0x208>
  }

  /* Set the transaction information */
  hspi->State       = HAL_SPI_STATE_BUSY_RX;
 8005268:	68fb      	ldr	r3, [r7, #12]
 800526a:	2204      	movs	r2, #4
 800526c:	f883 2051 	strb.w	r2, [r3, #81]	; 0x51
  hspi->ErrorCode   = HAL_SPI_ERROR_NONE;
 8005270:	68fb      	ldr	r3, [r7, #12]
 8005272:	2200      	movs	r2, #0
 8005274:	655a      	str	r2, [r3, #84]	; 0x54
  hspi->pRxBuffPtr  = (uint8_t *)pData;
 8005276:	68fb      	ldr	r3, [r7, #12]
 8005278:	68ba      	ldr	r2, [r7, #8]
 800527a:	639a      	str	r2, [r3, #56]	; 0x38
  hspi->RxXferSize  = Size;
 800527c:	68fb      	ldr	r3, [r7, #12]
 800527e:	88fa      	ldrh	r2, [r7, #6]
 8005280:	879a      	strh	r2, [r3, #60]	; 0x3c
  hspi->RxXferCount = Size;
 8005282:	68fb      	ldr	r3, [r7, #12]
 8005284:	88fa      	ldrh	r2, [r7, #6]
 8005286:	87da      	strh	r2, [r3, #62]	; 0x3e

  /*Init field not used in handle to zero */
  hspi->pTxBuffPtr  = (uint8_t *)NULL;
 8005288:	68fb      	ldr	r3, [r7, #12]
 800528a:	2200      	movs	r2, #0
 800528c:	631a      	str	r2, [r3, #48]	; 0x30
  hspi->TxXferSize  = 0U;
 800528e:	68fb      	ldr	r3, [r7, #12]
 8005290:	2200      	movs	r2, #0
 8005292:	869a      	strh	r2, [r3, #52]	; 0x34
  hspi->TxXferCount = 0U;
 8005294:	68fb      	ldr	r3, [r7, #12]
 8005296:	2200      	movs	r2, #0
 8005298:	86da      	strh	r2, [r3, #54]	; 0x36
  hspi->RxISR       = NULL;
 800529a:	68fb      	ldr	r3, [r7, #12]
 800529c:	2200      	movs	r2, #0
 800529e:	641a      	str	r2, [r3, #64]	; 0x40
  hspi->TxISR       = NULL;
 80052a0:	68fb      	ldr	r3, [r7, #12]
 80052a2:	2200      	movs	r2, #0
 80052a4:	645a      	str	r2, [r3, #68]	; 0x44
    hspi->RxXferCount--;
  }
#endif /* USE_SPI_CRC */

  /* Configure communication direction: 1Line */
  if (hspi->Init.Direction == SPI_DIRECTION_1LINE)
 80052a6:	68fb      	ldr	r3, [r7, #12]
 80052a8:	689b      	ldr	r3, [r3, #8]
 80052aa:	f5b3 4f00 	cmp.w	r3, #32768	; 0x8000
 80052ae:	d10f      	bne.n	80052d0 <HAL_SPI_Receive+0xec>
  {
    /* Disable SPI Peripheral before set 1Line direction (BIDIOE bit) */
    __HAL_SPI_DISABLE(hspi);
 80052b0:	68fb      	ldr	r3, [r7, #12]
 80052b2:	681b      	ldr	r3, [r3, #0]
 80052b4:	681a      	ldr	r2, [r3, #0]
 80052b6:	68fb      	ldr	r3, [r7, #12]
 80052b8:	681b      	ldr	r3, [r3, #0]
 80052ba:	f022 0240 	bic.w	r2, r2, #64	; 0x40
 80052be:	601a      	str	r2, [r3, #0]
    SPI_1LINE_RX(hspi);
 80052c0:	68fb      	ldr	r3, [r7, #12]
 80052c2:	681b      	ldr	r3, [r3, #0]
 80052c4:	681a      	ldr	r2, [r3, #0]
 80052c6:	68fb      	ldr	r3, [r7, #12]
 80052c8:	681b      	ldr	r3, [r3, #0]
 80052ca:	f422 4280 	bic.w	r2, r2, #16384	; 0x4000
 80052ce:	601a      	str	r2, [r3, #0]
  }

  /* Check if the SPI is already enabled */
  if ((hspi->Instance->CR1 & SPI_CR1_SPE) != SPI_CR1_SPE)
 80052d0:	68fb      	ldr	r3, [r7, #12]
 80052d2:	681b      	ldr	r3, [r3, #0]
 80052d4:	681b      	ldr	r3, [r3, #0]
 80052d6:	f003 0340 	and.w	r3, r3, #64	; 0x40
 80052da:	2b40      	cmp	r3, #64	; 0x40
 80052dc:	d007      	beq.n	80052ee <HAL_SPI_Receive+0x10a>
  {
    /* Enable SPI peripheral */
    __HAL_SPI_ENABLE(hspi);
 80052de:	68fb      	ldr	r3, [r7, #12]
 80052e0:	681b      	ldr	r3, [r3, #0]
 80052e2:	681a      	ldr	r2, [r3, #0]
 80052e4:	68fb      	ldr	r3, [r7, #12]
 80052e6:	681b      	ldr	r3, [r3, #0]
 80052e8:	f042 0240 	orr.w	r2, r2, #64	; 0x40
 80052ec:	601a      	str	r2, [r3, #0]
  }

  /* Receive data in 8 Bit mode */
  if (hspi->Init.DataSize == SPI_DATASIZE_8BIT)
 80052ee:	68fb      	ldr	r3, [r7, #12]
 80052f0:	68db      	ldr	r3, [r3, #12]
 80052f2:	2b00      	cmp	r3, #0
 80052f4:	d162      	bne.n	80053bc <HAL_SPI_Receive+0x1d8>
  {
    /* Transfer loop */
    while (hspi->RxXferCount > 0U)
 80052f6:	e02e      	b.n	8005356 <HAL_SPI_Receive+0x172>
    {
      /* Check the RXNE flag */
      if (__HAL_SPI_GET_FLAG(hspi, SPI_FLAG_RXNE))
 80052f8:	68fb      	ldr	r3, [r7, #12]
 80052fa:	681b      	ldr	r3, [r3, #0]
 80052fc:	689b      	ldr	r3, [r3, #8]
 80052fe:	f003 0301 	and.w	r3, r3, #1
 8005302:	2b01      	cmp	r3, #1
 8005304:	d115      	bne.n	8005332 <HAL_SPI_Receive+0x14e>
      {
        /* read the received data */
        (* (uint8_t *)hspi->pRxBuffPtr) = *(__IO uint8_t *)&hspi->Instance->DR;
 8005306:	68fb      	ldr	r3, [r7, #12]
 8005308:	681b      	ldr	r3, [r3, #0]
 800530a:	f103 020c 	add.w	r2, r3, #12
 800530e:	68fb      	ldr	r3, [r7, #12]
 8005310:	6b9b      	ldr	r3, [r3, #56]	; 0x38
 8005312:	7812      	ldrb	r2, [r2, #0]
 8005314:	b2d2      	uxtb	r2, r2
 8005316:	701a      	strb	r2, [r3, #0]
        hspi->pRxBuffPtr += sizeof(uint8_t);
 8005318:	68fb      	ldr	r3, [r7, #12]
 800531a:	6b9b      	ldr	r3, [r3, #56]	; 0x38
 800531c:	1c5a      	adds	r2, r3, #1
 800531e:	68fb      	ldr	r3, [r7, #12]
 8005320:	639a      	str	r2, [r3, #56]	; 0x38
        hspi->RxXferCount--;
 8005322:	68fb      	ldr	r3, [r7, #12]
 8005324:	8fdb      	ldrh	r3, [r3, #62]	; 0x3e
 8005326:	b29b      	uxth	r3, r3
 8005328:	3b01      	subs	r3, #1
 800532a:	b29a      	uxth	r2, r3
 800532c:	68fb      	ldr	r3, [r7, #12]
 800532e:	87da      	strh	r2, [r3, #62]	; 0x3e
 8005330:	e011      	b.n	8005356 <HAL_SPI_Receive+0x172>
      }
      else
      {
        /* Timeout management */
        if ((((HAL_GetTick() - tickstart) >=  Timeout) && (Timeout != HAL_MAX_DELAY)) || (Timeout == 0U))
 8005332:	f7fe fbb3 	bl	8003a9c <HAL_GetTick>
 8005336:	4602      	mov	r2, r0
 8005338:	693b      	ldr	r3, [r7, #16]
 800533a:	1ad3      	subs	r3, r2, r3
 800533c:	683a      	ldr	r2, [r7, #0]
 800533e:	429a      	cmp	r2, r3
 8005340:	d803      	bhi.n	800534a <HAL_SPI_Receive+0x166>
 8005342:	683b      	ldr	r3, [r7, #0]
 8005344:	f1b3 3fff 	cmp.w	r3, #4294967295
 8005348:	d102      	bne.n	8005350 <HAL_SPI_Receive+0x16c>
 800534a:	683b      	ldr	r3, [r7, #0]
 800534c:	2b00      	cmp	r3, #0
 800534e:	d102      	bne.n	8005356 <HAL_SPI_Receive+0x172>
        {
          errorcode = HAL_TIMEOUT;
 8005350:	2303      	movs	r3, #3
 8005352:	75fb      	strb	r3, [r7, #23]
          goto error;
 8005354:	e04a      	b.n	80053ec <HAL_SPI_Receive+0x208>
    while (hspi->RxXferCount > 0U)
 8005356:	68fb      	ldr	r3, [r7, #12]
 8005358:	8fdb      	ldrh	r3, [r3, #62]	; 0x3e
 800535a:	b29b      	uxth	r3, r3
 800535c:	2b00      	cmp	r3, #0
 800535e:	d1cb      	bne.n	80052f8 <HAL_SPI_Receive+0x114>
 8005360:	e031      	b.n	80053c6 <HAL_SPI_Receive+0x1e2>
  {
    /* Transfer loop */
    while (hspi->RxXferCount > 0U)
    {
      /* Check the RXNE flag */
      if (__HAL_SPI_GET_FLAG(hspi, SPI_FLAG_RXNE))
 8005362:	68fb      	ldr	r3, [r7, #12]
 8005364:	681b      	ldr	r3, [r3, #0]
 8005366:	689b      	ldr	r3, [r3, #8]
 8005368:	f003 0301 	and.w	r3, r3, #1
 800536c:	2b01      	cmp	r3, #1
 800536e:	d113      	bne.n	8005398 <HAL_SPI_Receive+0x1b4>
      {
        *((uint16_t *)hspi->pRxBuffPtr) = (uint16_t)hspi->Instance->DR;
 8005370:	68fb      	ldr	r3, [r7, #12]
 8005372:	681b      	ldr	r3, [r3, #0]
 8005374:	68da      	ldr	r2, [r3, #12]
 8005376:	68fb      	ldr	r3, [r7, #12]
 8005378:	6b9b      	ldr	r3, [r3, #56]	; 0x38
 800537a:	b292      	uxth	r2, r2
 800537c:	801a      	strh	r2, [r3, #0]
        hspi->pRxBuffPtr += sizeof(uint16_t);
 800537e:	68fb      	ldr	r3, [r7, #12]
 8005380:	6b9b      	ldr	r3, [r3, #56]	; 0x38
 8005382:	1c9a      	adds	r2, r3, #2
 8005384:	68fb      	ldr	r3, [r7, #12]
 8005386:	639a      	str	r2, [r3, #56]	; 0x38
        hspi->RxXferCount--;
 8005388:	68fb      	ldr	r3, [r7, #12]
 800538a:	8fdb      	ldrh	r3, [r3, #62]	; 0x3e
 800538c:	b29b      	uxth	r3, r3
 800538e:	3b01      	subs	r3, #1
 8005390:	b29a      	uxth	r2, r3
 8005392:	68fb      	ldr	r3, [r7, #12]
 8005394:	87da      	strh	r2, [r3, #62]	; 0x3e
 8005396:	e011      	b.n	80053bc <HAL_SPI_Receive+0x1d8>
      }
      else
      {
        /* Timeout management */
        if ((((HAL_GetTick() - tickstart) >=  Timeout) && (Timeout != HAL_MAX_DELAY)) || (Timeout == 0U))
 8005398:	f7fe fb80 	bl	8003a9c <HAL_GetTick>
 800539c:	4602      	mov	r2, r0
 800539e:	693b      	ldr	r3, [r7, #16]
 80053a0:	1ad3      	subs	r3, r2, r3
 80053a2:	683a      	ldr	r2, [r7, #0]
 80053a4:	429a      	cmp	r2, r3
 80053a6:	d803      	bhi.n	80053b0 <HAL_SPI_Receive+0x1cc>
 80053a8:	683b      	ldr	r3, [r7, #0]
 80053aa:	f1b3 3fff 	cmp.w	r3, #4294967295
 80053ae:	d102      	bne.n	80053b6 <HAL_SPI_Receive+0x1d2>
 80053b0:	683b      	ldr	r3, [r7, #0]
 80053b2:	2b00      	cmp	r3, #0
 80053b4:	d102      	bne.n	80053bc <HAL_SPI_Receive+0x1d8>
        {
          errorcode = HAL_TIMEOUT;
 80053b6:	2303      	movs	r3, #3
 80053b8:	75fb      	strb	r3, [r7, #23]
          goto error;
 80053ba:	e017      	b.n	80053ec <HAL_SPI_Receive+0x208>
    while (hspi->RxXferCount > 0U)
 80053bc:	68fb      	ldr	r3, [r7, #12]
 80053be:	8fdb      	ldrh	r3, [r3, #62]	; 0x3e
 80053c0:	b29b      	uxth	r3, r3
 80053c2:	2b00      	cmp	r3, #0
 80053c4:	d1cd      	bne.n	8005362 <HAL_SPI_Receive+0x17e>
    READ_REG(hspi->Instance->DR);
  }
#endif /* USE_SPI_CRC */

  /* Check the end of the transaction */
  if (SPI_EndRxTransaction(hspi, Timeout, tickstart) != HAL_OK)
 80053c6:	693a      	ldr	r2, [r7, #16]
 80053c8:	6839      	ldr	r1, [r7, #0]
 80053ca:	68f8      	ldr	r0, [r7, #12]
 80053cc:	f000 fb4a 	bl	8005a64 <SPI_EndRxTransaction>
 80053d0:	4603      	mov	r3, r0
 80053d2:	2b00      	cmp	r3, #0
 80053d4:	d002      	beq.n	80053dc <HAL_SPI_Receive+0x1f8>
  {
    hspi->ErrorCode = HAL_SPI_ERROR_FLAG;
 80053d6:	68fb      	ldr	r3, [r7, #12]
 80053d8:	2220      	movs	r2, #32
 80053da:	655a      	str	r2, [r3, #84]	; 0x54
      __HAL_SPI_CLEAR_CRCERRFLAG(hspi);
    }
  }
#endif /* USE_SPI_CRC */

  if (hspi->ErrorCode != HAL_SPI_ERROR_NONE)
 80053dc:	68fb      	ldr	r3, [r7, #12]
 80053de:	6d5b      	ldr	r3, [r3, #84]	; 0x54
 80053e0:	2b00      	cmp	r3, #0
 80053e2:	d002      	beq.n	80053ea <HAL_SPI_Receive+0x206>
  {
    errorcode = HAL_ERROR;
 80053e4:	2301      	movs	r3, #1
 80053e6:	75fb      	strb	r3, [r7, #23]
 80053e8:	e000      	b.n	80053ec <HAL_SPI_Receive+0x208>
  }

error :
 80053ea:	bf00      	nop
  hspi->State = HAL_SPI_STATE_READY;
 80053ec:	68fb      	ldr	r3, [r7, #12]
 80053ee:	2201      	movs	r2, #1
 80053f0:	f883 2051 	strb.w	r2, [r3, #81]	; 0x51
  __HAL_UNLOCK(hspi);
 80053f4:	68fb      	ldr	r3, [r7, #12]
 80053f6:	2200      	movs	r2, #0
 80053f8:	f883 2050 	strb.w	r2, [r3, #80]	; 0x50
  return errorcode;
 80053fc:	7dfb      	ldrb	r3, [r7, #23]
}
 80053fe:	4618      	mov	r0, r3
 8005400:	3718      	adds	r7, #24
 8005402:	46bd      	mov	sp, r7
 8005404:	bd80      	pop	{r7, pc}

08005406 <HAL_SPI_TransmitReceive>:
  * @param  Timeout Timeout duration
  * @retval HAL status
  */
HAL_StatusTypeDef HAL_SPI_TransmitReceive(SPI_HandleTypeDef *hspi, uint8_t *pTxData, uint8_t *pRxData, uint16_t Size,
                                          uint32_t Timeout)
{
 8005406:	b580      	push	{r7, lr}
 8005408:	b08c      	sub	sp, #48	; 0x30
 800540a:	af00      	add	r7, sp, #0
 800540c:	60f8      	str	r0, [r7, #12]
 800540e:	60b9      	str	r1, [r7, #8]
 8005410:	607a      	str	r2, [r7, #4]
 8005412:	807b      	strh	r3, [r7, #2]
  uint32_t             tmp_mode;
  HAL_SPI_StateTypeDef tmp_state;
  uint32_t             tickstart;

  /* Variable used to alternate Rx and Tx during transfer */
  uint32_t             txallowed = 1U;
 8005414:	2301      	movs	r3, #1
 8005416:	62fb      	str	r3, [r7, #44]	; 0x2c
  HAL_StatusTypeDef    errorcode = HAL_OK;
 8005418:	2300      	movs	r3, #0
 800541a:	f887 302b 	strb.w	r3, [r7, #43]	; 0x2b

  /* Check Direction parameter */
  assert_param(IS_SPI_DIRECTION_2LINES(hspi->Init.Direction));

  /* Process Locked */
  __HAL_LOCK(hspi);
 800541e:	68fb      	ldr	r3, [r7, #12]
 8005420:	f893 3050 	ldrb.w	r3, [r3, #80]	; 0x50
 8005424:	2b01      	cmp	r3, #1
 8005426:	d101      	bne.n	800542c <HAL_SPI_TransmitReceive+0x26>
 8005428:	2302      	movs	r3, #2
 800542a:	e18a      	b.n	8005742 <HAL_SPI_TransmitReceive+0x33c>
 800542c:	68fb      	ldr	r3, [r7, #12]
 800542e:	2201      	movs	r2, #1
 8005430:	f883 2050 	strb.w	r2, [r3, #80]	; 0x50

  /* Init tickstart for timeout management*/
  tickstart = HAL_GetTick();
 8005434:	f7fe fb32 	bl	8003a9c <HAL_GetTick>
 8005438:	6278      	str	r0, [r7, #36]	; 0x24

  /* Init temporary variables */
  tmp_state           = hspi->State;
 800543a:	68fb      	ldr	r3, [r7, #12]
 800543c:	f893 3051 	ldrb.w	r3, [r3, #81]	; 0x51
 8005440:	f887 3023 	strb.w	r3, [r7, #35]	; 0x23
  tmp_mode            = hspi->Init.Mode;
 8005444:	68fb      	ldr	r3, [r7, #12]
 8005446:	685b      	ldr	r3, [r3, #4]
 8005448:	61fb      	str	r3, [r7, #28]
  initial_TxXferCount = Size;
 800544a:	887b      	ldrh	r3, [r7, #2]
 800544c:	837b      	strh	r3, [r7, #26]

  if (!((tmp_state == HAL_SPI_STATE_READY) || \
 800544e:	f897 3023 	ldrb.w	r3, [r7, #35]	; 0x23
 8005452:	2b01      	cmp	r3, #1
 8005454:	d00f      	beq.n	8005476 <HAL_SPI_TransmitReceive+0x70>
 8005456:	69fb      	ldr	r3, [r7, #28]
 8005458:	f5b3 7f82 	cmp.w	r3, #260	; 0x104
 800545c:	d107      	bne.n	800546e <HAL_SPI_TransmitReceive+0x68>
        ((tmp_mode == SPI_MODE_MASTER) && (hspi->Init.Direction == SPI_DIRECTION_2LINES) && (tmp_state == HAL_SPI_STATE_BUSY_RX))))
 800545e:	68fb      	ldr	r3, [r7, #12]
 8005460:	689b      	ldr	r3, [r3, #8]
 8005462:	2b00      	cmp	r3, #0
 8005464:	d103      	bne.n	800546e <HAL_SPI_TransmitReceive+0x68>
 8005466:	f897 3023 	ldrb.w	r3, [r7, #35]	; 0x23
 800546a:	2b04      	cmp	r3, #4
 800546c:	d003      	beq.n	8005476 <HAL_SPI_TransmitReceive+0x70>
  {
    errorcode = HAL_BUSY;
 800546e:	2302      	movs	r3, #2
 8005470:	f887 302b 	strb.w	r3, [r7, #43]	; 0x2b
    goto error;
 8005474:	e15b      	b.n	800572e <HAL_SPI_TransmitReceive+0x328>
  }

  if ((pTxData == NULL) || (pRxData == NULL) || (Size == 0U))
 8005476:	68bb      	ldr	r3, [r7, #8]
 8005478:	2b00      	cmp	r3, #0
 800547a:	d005      	beq.n	8005488 <HAL_SPI_TransmitReceive+0x82>
 800547c:	687b      	ldr	r3, [r7, #4]
 800547e:	2b00      	cmp	r3, #0
 8005480:	d002      	beq.n	8005488 <HAL_SPI_TransmitReceive+0x82>
 8005482:	887b      	ldrh	r3, [r7, #2]
 8005484:	2b00      	cmp	r3, #0
 8005486:	d103      	bne.n	8005490 <HAL_SPI_TransmitReceive+0x8a>
  {
    errorcode = HAL_ERROR;
 8005488:	2301      	movs	r3, #1
 800548a:	f887 302b 	strb.w	r3, [r7, #43]	; 0x2b
    goto error;
 800548e:	e14e      	b.n	800572e <HAL_SPI_TransmitReceive+0x328>
  }

  /* Don't overwrite in case of HAL_SPI_STATE_BUSY_RX */
  if (hspi->State != HAL_SPI_STATE_BUSY_RX)
 8005490:	68fb      	ldr	r3, [r7, #12]
 8005492:	f893 3051 	ldrb.w	r3, [r3, #81]	; 0x51
 8005496:	b2db      	uxtb	r3, r3
 8005498:	2b04      	cmp	r3, #4
 800549a:	d003      	beq.n	80054a4 <HAL_SPI_TransmitReceive+0x9e>
  {
    hspi->State = HAL_SPI_STATE_BUSY_TX_RX;
 800549c:	68fb      	ldr	r3, [r7, #12]
 800549e:	2205      	movs	r2, #5
 80054a0:	f883 2051 	strb.w	r2, [r3, #81]	; 0x51
  }

  /* Set the transaction information */
  hspi->ErrorCode   = HAL_SPI_ERROR_NONE;
 80054a4:	68fb      	ldr	r3, [r7, #12]
 80054a6:	2200      	movs	r2, #0
 80054a8:	655a      	str	r2, [r3, #84]	; 0x54
  hspi->pRxBuffPtr  = (uint8_t *)pRxData;
 80054aa:	68fb      	ldr	r3, [r7, #12]
 80054ac:	687a      	ldr	r2, [r7, #4]
 80054ae:	639a      	str	r2, [r3, #56]	; 0x38
  hspi->RxXferCount = Size;
 80054b0:	68fb      	ldr	r3, [r7, #12]
 80054b2:	887a      	ldrh	r2, [r7, #2]
 80054b4:	87da      	strh	r2, [r3, #62]	; 0x3e
  hspi->RxXferSize  = Size;
 80054b6:	68fb      	ldr	r3, [r7, #12]
 80054b8:	887a      	ldrh	r2, [r7, #2]
 80054ba:	879a      	strh	r2, [r3, #60]	; 0x3c
  hspi->pTxBuffPtr  = (uint8_t *)pTxData;
 80054bc:	68fb      	ldr	r3, [r7, #12]
 80054be:	68ba      	ldr	r2, [r7, #8]
 80054c0:	631a      	str	r2, [r3, #48]	; 0x30
  hspi->TxXferCount = Size;
 80054c2:	68fb      	ldr	r3, [r7, #12]
 80054c4:	887a      	ldrh	r2, [r7, #2]
 80054c6:	86da      	strh	r2, [r3, #54]	; 0x36
  hspi->TxXferSize  = Size;
 80054c8:	68fb      	ldr	r3, [r7, #12]
 80054ca:	887a      	ldrh	r2, [r7, #2]
 80054cc:	869a      	strh	r2, [r3, #52]	; 0x34

  /*Init field not used in handle to zero */
  hspi->RxISR       = NULL;
 80054ce:	68fb      	ldr	r3, [r7, #12]
 80054d0:	2200      	movs	r2, #0
 80054d2:	641a      	str	r2, [r3, #64]	; 0x40
  hspi->TxISR       = NULL;
 80054d4:	68fb      	ldr	r3, [r7, #12]
 80054d6:	2200      	movs	r2, #0
 80054d8:	645a      	str	r2, [r3, #68]	; 0x44
    SPI_RESET_CRC(hspi);
  }
#endif /* USE_SPI_CRC */

  /* Check if the SPI is already enabled */
  if ((hspi->Instance->CR1 & SPI_CR1_SPE) != SPI_CR1_SPE)
 80054da:	68fb      	ldr	r3, [r7, #12]
 80054dc:	681b      	ldr	r3, [r3, #0]
 80054de:	681b      	ldr	r3, [r3, #0]
 80054e0:	f003 0340 	and.w	r3, r3, #64	; 0x40
 80054e4:	2b40      	cmp	r3, #64	; 0x40
 80054e6:	d007      	beq.n	80054f8 <HAL_SPI_TransmitReceive+0xf2>
  {
    /* Enable SPI peripheral */
    __HAL_SPI_ENABLE(hspi);
 80054e8:	68fb      	ldr	r3, [r7, #12]
 80054ea:	681b      	ldr	r3, [r3, #0]
 80054ec:	681a      	ldr	r2, [r3, #0]
 80054ee:	68fb      	ldr	r3, [r7, #12]
 80054f0:	681b      	ldr	r3, [r3, #0]
 80054f2:	f042 0240 	orr.w	r2, r2, #64	; 0x40
 80054f6:	601a      	str	r2, [r3, #0]
  }

  /* Transmit and Receive data in 16 Bit mode */
  if (hspi->Init.DataSize == SPI_DATASIZE_16BIT)
 80054f8:	68fb      	ldr	r3, [r7, #12]
 80054fa:	68db      	ldr	r3, [r3, #12]
 80054fc:	f5b3 6f00 	cmp.w	r3, #2048	; 0x800
 8005500:	d178      	bne.n	80055f4 <HAL_SPI_TransmitReceive+0x1ee>
  {
    if ((hspi->Init.Mode == SPI_MODE_SLAVE) || (initial_TxXferCount == 0x01U))
 8005502:	68fb      	ldr	r3, [r7, #12]
 8005504:	685b      	ldr	r3, [r3, #4]
 8005506:	2b00      	cmp	r3, #0
 8005508:	d002      	beq.n	8005510 <HAL_SPI_TransmitReceive+0x10a>
 800550a:	8b7b      	ldrh	r3, [r7, #26]
 800550c:	2b01      	cmp	r3, #1
 800550e:	d166      	bne.n	80055de <HAL_SPI_TransmitReceive+0x1d8>
    {
      hspi->Instance->DR = *((uint16_t *)hspi->pTxBuffPtr);
 8005510:	68fb      	ldr	r3, [r7, #12]
 8005512:	6b1b      	ldr	r3, [r3, #48]	; 0x30
 8005514:	881a      	ldrh	r2, [r3, #0]
 8005516:	68fb      	ldr	r3, [r7, #12]
 8005518:	681b      	ldr	r3, [r3, #0]
 800551a:	60da      	str	r2, [r3, #12]
      hspi->pTxBuffPtr += sizeof(uint16_t);
 800551c:	68fb      	ldr	r3, [r7, #12]
 800551e:	6b1b      	ldr	r3, [r3, #48]	; 0x30
 8005520:	1c9a      	adds	r2, r3, #2
 8005522:	68fb      	ldr	r3, [r7, #12]
 8005524:	631a      	str	r2, [r3, #48]	; 0x30
      hspi->TxXferCount--;
 8005526:	68fb      	ldr	r3, [r7, #12]
 8005528:	8edb      	ldrh	r3, [r3, #54]	; 0x36
 800552a:	b29b      	uxth	r3, r3
 800552c:	3b01      	subs	r3, #1
 800552e:	b29a      	uxth	r2, r3
 8005530:	68fb      	ldr	r3, [r7, #12]
 8005532:	86da      	strh	r2, [r3, #54]	; 0x36
    }
    while ((hspi->TxXferCount > 0U) || (hspi->RxXferCount > 0U))
 8005534:	e053      	b.n	80055de <HAL_SPI_TransmitReceive+0x1d8>
    {
      /* Check TXE flag */
      if ((__HAL_SPI_GET_FLAG(hspi, SPI_FLAG_TXE)) && (hspi->TxXferCount > 0U) && (txallowed == 1U))
 8005536:	68fb      	ldr	r3, [r7, #12]
 8005538:	681b      	ldr	r3, [r3, #0]
 800553a:	689b      	ldr	r3, [r3, #8]
 800553c:	f003 0302 	and.w	r3, r3, #2
 8005540:	2b02      	cmp	r3, #2
 8005542:	d11b      	bne.n	800557c <HAL_SPI_TransmitReceive+0x176>
 8005544:	68fb      	ldr	r3, [r7, #12]
 8005546:	8edb      	ldrh	r3, [r3, #54]	; 0x36
 8005548:	b29b      	uxth	r3, r3
 800554a:	2b00      	cmp	r3, #0
 800554c:	d016      	beq.n	800557c <HAL_SPI_TransmitReceive+0x176>
 800554e:	6afb      	ldr	r3, [r7, #44]	; 0x2c
 8005550:	2b01      	cmp	r3, #1
 8005552:	d113      	bne.n	800557c <HAL_SPI_TransmitReceive+0x176>
      {
        hspi->Instance->DR = *((uint16_t *)hspi->pTxBuffPtr);
 8005554:	68fb      	ldr	r3, [r7, #12]
 8005556:	6b1b      	ldr	r3, [r3, #48]	; 0x30
 8005558:	881a      	ldrh	r2, [r3, #0]
 800555a:	68fb      	ldr	r3, [r7, #12]
 800555c:	681b      	ldr	r3, [r3, #0]
 800555e:	60da      	str	r2, [r3, #12]
        hspi->pTxBuffPtr += sizeof(uint16_t);
 8005560:	68fb      	ldr	r3, [r7, #12]
 8005562:	6b1b      	ldr	r3, [r3, #48]	; 0x30
 8005564:	1c9a      	adds	r2, r3, #2
 8005566:	68fb      	ldr	r3, [r7, #12]
 8005568:	631a      	str	r2, [r3, #48]	; 0x30
        hspi->TxXferCount--;
 800556a:	68fb      	ldr	r3, [r7, #12]
 800556c:	8edb      	ldrh	r3, [r3, #54]	; 0x36
 800556e:	b29b      	uxth	r3, r3
 8005570:	3b01      	subs	r3, #1
 8005572:	b29a      	uxth	r2, r3
 8005574:	68fb      	ldr	r3, [r7, #12]
 8005576:	86da      	strh	r2, [r3, #54]	; 0x36
        /* Next Data is a reception (Rx). Tx not allowed */
        txallowed = 0U;
 8005578:	2300      	movs	r3, #0
 800557a:	62fb      	str	r3, [r7, #44]	; 0x2c
        }
#endif /* USE_SPI_CRC */
      }

      /* Check RXNE flag */
      if ((__HAL_SPI_GET_FLAG(hspi, SPI_FLAG_RXNE)) && (hspi->RxXferCount > 0U))
 800557c:	68fb      	ldr	r3, [r7, #12]
 800557e:	681b      	ldr	r3, [r3, #0]
 8005580:	689b      	ldr	r3, [r3, #8]
 8005582:	f003 0301 	and.w	r3, r3, #1
 8005586:	2b01      	cmp	r3, #1
 8005588:	d119      	bne.n	80055be <HAL_SPI_TransmitReceive+0x1b8>
 800558a:	68fb      	ldr	r3, [r7, #12]
 800558c:	8fdb      	ldrh	r3, [r3, #62]	; 0x3e
 800558e:	b29b      	uxth	r3, r3
 8005590:	2b00      	cmp	r3, #0
 8005592:	d014      	beq.n	80055be <HAL_SPI_TransmitReceive+0x1b8>
      {
        *((uint16_t *)hspi->pRxBuffPtr) = (uint16_t)hspi->Instance->DR;
 8005594:	68fb      	ldr	r3, [r7, #12]
 8005596:	681b      	ldr	r3, [r3, #0]
 8005598:	68da      	ldr	r2, [r3, #12]
 800559a:	68fb      	ldr	r3, [r7, #12]
 800559c:	6b9b      	ldr	r3, [r3, #56]	; 0x38
 800559e:	b292      	uxth	r2, r2
 80055a0:	801a      	strh	r2, [r3, #0]
        hspi->pRxBuffPtr += sizeof(uint16_t);
 80055a2:	68fb      	ldr	r3, [r7, #12]
 80055a4:	6b9b      	ldr	r3, [r3, #56]	; 0x38
 80055a6:	1c9a      	adds	r2, r3, #2
 80055a8:	68fb      	ldr	r3, [r7, #12]
 80055aa:	639a      	str	r2, [r3, #56]	; 0x38
        hspi->RxXferCount--;
 80055ac:	68fb      	ldr	r3, [r7, #12]
 80055ae:	8fdb      	ldrh	r3, [r3, #62]	; 0x3e
 80055b0:	b29b      	uxth	r3, r3
 80055b2:	3b01      	subs	r3, #1
 80055b4:	b29a      	uxth	r2, r3
 80055b6:	68fb      	ldr	r3, [r7, #12]
 80055b8:	87da      	strh	r2, [r3, #62]	; 0x3e
        /* Next Data is a Transmission (Tx). Tx is allowed */
        txallowed = 1U;
 80055ba:	2301      	movs	r3, #1
 80055bc:	62fb      	str	r3, [r7, #44]	; 0x2c
      }
      if (((HAL_GetTick() - tickstart) >=  Timeout) && (Timeout != HAL_MAX_DELAY))
 80055be:	f7fe fa6d 	bl	8003a9c <HAL_GetTick>
 80055c2:	4602      	mov	r2, r0
 80055c4:	6a7b      	ldr	r3, [r7, #36]	; 0x24
 80055c6:	1ad3      	subs	r3, r2, r3
 80055c8:	6bba      	ldr	r2, [r7, #56]	; 0x38
 80055ca:	429a      	cmp	r2, r3
 80055cc:	d807      	bhi.n	80055de <HAL_SPI_TransmitReceive+0x1d8>
 80055ce:	6bbb      	ldr	r3, [r7, #56]	; 0x38
 80055d0:	f1b3 3fff 	cmp.w	r3, #4294967295
 80055d4:	d003      	beq.n	80055de <HAL_SPI_TransmitReceive+0x1d8>
      {
        errorcode = HAL_TIMEOUT;
 80055d6:	2303      	movs	r3, #3
 80055d8:	f887 302b 	strb.w	r3, [r7, #43]	; 0x2b
        goto error;
 80055dc:	e0a7      	b.n	800572e <HAL_SPI_TransmitReceive+0x328>
    while ((hspi->TxXferCount > 0U) || (hspi->RxXferCount > 0U))
 80055de:	68fb      	ldr	r3, [r7, #12]
 80055e0:	8edb      	ldrh	r3, [r3, #54]	; 0x36
 80055e2:	b29b      	uxth	r3, r3
 80055e4:	2b00      	cmp	r3, #0
 80055e6:	d1a6      	bne.n	8005536 <HAL_SPI_TransmitReceive+0x130>
 80055e8:	68fb      	ldr	r3, [r7, #12]
 80055ea:	8fdb      	ldrh	r3, [r3, #62]	; 0x3e
 80055ec:	b29b      	uxth	r3, r3
 80055ee:	2b00      	cmp	r3, #0
 80055f0:	d1a1      	bne.n	8005536 <HAL_SPI_TransmitReceive+0x130>
 80055f2:	e07c      	b.n	80056ee <HAL_SPI_TransmitReceive+0x2e8>
    }
  }
  /* Transmit and Receive data in 8 Bit mode */
  else
  {
    if ((hspi->Init.Mode == SPI_MODE_SLAVE) || (initial_TxXferCount == 0x01U))
 80055f4:	68fb      	ldr	r3, [r7, #12]
 80055f6:	685b      	ldr	r3, [r3, #4]
 80055f8:	2b00      	cmp	r3, #0
 80055fa:	d002      	beq.n	8005602 <HAL_SPI_TransmitReceive+0x1fc>
 80055fc:	8b7b      	ldrh	r3, [r7, #26]
 80055fe:	2b01      	cmp	r3, #1
 8005600:	d16b      	bne.n	80056da <HAL_SPI_TransmitReceive+0x2d4>
    {
      *((__IO uint8_t *)&hspi->Instance->DR) = (*hspi->pTxBuffPtr);
 8005602:	68fb      	ldr	r3, [r7, #12]
 8005604:	6b1a      	ldr	r2, [r3, #48]	; 0x30
 8005606:	68fb      	ldr	r3, [r7, #12]
 8005608:	681b      	ldr	r3, [r3, #0]
 800560a:	330c      	adds	r3, #12
 800560c:	7812      	ldrb	r2, [r2, #0]
 800560e:	701a      	strb	r2, [r3, #0]
      hspi->pTxBuffPtr += sizeof(uint8_t);
 8005610:	68fb      	ldr	r3, [r7, #12]
 8005612:	6b1b      	ldr	r3, [r3, #48]	; 0x30
 8005614:	1c5a      	adds	r2, r3, #1
 8005616:	68fb      	ldr	r3, [r7, #12]
 8005618:	631a      	str	r2, [r3, #48]	; 0x30
      hspi->TxXferCount--;
 800561a:	68fb      	ldr	r3, [r7, #12]
 800561c:	8edb      	ldrh	r3, [r3, #54]	; 0x36
 800561e:	b29b      	uxth	r3, r3
 8005620:	3b01      	subs	r3, #1
 8005622:	b29a      	uxth	r2, r3
 8005624:	68fb      	ldr	r3, [r7, #12]
 8005626:	86da      	strh	r2, [r3, #54]	; 0x36
    }
    while ((hspi->TxXferCount > 0U) || (hspi->RxXferCount > 0U))
 8005628:	e057      	b.n	80056da <HAL_SPI_TransmitReceive+0x2d4>
    {
      /* Check TXE flag */
      if ((__HAL_SPI_GET_FLAG(hspi, SPI_FLAG_TXE)) && (hspi->TxXferCount > 0U) && (txallowed == 1U))
 800562a:	68fb      	ldr	r3, [r7, #12]
 800562c:	681b      	ldr	r3, [r3, #0]
 800562e:	689b      	ldr	r3, [r3, #8]
 8005630:	f003 0302 	and.w	r3, r3, #2
 8005634:	2b02      	cmp	r3, #2
 8005636:	d11c      	bne.n	8005672 <HAL_SPI_TransmitReceive+0x26c>
 8005638:	68fb      	ldr	r3, [r7, #12]
 800563a:	8edb      	ldrh	r3, [r3, #54]	; 0x36
 800563c:	b29b      	uxth	r3, r3
 800563e:	2b00      	cmp	r3, #0
 8005640:	d017      	beq.n	8005672 <HAL_SPI_TransmitReceive+0x26c>
 8005642:	6afb      	ldr	r3, [r7, #44]	; 0x2c
 8005644:	2b01      	cmp	r3, #1
 8005646:	d114      	bne.n	8005672 <HAL_SPI_TransmitReceive+0x26c>
      {
        *(__IO uint8_t *)&hspi->Instance->DR = (*hspi->pTxBuffPtr);
 8005648:	68fb      	ldr	r3, [r7, #12]
 800564a:	6b1a      	ldr	r2, [r3, #48]	; 0x30
 800564c:	68fb      	ldr	r3, [r7, #12]
 800564e:	681b      	ldr	r3, [r3, #0]
 8005650:	330c      	adds	r3, #12
 8005652:	7812      	ldrb	r2, [r2, #0]
 8005654:	701a      	strb	r2, [r3, #0]
        hspi->pTxBuffPtr++;
 8005656:	68fb      	ldr	r3, [r7, #12]
 8005658:	6b1b      	ldr	r3, [r3, #48]	; 0x30
 800565a:	1c5a      	adds	r2, r3, #1
 800565c:	68fb      	ldr	r3, [r7, #12]
 800565e:	631a      	str	r2, [r3, #48]	; 0x30
        hspi->TxXferCount--;
 8005660:	68fb      	ldr	r3, [r7, #12]
 8005662:	8edb      	ldrh	r3, [r3, #54]	; 0x36
 8005664:	b29b      	uxth	r3, r3
 8005666:	3b01      	subs	r3, #1
 8005668:	b29a      	uxth	r2, r3
 800566a:	68fb      	ldr	r3, [r7, #12]
 800566c:	86da      	strh	r2, [r3, #54]	; 0x36
        /* Next Data is a reception (Rx). Tx not allowed */
        txallowed = 0U;
 800566e:	2300      	movs	r3, #0
 8005670:	62fb      	str	r3, [r7, #44]	; 0x2c
        }
#endif /* USE_SPI_CRC */
      }

      /* Wait until RXNE flag is reset */
      if ((__HAL_SPI_GET_FLAG(hspi, SPI_FLAG_RXNE)) && (hspi->RxXferCount > 0U))
 8005672:	68fb      	ldr	r3, [r7, #12]
 8005674:	681b      	ldr	r3, [r3, #0]
 8005676:	689b      	ldr	r3, [r3, #8]
 8005678:	f003 0301 	and.w	r3, r3, #1
 800567c:	2b01      	cmp	r3, #1
 800567e:	d119      	bne.n	80056b4 <HAL_SPI_TransmitReceive+0x2ae>
 8005680:	68fb      	ldr	r3, [r7, #12]
 8005682:	8fdb      	ldrh	r3, [r3, #62]	; 0x3e
 8005684:	b29b      	uxth	r3, r3
 8005686:	2b00      	cmp	r3, #0
 8005688:	d014      	beq.n	80056b4 <HAL_SPI_TransmitReceive+0x2ae>
      {
        (*(uint8_t *)hspi->pRxBuffPtr) = hspi->Instance->DR;
 800568a:	68fb      	ldr	r3, [r7, #12]
 800568c:	681b      	ldr	r3, [r3, #0]
 800568e:	68da      	ldr	r2, [r3, #12]
 8005690:	68fb      	ldr	r3, [r7, #12]
 8005692:	6b9b      	ldr	r3, [r3, #56]	; 0x38
 8005694:	b2d2      	uxtb	r2, r2
 8005696:	701a      	strb	r2, [r3, #0]
        hspi->pRxBuffPtr++;
 8005698:	68fb      	ldr	r3, [r7, #12]
 800569a:	6b9b      	ldr	r3, [r3, #56]	; 0x38
 800569c:	1c5a      	adds	r2, r3, #1
 800569e:	68fb      	ldr	r3, [r7, #12]
 80056a0:	639a      	str	r2, [r3, #56]	; 0x38
        hspi->RxXferCount--;
 80056a2:	68fb      	ldr	r3, [r7, #12]
 80056a4:	8fdb      	ldrh	r3, [r3, #62]	; 0x3e
 80056a6:	b29b      	uxth	r3, r3
 80056a8:	3b01      	subs	r3, #1
 80056aa:	b29a      	uxth	r2, r3
 80056ac:	68fb      	ldr	r3, [r7, #12]
 80056ae:	87da      	strh	r2, [r3, #62]	; 0x3e
        /* Next Data is a Transmission (Tx). Tx is allowed */
        txallowed = 1U;
 80056b0:	2301      	movs	r3, #1
 80056b2:	62fb      	str	r3, [r7, #44]	; 0x2c
      }
      if ((((HAL_GetTick() - tickstart) >=  Timeout) && ((Timeout != HAL_MAX_DELAY))) || (Timeout == 0U))
 80056b4:	f7fe f9f2 	bl	8003a9c <HAL_GetTick>
 80056b8:	4602      	mov	r2, r0
 80056ba:	6a7b      	ldr	r3, [r7, #36]	; 0x24
 80056bc:	1ad3      	subs	r3, r2, r3
 80056be:	6bba      	ldr	r2, [r7, #56]	; 0x38
 80056c0:	429a      	cmp	r2, r3
 80056c2:	d803      	bhi.n	80056cc <HAL_SPI_TransmitReceive+0x2c6>
 80056c4:	6bbb      	ldr	r3, [r7, #56]	; 0x38
 80056c6:	f1b3 3fff 	cmp.w	r3, #4294967295
 80056ca:	d102      	bne.n	80056d2 <HAL_SPI_TransmitReceive+0x2cc>
 80056cc:	6bbb      	ldr	r3, [r7, #56]	; 0x38
 80056ce:	2b00      	cmp	r3, #0
 80056d0:	d103      	bne.n	80056da <HAL_SPI_TransmitReceive+0x2d4>
      {
        errorcode = HAL_TIMEOUT;
 80056d2:	2303      	movs	r3, #3
 80056d4:	f887 302b 	strb.w	r3, [r7, #43]	; 0x2b
        goto error;
 80056d8:	e029      	b.n	800572e <HAL_SPI_TransmitReceive+0x328>
    while ((hspi->TxXferCount > 0U) || (hspi->RxXferCount > 0U))
 80056da:	68fb      	ldr	r3, [r7, #12]
 80056dc:	8edb      	ldrh	r3, [r3, #54]	; 0x36
 80056de:	b29b      	uxth	r3, r3
 80056e0:	2b00      	cmp	r3, #0
 80056e2:	d1a2      	bne.n	800562a <HAL_SPI_TransmitReceive+0x224>
 80056e4:	68fb      	ldr	r3, [r7, #12]
 80056e6:	8fdb      	ldrh	r3, [r3, #62]	; 0x3e
 80056e8:	b29b      	uxth	r3, r3
 80056ea:	2b00      	cmp	r3, #0
 80056ec:	d19d      	bne.n	800562a <HAL_SPI_TransmitReceive+0x224>
    }
  }
#endif /* USE_SPI_CRC */

  /* Check the end of the transaction */
  if (SPI_EndRxTxTransaction(hspi, Timeout, tickstart) != HAL_OK)
 80056ee:	6a7a      	ldr	r2, [r7, #36]	; 0x24
 80056f0:	6bb9      	ldr	r1, [r7, #56]	; 0x38
 80056f2:	68f8      	ldr	r0, [r7, #12]
 80056f4:	f000 fa08 	bl	8005b08 <SPI_EndRxTxTransaction>
 80056f8:	4603      	mov	r3, r0
 80056fa:	2b00      	cmp	r3, #0
 80056fc:	d006      	beq.n	800570c <HAL_SPI_TransmitReceive+0x306>
  {
    errorcode = HAL_ERROR;
 80056fe:	2301      	movs	r3, #1
 8005700:	f887 302b 	strb.w	r3, [r7, #43]	; 0x2b
    hspi->ErrorCode = HAL_SPI_ERROR_FLAG;
 8005704:	68fb      	ldr	r3, [r7, #12]
 8005706:	2220      	movs	r2, #32
 8005708:	655a      	str	r2, [r3, #84]	; 0x54
    goto error;
 800570a:	e010      	b.n	800572e <HAL_SPI_TransmitReceive+0x328>
  }

  /* Clear overrun flag in 2 Lines communication mode because received is not read */
  if (hspi->Init.Direction == SPI_DIRECTION_2LINES)
 800570c:	68fb      	ldr	r3, [r7, #12]
 800570e:	689b      	ldr	r3, [r3, #8]
 8005710:	2b00      	cmp	r3, #0
 8005712:	d10b      	bne.n	800572c <HAL_SPI_TransmitReceive+0x326>
  {
    __HAL_SPI_CLEAR_OVRFLAG(hspi);
 8005714:	2300      	movs	r3, #0
 8005716:	617b      	str	r3, [r7, #20]
 8005718:	68fb      	ldr	r3, [r7, #12]
 800571a:	681b      	ldr	r3, [r3, #0]
 800571c:	68db      	ldr	r3, [r3, #12]
 800571e:	617b      	str	r3, [r7, #20]
 8005720:	68fb      	ldr	r3, [r7, #12]
 8005722:	681b      	ldr	r3, [r3, #0]
 8005724:	689b      	ldr	r3, [r3, #8]
 8005726:	617b      	str	r3, [r7, #20]
 8005728:	697b      	ldr	r3, [r7, #20]
 800572a:	e000      	b.n	800572e <HAL_SPI_TransmitReceive+0x328>
  }

error :
 800572c:	bf00      	nop
  hspi->State = HAL_SPI_STATE_READY;
 800572e:	68fb      	ldr	r3, [r7, #12]
 8005730:	2201      	movs	r2, #1
 8005732:	f883 2051 	strb.w	r2, [r3, #81]	; 0x51
  __HAL_UNLOCK(hspi);
 8005736:	68fb      	ldr	r3, [r7, #12]
 8005738:	2200      	movs	r2, #0
 800573a:	f883 2050 	strb.w	r2, [r3, #80]	; 0x50
  return errorcode;
 800573e:	f897 302b 	ldrb.w	r3, [r7, #43]	; 0x2b
}
 8005742:	4618      	mov	r0, r3
 8005744:	3730      	adds	r7, #48	; 0x30
 8005746:	46bd      	mov	sp, r7
 8005748:	bd80      	pop	{r7, pc}
	...

0800574c <HAL_SPI_IRQHandler>:
  * @param  hspi pointer to a SPI_HandleTypeDef structure that contains
  *               the configuration information for the specified SPI module.
  * @retval None
  */
void HAL_SPI_IRQHandler(SPI_HandleTypeDef *hspi)
{
 800574c:	b580      	push	{r7, lr}
 800574e:	b088      	sub	sp, #32
 8005750:	af00      	add	r7, sp, #0
 8005752:	6078      	str	r0, [r7, #4]
  uint32_t itsource = hspi->Instance->CR2;
 8005754:	687b      	ldr	r3, [r7, #4]
 8005756:	681b      	ldr	r3, [r3, #0]
 8005758:	685b      	ldr	r3, [r3, #4]
 800575a:	61fb      	str	r3, [r7, #28]
  uint32_t itflag   = hspi->Instance->SR;
 800575c:	687b      	ldr	r3, [r7, #4]
 800575e:	681b      	ldr	r3, [r3, #0]
 8005760:	689b      	ldr	r3, [r3, #8]
 8005762:	61bb      	str	r3, [r7, #24]

  /* SPI in mode Receiver ----------------------------------------------------*/
  if ((SPI_CHECK_FLAG(itflag, SPI_FLAG_OVR) == RESET) &&
 8005764:	69bb      	ldr	r3, [r7, #24]
 8005766:	099b      	lsrs	r3, r3, #6
 8005768:	f003 0301 	and.w	r3, r3, #1
 800576c:	2b00      	cmp	r3, #0
 800576e:	d10f      	bne.n	8005790 <HAL_SPI_IRQHandler+0x44>
      (SPI_CHECK_FLAG(itflag, SPI_FLAG_RXNE) != RESET) && (SPI_CHECK_IT_SOURCE(itsource, SPI_IT_RXNE) != RESET))
 8005770:	69bb      	ldr	r3, [r7, #24]
 8005772:	f003 0301 	and.w	r3, r3, #1
  if ((SPI_CHECK_FLAG(itflag, SPI_FLAG_OVR) == RESET) &&
 8005776:	2b00      	cmp	r3, #0
 8005778:	d00a      	beq.n	8005790 <HAL_SPI_IRQHandler+0x44>
      (SPI_CHECK_FLAG(itflag, SPI_FLAG_RXNE) != RESET) && (SPI_CHECK_IT_SOURCE(itsource, SPI_IT_RXNE) != RESET))
 800577a:	69fb      	ldr	r3, [r7, #28]
 800577c:	099b      	lsrs	r3, r3, #6
 800577e:	f003 0301 	and.w	r3, r3, #1
 8005782:	2b00      	cmp	r3, #0
 8005784:	d004      	beq.n	8005790 <HAL_SPI_IRQHandler+0x44>
  {
    hspi->RxISR(hspi);
 8005786:	687b      	ldr	r3, [r7, #4]
 8005788:	6c1b      	ldr	r3, [r3, #64]	; 0x40
 800578a:	6878      	ldr	r0, [r7, #4]
 800578c:	4798      	blx	r3
    return;
 800578e:	e0be      	b.n	800590e <HAL_SPI_IRQHandler+0x1c2>
  }

  /* SPI in mode Transmitter -------------------------------------------------*/
  if ((SPI_CHECK_FLAG(itflag, SPI_FLAG_TXE) != RESET) && (SPI_CHECK_IT_SOURCE(itsource, SPI_IT_TXE) != RESET))
 8005790:	69bb      	ldr	r3, [r7, #24]
 8005792:	085b      	lsrs	r3, r3, #1
 8005794:	f003 0301 	and.w	r3, r3, #1
 8005798:	2b00      	cmp	r3, #0
 800579a:	d00a      	beq.n	80057b2 <HAL_SPI_IRQHandler+0x66>
 800579c:	69fb      	ldr	r3, [r7, #28]
 800579e:	09db      	lsrs	r3, r3, #7
 80057a0:	f003 0301 	and.w	r3, r3, #1
 80057a4:	2b00      	cmp	r3, #0
 80057a6:	d004      	beq.n	80057b2 <HAL_SPI_IRQHandler+0x66>
  {
    hspi->TxISR(hspi);
 80057a8:	687b      	ldr	r3, [r7, #4]
 80057aa:	6c5b      	ldr	r3, [r3, #68]	; 0x44
 80057ac:	6878      	ldr	r0, [r7, #4]
 80057ae:	4798      	blx	r3
    return;
 80057b0:	e0ad      	b.n	800590e <HAL_SPI_IRQHandler+0x1c2>
  }

  /* SPI in Error Treatment --------------------------------------------------*/
  if (((SPI_CHECK_FLAG(itflag, SPI_FLAG_MODF) != RESET) || (SPI_CHECK_FLAG(itflag, SPI_FLAG_OVR) != RESET))
 80057b2:	69bb      	ldr	r3, [r7, #24]
 80057b4:	095b      	lsrs	r3, r3, #5
 80057b6:	f003 0301 	and.w	r3, r3, #1
 80057ba:	2b00      	cmp	r3, #0
 80057bc:	d106      	bne.n	80057cc <HAL_SPI_IRQHandler+0x80>
 80057be:	69bb      	ldr	r3, [r7, #24]
 80057c0:	099b      	lsrs	r3, r3, #6
 80057c2:	f003 0301 	and.w	r3, r3, #1
 80057c6:	2b00      	cmp	r3, #0
 80057c8:	f000 80a1 	beq.w	800590e <HAL_SPI_IRQHandler+0x1c2>
      && (SPI_CHECK_IT_SOURCE(itsource, SPI_IT_ERR) != RESET))
 80057cc:	69fb      	ldr	r3, [r7, #28]
 80057ce:	095b      	lsrs	r3, r3, #5
 80057d0:	f003 0301 	and.w	r3, r3, #1
 80057d4:	2b00      	cmp	r3, #0
 80057d6:	f000 809a 	beq.w	800590e <HAL_SPI_IRQHandler+0x1c2>
  {
    /* SPI Overrun error interrupt occurred ----------------------------------*/
    if (SPI_CHECK_FLAG(itflag, SPI_FLAG_OVR) != RESET)
 80057da:	69bb      	ldr	r3, [r7, #24]
 80057dc:	099b      	lsrs	r3, r3, #6
 80057de:	f003 0301 	and.w	r3, r3, #1
 80057e2:	2b00      	cmp	r3, #0
 80057e4:	d023      	beq.n	800582e <HAL_SPI_IRQHandler+0xe2>
    {
      if (hspi->State != HAL_SPI_STATE_BUSY_TX)
 80057e6:	687b      	ldr	r3, [r7, #4]
 80057e8:	f893 3051 	ldrb.w	r3, [r3, #81]	; 0x51
 80057ec:	b2db      	uxtb	r3, r3
 80057ee:	2b03      	cmp	r3, #3
 80057f0:	d011      	beq.n	8005816 <HAL_SPI_IRQHandler+0xca>
      {
        SET_BIT(hspi->ErrorCode, HAL_SPI_ERROR_OVR);
 80057f2:	687b      	ldr	r3, [r7, #4]
 80057f4:	6d5b      	ldr	r3, [r3, #84]	; 0x54
 80057f6:	f043 0204 	orr.w	r2, r3, #4
 80057fa:	687b      	ldr	r3, [r7, #4]
 80057fc:	655a      	str	r2, [r3, #84]	; 0x54
        __HAL_SPI_CLEAR_OVRFLAG(hspi);
 80057fe:	2300      	movs	r3, #0
 8005800:	617b      	str	r3, [r7, #20]
 8005802:	687b      	ldr	r3, [r7, #4]
 8005804:	681b      	ldr	r3, [r3, #0]
 8005806:	68db      	ldr	r3, [r3, #12]
 8005808:	617b      	str	r3, [r7, #20]
 800580a:	687b      	ldr	r3, [r7, #4]
 800580c:	681b      	ldr	r3, [r3, #0]
 800580e:	689b      	ldr	r3, [r3, #8]
 8005810:	617b      	str	r3, [r7, #20]
 8005812:	697b      	ldr	r3, [r7, #20]
 8005814:	e00b      	b.n	800582e <HAL_SPI_IRQHandler+0xe2>
      }
      else
      {
        __HAL_SPI_CLEAR_OVRFLAG(hspi);
 8005816:	2300      	movs	r3, #0
 8005818:	613b      	str	r3, [r7, #16]
 800581a:	687b      	ldr	r3, [r7, #4]
 800581c:	681b      	ldr	r3, [r3, #0]
 800581e:	68db      	ldr	r3, [r3, #12]
 8005820:	613b      	str	r3, [r7, #16]
 8005822:	687b      	ldr	r3, [r7, #4]
 8005824:	681b      	ldr	r3, [r3, #0]
 8005826:	689b      	ldr	r3, [r3, #8]
 8005828:	613b      	str	r3, [r7, #16]
 800582a:	693b      	ldr	r3, [r7, #16]
        return;
 800582c:	e06f      	b.n	800590e <HAL_SPI_IRQHandler+0x1c2>
      }
    }

    /* SPI Mode Fault error interrupt occurred -------------------------------*/
    if (SPI_CHECK_FLAG(itflag, SPI_FLAG_MODF) != RESET)
 800582e:	69bb      	ldr	r3, [r7, #24]
 8005830:	095b      	lsrs	r3, r3, #5
 8005832:	f003 0301 	and.w	r3, r3, #1
 8005836:	2b00      	cmp	r3, #0
 8005838:	d014      	beq.n	8005864 <HAL_SPI_IRQHandler+0x118>
    {
      SET_BIT(hspi->ErrorCode, HAL_SPI_ERROR_MODF);
 800583a:	687b      	ldr	r3, [r7, #4]
 800583c:	6d5b      	ldr	r3, [r3, #84]	; 0x54
 800583e:	f043 0201 	orr.w	r2, r3, #1
 8005842:	687b      	ldr	r3, [r7, #4]
 8005844:	655a      	str	r2, [r3, #84]	; 0x54
      __HAL_SPI_CLEAR_MODFFLAG(hspi);
 8005846:	2300      	movs	r3, #0
 8005848:	60fb      	str	r3, [r7, #12]
 800584a:	687b      	ldr	r3, [r7, #4]
 800584c:	681b      	ldr	r3, [r3, #0]
 800584e:	689b      	ldr	r3, [r3, #8]
 8005850:	60fb      	str	r3, [r7, #12]
 8005852:	687b      	ldr	r3, [r7, #4]
 8005854:	681b      	ldr	r3, [r3, #0]
 8005856:	681a      	ldr	r2, [r3, #0]
 8005858:	687b      	ldr	r3, [r7, #4]
 800585a:	681b      	ldr	r3, [r3, #0]
 800585c:	f022 0240 	bic.w	r2, r2, #64	; 0x40
 8005860:	601a      	str	r2, [r3, #0]
 8005862:	68fb      	ldr	r3, [r7, #12]
    }

    /* SPI Frame error interrupt occurred ------------------------------------*/

    if (hspi->ErrorCode != HAL_SPI_ERROR_NONE)
 8005864:	687b      	ldr	r3, [r7, #4]
 8005866:	6d5b      	ldr	r3, [r3, #84]	; 0x54
 8005868:	2b00      	cmp	r3, #0
 800586a:	d04f      	beq.n	800590c <HAL_SPI_IRQHandler+0x1c0>
    {
      /* Disable all interrupts */
      __HAL_SPI_DISABLE_IT(hspi, SPI_IT_RXNE | SPI_IT_TXE | SPI_IT_ERR);
 800586c:	687b      	ldr	r3, [r7, #4]
 800586e:	681b      	ldr	r3, [r3, #0]
 8005870:	685a      	ldr	r2, [r3, #4]
 8005872:	687b      	ldr	r3, [r7, #4]
 8005874:	681b      	ldr	r3, [r3, #0]
 8005876:	f022 02e0 	bic.w	r2, r2, #224	; 0xe0
 800587a:	605a      	str	r2, [r3, #4]

      hspi->State = HAL_SPI_STATE_READY;
 800587c:	687b      	ldr	r3, [r7, #4]
 800587e:	2201      	movs	r2, #1
 8005880:	f883 2051 	strb.w	r2, [r3, #81]	; 0x51
      /* Disable the SPI DMA requests if enabled */
      if ((HAL_IS_BIT_SET(itsource, SPI_CR2_TXDMAEN)) || (HAL_IS_BIT_SET(itsource, SPI_CR2_RXDMAEN)))
 8005884:	69fb      	ldr	r3, [r7, #28]
 8005886:	f003 0302 	and.w	r3, r3, #2
 800588a:	2b00      	cmp	r3, #0
 800588c:	d104      	bne.n	8005898 <HAL_SPI_IRQHandler+0x14c>
 800588e:	69fb      	ldr	r3, [r7, #28]
 8005890:	f003 0301 	and.w	r3, r3, #1
 8005894:	2b00      	cmp	r3, #0
 8005896:	d034      	beq.n	8005902 <HAL_SPI_IRQHandler+0x1b6>
      {
        CLEAR_BIT(hspi->Instance->CR2, (SPI_CR2_TXDMAEN | SPI_CR2_RXDMAEN));
 8005898:	687b      	ldr	r3, [r7, #4]
 800589a:	681b      	ldr	r3, [r3, #0]
 800589c:	685a      	ldr	r2, [r3, #4]
 800589e:	687b      	ldr	r3, [r7, #4]
 80058a0:	681b      	ldr	r3, [r3, #0]
 80058a2:	f022 0203 	bic.w	r2, r2, #3
 80058a6:	605a      	str	r2, [r3, #4]

        /* Abort the SPI DMA Rx channel */
        if (hspi->hdmarx != NULL)
 80058a8:	687b      	ldr	r3, [r7, #4]
 80058aa:	6cdb      	ldr	r3, [r3, #76]	; 0x4c
 80058ac:	2b00      	cmp	r3, #0
 80058ae:	d011      	beq.n	80058d4 <HAL_SPI_IRQHandler+0x188>
        {
          /* Set the SPI DMA Abort callback :
          will lead to call HAL_SPI_ErrorCallback() at end of DMA abort procedure */
          hspi->hdmarx->XferAbortCallback = SPI_DMAAbortOnError;
 80058b0:	687b      	ldr	r3, [r7, #4]
 80058b2:	6cdb      	ldr	r3, [r3, #76]	; 0x4c
 80058b4:	4a17      	ldr	r2, [pc, #92]	; (8005914 <HAL_SPI_IRQHandler+0x1c8>)
 80058b6:	635a      	str	r2, [r3, #52]	; 0x34
          if (HAL_OK != HAL_DMA_Abort_IT(hspi->hdmarx))
 80058b8:	687b      	ldr	r3, [r7, #4]
 80058ba:	6cdb      	ldr	r3, [r3, #76]	; 0x4c
 80058bc:	4618      	mov	r0, r3
 80058be:	f7fe fa05 	bl	8003ccc <HAL_DMA_Abort_IT>
 80058c2:	4603      	mov	r3, r0
 80058c4:	2b00      	cmp	r3, #0
 80058c6:	d005      	beq.n	80058d4 <HAL_SPI_IRQHandler+0x188>
          {
            SET_BIT(hspi->ErrorCode, HAL_SPI_ERROR_ABORT);
 80058c8:	687b      	ldr	r3, [r7, #4]
 80058ca:	6d5b      	ldr	r3, [r3, #84]	; 0x54
 80058cc:	f043 0240 	orr.w	r2, r3, #64	; 0x40
 80058d0:	687b      	ldr	r3, [r7, #4]
 80058d2:	655a      	str	r2, [r3, #84]	; 0x54
          }
        }
        /* Abort the SPI DMA Tx channel */
        if (hspi->hdmatx != NULL)
 80058d4:	687b      	ldr	r3, [r7, #4]
 80058d6:	6c9b      	ldr	r3, [r3, #72]	; 0x48
 80058d8:	2b00      	cmp	r3, #0
 80058da:	d016      	beq.n	800590a <HAL_SPI_IRQHandler+0x1be>
        {
          /* Set the SPI DMA Abort callback :
          will lead to call HAL_SPI_ErrorCallback() at end of DMA abort procedure */
          hspi->hdmatx->XferAbortCallback = SPI_DMAAbortOnError;
 80058dc:	687b      	ldr	r3, [r7, #4]
 80058de:	6c9b      	ldr	r3, [r3, #72]	; 0x48
 80058e0:	4a0c      	ldr	r2, [pc, #48]	; (8005914 <HAL_SPI_IRQHandler+0x1c8>)
 80058e2:	635a      	str	r2, [r3, #52]	; 0x34
          if (HAL_OK != HAL_DMA_Abort_IT(hspi->hdmatx))
 80058e4:	687b      	ldr	r3, [r7, #4]
 80058e6:	6c9b      	ldr	r3, [r3, #72]	; 0x48
 80058e8:	4618      	mov	r0, r3
 80058ea:	f7fe f9ef 	bl	8003ccc <HAL_DMA_Abort_IT>
 80058ee:	4603      	mov	r3, r0
 80058f0:	2b00      	cmp	r3, #0
 80058f2:	d00a      	beq.n	800590a <HAL_SPI_IRQHandler+0x1be>
          {
            SET_BIT(hspi->ErrorCode, HAL_SPI_ERROR_ABORT);
 80058f4:	687b      	ldr	r3, [r7, #4]
 80058f6:	6d5b      	ldr	r3, [r3, #84]	; 0x54
 80058f8:	f043 0240 	orr.w	r2, r3, #64	; 0x40
 80058fc:	687b      	ldr	r3, [r7, #4]
 80058fe:	655a      	str	r2, [r3, #84]	; 0x54
        if (hspi->hdmatx != NULL)
 8005900:	e003      	b.n	800590a <HAL_SPI_IRQHandler+0x1be>
      {
        /* Call user error callback */
#if (USE_HAL_SPI_REGISTER_CALLBACKS == 1U)
        hspi->ErrorCallback(hspi);
#else
        HAL_SPI_ErrorCallback(hspi);
 8005902:	6878      	ldr	r0, [r7, #4]
 8005904:	f000 f808 	bl	8005918 <HAL_SPI_ErrorCallback>
#endif /* USE_HAL_SPI_REGISTER_CALLBACKS */
      }
    }
    return;
 8005908:	e000      	b.n	800590c <HAL_SPI_IRQHandler+0x1c0>
        if (hspi->hdmatx != NULL)
 800590a:	bf00      	nop
    return;
 800590c:	bf00      	nop
  }
}
 800590e:	3720      	adds	r7, #32
 8005910:	46bd      	mov	sp, r7
 8005912:	bd80      	pop	{r7, pc}
 8005914:	0800592b 	.word	0x0800592b

08005918 <HAL_SPI_ErrorCallback>:
  * @param  hspi pointer to a SPI_HandleTypeDef structure that contains
  *               the configuration information for SPI module.
  * @retval None
  */
__weak void HAL_SPI_ErrorCallback(SPI_HandleTypeDef *hspi)
{
 8005918:	b480      	push	{r7}
 800591a:	b083      	sub	sp, #12
 800591c:	af00      	add	r7, sp, #0
 800591e:	6078      	str	r0, [r7, #4]
            the HAL_SPI_ErrorCallback should be implemented in the user file
   */
  /* NOTE : The ErrorCode parameter in the hspi handle is updated by the SPI processes
            and user can use HAL_SPI_GetError() API to check the latest error occurred
   */
}
 8005920:	bf00      	nop
 8005922:	370c      	adds	r7, #12
 8005924:	46bd      	mov	sp, r7
 8005926:	bc80      	pop	{r7}
 8005928:	4770      	bx	lr

0800592a <SPI_DMAAbortOnError>:
  *         (To be called at end of DMA Abort procedure following error occurrence).
  * @param  hdma DMA handle.
  * @retval None
  */
static void SPI_DMAAbortOnError(DMA_HandleTypeDef *hdma)
{
 800592a:	b580      	push	{r7, lr}
 800592c:	b084      	sub	sp, #16
 800592e:	af00      	add	r7, sp, #0
 8005930:	6078      	str	r0, [r7, #4]
  SPI_HandleTypeDef *hspi = (SPI_HandleTypeDef *)(((DMA_HandleTypeDef *)hdma)->Parent); /* Derogation MISRAC2012-Rule-11.5 */
 8005932:	687b      	ldr	r3, [r7, #4]
 8005934:	6a5b      	ldr	r3, [r3, #36]	; 0x24
 8005936:	60fb      	str	r3, [r7, #12]
  hspi->RxXferCount = 0U;
 8005938:	68fb      	ldr	r3, [r7, #12]
 800593a:	2200      	movs	r2, #0
 800593c:	87da      	strh	r2, [r3, #62]	; 0x3e
  hspi->TxXferCount = 0U;
 800593e:	68fb      	ldr	r3, [r7, #12]
 8005940:	2200      	movs	r2, #0
 8005942:	86da      	strh	r2, [r3, #54]	; 0x36

  /* Call user error callback */
#if (USE_HAL_SPI_REGISTER_CALLBACKS == 1U)
  hspi->ErrorCallback(hspi);
#else
  HAL_SPI_ErrorCallback(hspi);
 8005944:	68f8      	ldr	r0, [r7, #12]
 8005946:	f7ff ffe7 	bl	8005918 <HAL_SPI_ErrorCallback>
#endif /* USE_HAL_SPI_REGISTER_CALLBACKS */
}
 800594a:	bf00      	nop
 800594c:	3710      	adds	r7, #16
 800594e:	46bd      	mov	sp, r7
 8005950:	bd80      	pop	{r7, pc}
	...

08005954 <SPI_WaitFlagStateUntilTimeout>:
  * @param  Tickstart tick start value
  * @retval HAL status
  */
static HAL_StatusTypeDef SPI_WaitFlagStateUntilTimeout(SPI_HandleTypeDef *hspi, uint32_t Flag, FlagStatus State,
                                                       uint32_t Timeout, uint32_t Tickstart)
{
 8005954:	b580      	push	{r7, lr}
 8005956:	b088      	sub	sp, #32
 8005958:	af00      	add	r7, sp, #0
 800595a:	60f8      	str	r0, [r7, #12]
 800595c:	60b9      	str	r1, [r7, #8]
 800595e:	603b      	str	r3, [r7, #0]
 8005960:	4613      	mov	r3, r2
 8005962:	71fb      	strb	r3, [r7, #7]
  __IO uint32_t count;
  uint32_t tmp_timeout;
  uint32_t tmp_tickstart;

  /* Adjust Timeout value  in case of end of transfer */
  tmp_timeout   = Timeout - (HAL_GetTick() - Tickstart);
 8005964:	f7fe f89a 	bl	8003a9c <HAL_GetTick>
 8005968:	4602      	mov	r2, r0
 800596a:	6abb      	ldr	r3, [r7, #40]	; 0x28
 800596c:	1a9b      	subs	r3, r3, r2
 800596e:	683a      	ldr	r2, [r7, #0]
 8005970:	4413      	add	r3, r2
 8005972:	61fb      	str	r3, [r7, #28]
  tmp_tickstart = HAL_GetTick();
 8005974:	f7fe f892 	bl	8003a9c <HAL_GetTick>
 8005978:	61b8      	str	r0, [r7, #24]

  /* Calculate Timeout based on a software loop to avoid blocking issue if Systick is disabled */
  count = tmp_timeout * ((SystemCoreClock * 32U) >> 20U);
 800597a:	4b39      	ldr	r3, [pc, #228]	; (8005a60 <SPI_WaitFlagStateUntilTimeout+0x10c>)
 800597c:	681b      	ldr	r3, [r3, #0]
 800597e:	015b      	lsls	r3, r3, #5
 8005980:	0d1b      	lsrs	r3, r3, #20
 8005982:	69fa      	ldr	r2, [r7, #28]
 8005984:	fb02 f303 	mul.w	r3, r2, r3
 8005988:	617b      	str	r3, [r7, #20]

  while ((__HAL_SPI_GET_FLAG(hspi, Flag) ? SET : RESET) != State)
 800598a:	e054      	b.n	8005a36 <SPI_WaitFlagStateUntilTimeout+0xe2>
  {
    if (Timeout != HAL_MAX_DELAY)
 800598c:	683b      	ldr	r3, [r7, #0]
 800598e:	f1b3 3fff 	cmp.w	r3, #4294967295
 8005992:	d050      	beq.n	8005a36 <SPI_WaitFlagStateUntilTimeout+0xe2>
    {
      if (((HAL_GetTick() - tmp_tickstart) >= tmp_timeout) || (tmp_timeout == 0U))
 8005994:	f7fe f882 	bl	8003a9c <HAL_GetTick>
 8005998:	4602      	mov	r2, r0
 800599a:	69bb      	ldr	r3, [r7, #24]
 800599c:	1ad3      	subs	r3, r2, r3
 800599e:	69fa      	ldr	r2, [r7, #28]
 80059a0:	429a      	cmp	r2, r3
 80059a2:	d902      	bls.n	80059aa <SPI_WaitFlagStateUntilTimeout+0x56>
 80059a4:	69fb      	ldr	r3, [r7, #28]
 80059a6:	2b00      	cmp	r3, #0
 80059a8:	d13d      	bne.n	8005a26 <SPI_WaitFlagStateUntilTimeout+0xd2>
        /* Disable the SPI and reset the CRC: the CRC value should be cleared
           on both master and slave sides in order to resynchronize the master
           and slave for their respective CRC calculation */

        /* Disable TXE, RXNE and ERR interrupts for the interrupt process */
        __HAL_SPI_DISABLE_IT(hspi, (SPI_IT_TXE | SPI_IT_RXNE | SPI_IT_ERR));
 80059aa:	68fb      	ldr	r3, [r7, #12]
 80059ac:	681b      	ldr	r3, [r3, #0]
 80059ae:	685a      	ldr	r2, [r3, #4]
 80059b0:	68fb      	ldr	r3, [r7, #12]
 80059b2:	681b      	ldr	r3, [r3, #0]
 80059b4:	f022 02e0 	bic.w	r2, r2, #224	; 0xe0
 80059b8:	605a      	str	r2, [r3, #4]

        if ((hspi->Init.Mode == SPI_MODE_MASTER) && ((hspi->Init.Direction == SPI_DIRECTION_1LINE)
 80059ba:	68fb      	ldr	r3, [r7, #12]
 80059bc:	685b      	ldr	r3, [r3, #4]
 80059be:	f5b3 7f82 	cmp.w	r3, #260	; 0x104
 80059c2:	d111      	bne.n	80059e8 <SPI_WaitFlagStateUntilTimeout+0x94>
 80059c4:	68fb      	ldr	r3, [r7, #12]
 80059c6:	689b      	ldr	r3, [r3, #8]
 80059c8:	f5b3 4f00 	cmp.w	r3, #32768	; 0x8000
 80059cc:	d004      	beq.n	80059d8 <SPI_WaitFlagStateUntilTimeout+0x84>
                                                     || (hspi->Init.Direction == SPI_DIRECTION_2LINES_RXONLY)))
 80059ce:	68fb      	ldr	r3, [r7, #12]
 80059d0:	689b      	ldr	r3, [r3, #8]
 80059d2:	f5b3 6f80 	cmp.w	r3, #1024	; 0x400
 80059d6:	d107      	bne.n	80059e8 <SPI_WaitFlagStateUntilTimeout+0x94>
        {
          /* Disable SPI peripheral */
          __HAL_SPI_DISABLE(hspi);
 80059d8:	68fb      	ldr	r3, [r7, #12]
 80059da:	681b      	ldr	r3, [r3, #0]
 80059dc:	681a      	ldr	r2, [r3, #0]
 80059de:	68fb      	ldr	r3, [r7, #12]
 80059e0:	681b      	ldr	r3, [r3, #0]
 80059e2:	f022 0240 	bic.w	r2, r2, #64	; 0x40
 80059e6:	601a      	str	r2, [r3, #0]
        }

        /* Reset CRC Calculation */
        if (hspi->Init.CRCCalculation == SPI_CRCCALCULATION_ENABLE)
 80059e8:	68fb      	ldr	r3, [r7, #12]
 80059ea:	6a9b      	ldr	r3, [r3, #40]	; 0x28
 80059ec:	f5b3 5f00 	cmp.w	r3, #8192	; 0x2000
 80059f0:	d10f      	bne.n	8005a12 <SPI_WaitFlagStateUntilTimeout+0xbe>
        {
          SPI_RESET_CRC(hspi);
 80059f2:	68fb      	ldr	r3, [r7, #12]
 80059f4:	681b      	ldr	r3, [r3, #0]
 80059f6:	681a      	ldr	r2, [r3, #0]
 80059f8:	68fb      	ldr	r3, [r7, #12]
 80059fa:	681b      	ldr	r3, [r3, #0]
 80059fc:	f422 5200 	bic.w	r2, r2, #8192	; 0x2000
 8005a00:	601a      	str	r2, [r3, #0]
 8005a02:	68fb      	ldr	r3, [r7, #12]
 8005a04:	681b      	ldr	r3, [r3, #0]
 8005a06:	681a      	ldr	r2, [r3, #0]
 8005a08:	68fb      	ldr	r3, [r7, #12]
 8005a0a:	681b      	ldr	r3, [r3, #0]
 8005a0c:	f442 5200 	orr.w	r2, r2, #8192	; 0x2000
 8005a10:	601a      	str	r2, [r3, #0]
        }

        hspi->State = HAL_SPI_STATE_READY;
 8005a12:	68fb      	ldr	r3, [r7, #12]
 8005a14:	2201      	movs	r2, #1
 8005a16:	f883 2051 	strb.w	r2, [r3, #81]	; 0x51

        /* Process Unlocked */
        __HAL_UNLOCK(hspi);
 8005a1a:	68fb      	ldr	r3, [r7, #12]
 8005a1c:	2200      	movs	r2, #0
 8005a1e:	f883 2050 	strb.w	r2, [r3, #80]	; 0x50

        return HAL_TIMEOUT;
 8005a22:	2303      	movs	r3, #3
 8005a24:	e017      	b.n	8005a56 <SPI_WaitFlagStateUntilTimeout+0x102>
      }
      /* If Systick is disabled or not incremented, deactivate timeout to go in disable loop procedure */
      if(count == 0U)
 8005a26:	697b      	ldr	r3, [r7, #20]
 8005a28:	2b00      	cmp	r3, #0
 8005a2a:	d101      	bne.n	8005a30 <SPI_WaitFlagStateUntilTimeout+0xdc>
      {
        tmp_timeout = 0U;
 8005a2c:	2300      	movs	r3, #0
 8005a2e:	61fb      	str	r3, [r7, #28]
      }
      count--;
 8005a30:	697b      	ldr	r3, [r7, #20]
 8005a32:	3b01      	subs	r3, #1
 8005a34:	617b      	str	r3, [r7, #20]
  while ((__HAL_SPI_GET_FLAG(hspi, Flag) ? SET : RESET) != State)
 8005a36:	68fb      	ldr	r3, [r7, #12]
 8005a38:	681b      	ldr	r3, [r3, #0]
 8005a3a:	689a      	ldr	r2, [r3, #8]
 8005a3c:	68bb      	ldr	r3, [r7, #8]
 8005a3e:	4013      	ands	r3, r2
 8005a40:	68ba      	ldr	r2, [r7, #8]
 8005a42:	429a      	cmp	r2, r3
 8005a44:	bf0c      	ite	eq
 8005a46:	2301      	moveq	r3, #1
 8005a48:	2300      	movne	r3, #0
 8005a4a:	b2db      	uxtb	r3, r3
 8005a4c:	461a      	mov	r2, r3
 8005a4e:	79fb      	ldrb	r3, [r7, #7]
 8005a50:	429a      	cmp	r2, r3
 8005a52:	d19b      	bne.n	800598c <SPI_WaitFlagStateUntilTimeout+0x38>
    }
  }

  return HAL_OK;
 8005a54:	2300      	movs	r3, #0
}
 8005a56:	4618      	mov	r0, r3
 8005a58:	3720      	adds	r7, #32
 8005a5a:	46bd      	mov	sp, r7
 8005a5c:	bd80      	pop	{r7, pc}
 8005a5e:	bf00      	nop
 8005a60:	20000000 	.word	0x20000000

08005a64 <SPI_EndRxTransaction>:
  * @param  Timeout Timeout duration
  * @param  Tickstart tick start value
  * @retval HAL status
  */
static HAL_StatusTypeDef SPI_EndRxTransaction(SPI_HandleTypeDef *hspi,  uint32_t Timeout, uint32_t Tickstart)
{
 8005a64:	b580      	push	{r7, lr}
 8005a66:	b086      	sub	sp, #24
 8005a68:	af02      	add	r7, sp, #8
 8005a6a:	60f8      	str	r0, [r7, #12]
 8005a6c:	60b9      	str	r1, [r7, #8]
 8005a6e:	607a      	str	r2, [r7, #4]
  if ((hspi->Init.Mode == SPI_MODE_MASTER) && ((hspi->Init.Direction == SPI_DIRECTION_1LINE)
 8005a70:	68fb      	ldr	r3, [r7, #12]
 8005a72:	685b      	ldr	r3, [r3, #4]
 8005a74:	f5b3 7f82 	cmp.w	r3, #260	; 0x104
 8005a78:	d111      	bne.n	8005a9e <SPI_EndRxTransaction+0x3a>
 8005a7a:	68fb      	ldr	r3, [r7, #12]
 8005a7c:	689b      	ldr	r3, [r3, #8]
 8005a7e:	f5b3 4f00 	cmp.w	r3, #32768	; 0x8000
 8005a82:	d004      	beq.n	8005a8e <SPI_EndRxTransaction+0x2a>
                                               || (hspi->Init.Direction == SPI_DIRECTION_2LINES_RXONLY)))
 8005a84:	68fb      	ldr	r3, [r7, #12]
 8005a86:	689b      	ldr	r3, [r3, #8]
 8005a88:	f5b3 6f80 	cmp.w	r3, #1024	; 0x400
 8005a8c:	d107      	bne.n	8005a9e <SPI_EndRxTransaction+0x3a>
  {
    /* Disable SPI peripheral */
    __HAL_SPI_DISABLE(hspi);
 8005a8e:	68fb      	ldr	r3, [r7, #12]
 8005a90:	681b      	ldr	r3, [r3, #0]
 8005a92:	681a      	ldr	r2, [r3, #0]
 8005a94:	68fb      	ldr	r3, [r7, #12]
 8005a96:	681b      	ldr	r3, [r3, #0]
 8005a98:	f022 0240 	bic.w	r2, r2, #64	; 0x40
 8005a9c:	601a      	str	r2, [r3, #0]
  }

  if ((hspi->Init.Mode == SPI_MODE_MASTER) && (hspi->Init.Direction == SPI_DIRECTION_2LINES_RXONLY))
 8005a9e:	68fb      	ldr	r3, [r7, #12]
 8005aa0:	685b      	ldr	r3, [r3, #4]
 8005aa2:	f5b3 7f82 	cmp.w	r3, #260	; 0x104
 8005aa6:	d117      	bne.n	8005ad8 <SPI_EndRxTransaction+0x74>
 8005aa8:	68fb      	ldr	r3, [r7, #12]
 8005aaa:	689b      	ldr	r3, [r3, #8]
 8005aac:	f5b3 6f80 	cmp.w	r3, #1024	; 0x400
 8005ab0:	d112      	bne.n	8005ad8 <SPI_EndRxTransaction+0x74>
  {
    /* Wait the RXNE reset */
    if (SPI_WaitFlagStateUntilTimeout(hspi, SPI_FLAG_RXNE, RESET, Timeout, Tickstart) != HAL_OK)
 8005ab2:	687b      	ldr	r3, [r7, #4]
 8005ab4:	9300      	str	r3, [sp, #0]
 8005ab6:	68bb      	ldr	r3, [r7, #8]
 8005ab8:	2200      	movs	r2, #0
 8005aba:	2101      	movs	r1, #1
 8005abc:	68f8      	ldr	r0, [r7, #12]
 8005abe:	f7ff ff49 	bl	8005954 <SPI_WaitFlagStateUntilTimeout>
 8005ac2:	4603      	mov	r3, r0
 8005ac4:	2b00      	cmp	r3, #0
 8005ac6:	d01a      	beq.n	8005afe <SPI_EndRxTransaction+0x9a>
    {
      SET_BIT(hspi->ErrorCode, HAL_SPI_ERROR_FLAG);
 8005ac8:	68fb      	ldr	r3, [r7, #12]
 8005aca:	6d5b      	ldr	r3, [r3, #84]	; 0x54
 8005acc:	f043 0220 	orr.w	r2, r3, #32
 8005ad0:	68fb      	ldr	r3, [r7, #12]
 8005ad2:	655a      	str	r2, [r3, #84]	; 0x54
      return HAL_TIMEOUT;
 8005ad4:	2303      	movs	r3, #3
 8005ad6:	e013      	b.n	8005b00 <SPI_EndRxTransaction+0x9c>
    }
  }
  else
  {
    /* Control the BSY flag */
    if (SPI_WaitFlagStateUntilTimeout(hspi, SPI_FLAG_BSY, RESET, Timeout, Tickstart) != HAL_OK)
 8005ad8:	687b      	ldr	r3, [r7, #4]
 8005ada:	9300      	str	r3, [sp, #0]
 8005adc:	68bb      	ldr	r3, [r7, #8]
 8005ade:	2200      	movs	r2, #0
 8005ae0:	2180      	movs	r1, #128	; 0x80
 8005ae2:	68f8      	ldr	r0, [r7, #12]
 8005ae4:	f7ff ff36 	bl	8005954 <SPI_WaitFlagStateUntilTimeout>
 8005ae8:	4603      	mov	r3, r0
 8005aea:	2b00      	cmp	r3, #0
 8005aec:	d007      	beq.n	8005afe <SPI_EndRxTransaction+0x9a>
    {
      SET_BIT(hspi->ErrorCode, HAL_SPI_ERROR_FLAG);
 8005aee:	68fb      	ldr	r3, [r7, #12]
 8005af0:	6d5b      	ldr	r3, [r3, #84]	; 0x54
 8005af2:	f043 0220 	orr.w	r2, r3, #32
 8005af6:	68fb      	ldr	r3, [r7, #12]
 8005af8:	655a      	str	r2, [r3, #84]	; 0x54
      return HAL_TIMEOUT;
 8005afa:	2303      	movs	r3, #3
 8005afc:	e000      	b.n	8005b00 <SPI_EndRxTransaction+0x9c>
    }
  }
  return HAL_OK;
 8005afe:	2300      	movs	r3, #0
}
 8005b00:	4618      	mov	r0, r3
 8005b02:	3710      	adds	r7, #16
 8005b04:	46bd      	mov	sp, r7
 8005b06:	bd80      	pop	{r7, pc}

08005b08 <SPI_EndRxTxTransaction>:
  * @param  Timeout Timeout duration
  * @param  Tickstart tick start value
  * @retval HAL status
  */
static HAL_StatusTypeDef SPI_EndRxTxTransaction(SPI_HandleTypeDef *hspi, uint32_t Timeout, uint32_t Tickstart)
{
 8005b08:	b580      	push	{r7, lr}
 8005b0a:	b086      	sub	sp, #24
 8005b0c:	af02      	add	r7, sp, #8
 8005b0e:	60f8      	str	r0, [r7, #12]
 8005b10:	60b9      	str	r1, [r7, #8]
 8005b12:	607a      	str	r2, [r7, #4]
  /* Control the BSY flag */
  if (SPI_WaitFlagStateUntilTimeout(hspi, SPI_FLAG_BSY, RESET, Timeout, Tickstart) != HAL_OK)
 8005b14:	687b      	ldr	r3, [r7, #4]
 8005b16:	9300      	str	r3, [sp, #0]
 8005b18:	68bb      	ldr	r3, [r7, #8]
 8005b1a:	2200      	movs	r2, #0
 8005b1c:	2180      	movs	r1, #128	; 0x80
 8005b1e:	68f8      	ldr	r0, [r7, #12]
 8005b20:	f7ff ff18 	bl	8005954 <SPI_WaitFlagStateUntilTimeout>
 8005b24:	4603      	mov	r3, r0
 8005b26:	2b00      	cmp	r3, #0
 8005b28:	d007      	beq.n	8005b3a <SPI_EndRxTxTransaction+0x32>
  {
    SET_BIT(hspi->ErrorCode, HAL_SPI_ERROR_FLAG);
 8005b2a:	68fb      	ldr	r3, [r7, #12]
 8005b2c:	6d5b      	ldr	r3, [r3, #84]	; 0x54
 8005b2e:	f043 0220 	orr.w	r2, r3, #32
 8005b32:	68fb      	ldr	r3, [r7, #12]
 8005b34:	655a      	str	r2, [r3, #84]	; 0x54
    return HAL_TIMEOUT;
 8005b36:	2303      	movs	r3, #3
 8005b38:	e000      	b.n	8005b3c <SPI_EndRxTxTransaction+0x34>
  }
  return HAL_OK;
 8005b3a:	2300      	movs	r3, #0
}
 8005b3c:	4618      	mov	r0, r3
 8005b3e:	3710      	adds	r7, #16
 8005b40:	46bd      	mov	sp, r7
 8005b42:	bd80      	pop	{r7, pc}

08005b44 <HAL_TIM_Base_Init>:
  *         Ex: call @ref HAL_TIM_Base_DeInit() before HAL_TIM_Base_Init()
  * @param  htim TIM Base handle
  * @retval HAL status
  */
HAL_StatusTypeDef HAL_TIM_Base_Init(TIM_HandleTypeDef *htim)
{
 8005b44:	b580      	push	{r7, lr}
 8005b46:	b082      	sub	sp, #8
 8005b48:	af00      	add	r7, sp, #0
 8005b4a:	6078      	str	r0, [r7, #4]
  /* Check the TIM handle allocation */
  if (htim == NULL)
 8005b4c:	687b      	ldr	r3, [r7, #4]
 8005b4e:	2b00      	cmp	r3, #0
 8005b50:	d101      	bne.n	8005b56 <HAL_TIM_Base_Init+0x12>
  {
    return HAL_ERROR;
 8005b52:	2301      	movs	r3, #1
 8005b54:	e041      	b.n	8005bda <HAL_TIM_Base_Init+0x96>
  assert_param(IS_TIM_INSTANCE(htim->Instance));
  assert_param(IS_TIM_COUNTER_MODE(htim->Init.CounterMode));
  assert_param(IS_TIM_CLOCKDIVISION_DIV(htim->Init.ClockDivision));
  assert_param(IS_TIM_AUTORELOAD_PRELOAD(htim->Init.AutoReloadPreload));

  if (htim->State == HAL_TIM_STATE_RESET)
 8005b56:	687b      	ldr	r3, [r7, #4]
 8005b58:	f893 303d 	ldrb.w	r3, [r3, #61]	; 0x3d
 8005b5c:	b2db      	uxtb	r3, r3
 8005b5e:	2b00      	cmp	r3, #0
 8005b60:	d106      	bne.n	8005b70 <HAL_TIM_Base_Init+0x2c>
  {
    /* Allocate lock resource and initialize it */
    htim->Lock = HAL_UNLOCKED;
 8005b62:	687b      	ldr	r3, [r7, #4]
 8005b64:	2200      	movs	r2, #0
 8005b66:	f883 203c 	strb.w	r2, [r3, #60]	; 0x3c
    }
    /* Init the low level hardware : GPIO, CLOCK, NVIC */
    htim->Base_MspInitCallback(htim);
#else
    /* Init the low level hardware : GPIO, CLOCK, NVIC */
    HAL_TIM_Base_MspInit(htim);
 8005b6a:	6878      	ldr	r0, [r7, #4]
 8005b6c:	f7fd fe54 	bl	8003818 <HAL_TIM_Base_MspInit>
#endif /* USE_HAL_TIM_REGISTER_CALLBACKS */
  }

  /* Set the TIM state */
  htim->State = HAL_TIM_STATE_BUSY;
 8005b70:	687b      	ldr	r3, [r7, #4]
 8005b72:	2202      	movs	r2, #2
 8005b74:	f883 203d 	strb.w	r2, [r3, #61]	; 0x3d

  /* Set the Time Base configuration */
  TIM_Base_SetConfig(htim->Instance, &htim->Init);
 8005b78:	687b      	ldr	r3, [r7, #4]
 8005b7a:	681a      	ldr	r2, [r3, #0]
 8005b7c:	687b      	ldr	r3, [r7, #4]
 8005b7e:	3304      	adds	r3, #4
 8005b80:	4619      	mov	r1, r3
 8005b82:	4610      	mov	r0, r2
 8005b84:	f000 fc68 	bl	8006458 <TIM_Base_SetConfig>

  /* Initialize the DMA burst operation state */
  htim->DMABurstState = HAL_DMA_BURST_STATE_READY;
 8005b88:	687b      	ldr	r3, [r7, #4]
 8005b8a:	2201      	movs	r2, #1
 8005b8c:	f883 2046 	strb.w	r2, [r3, #70]	; 0x46

  /* Initialize the TIM channels state */
  TIM_CHANNEL_STATE_SET_ALL(htim, HAL_TIM_CHANNEL_STATE_READY);
 8005b90:	687b      	ldr	r3, [r7, #4]
 8005b92:	2201      	movs	r2, #1
 8005b94:	f883 203e 	strb.w	r2, [r3, #62]	; 0x3e
 8005b98:	687b      	ldr	r3, [r7, #4]
 8005b9a:	2201      	movs	r2, #1
 8005b9c:	f883 203f 	strb.w	r2, [r3, #63]	; 0x3f
 8005ba0:	687b      	ldr	r3, [r7, #4]
 8005ba2:	2201      	movs	r2, #1
 8005ba4:	f883 2040 	strb.w	r2, [r3, #64]	; 0x40
 8005ba8:	687b      	ldr	r3, [r7, #4]
 8005baa:	2201      	movs	r2, #1
 8005bac:	f883 2041 	strb.w	r2, [r3, #65]	; 0x41
  TIM_CHANNEL_N_STATE_SET_ALL(htim, HAL_TIM_CHANNEL_STATE_READY);
 8005bb0:	687b      	ldr	r3, [r7, #4]
 8005bb2:	2201      	movs	r2, #1
 8005bb4:	f883 2042 	strb.w	r2, [r3, #66]	; 0x42
 8005bb8:	687b      	ldr	r3, [r7, #4]
 8005bba:	2201      	movs	r2, #1
 8005bbc:	f883 2043 	strb.w	r2, [r3, #67]	; 0x43
 8005bc0:	687b      	ldr	r3, [r7, #4]
 8005bc2:	2201      	movs	r2, #1
 8005bc4:	f883 2044 	strb.w	r2, [r3, #68]	; 0x44
 8005bc8:	687b      	ldr	r3, [r7, #4]
 8005bca:	2201      	movs	r2, #1
 8005bcc:	f883 2045 	strb.w	r2, [r3, #69]	; 0x45

  /* Initialize the TIM state*/
  htim->State = HAL_TIM_STATE_READY;
 8005bd0:	687b      	ldr	r3, [r7, #4]
 8005bd2:	2201      	movs	r2, #1
 8005bd4:	f883 203d 	strb.w	r2, [r3, #61]	; 0x3d

  return HAL_OK;
 8005bd8:	2300      	movs	r3, #0
}
 8005bda:	4618      	mov	r0, r3
 8005bdc:	3708      	adds	r7, #8
 8005bde:	46bd      	mov	sp, r7
 8005be0:	bd80      	pop	{r7, pc}

08005be2 <HAL_TIM_PWM_Init>:
  *         Ex: call @ref HAL_TIM_PWM_DeInit() before HAL_TIM_PWM_Init()
  * @param  htim TIM PWM handle
  * @retval HAL status
  */
HAL_StatusTypeDef HAL_TIM_PWM_Init(TIM_HandleTypeDef *htim)
{
 8005be2:	b580      	push	{r7, lr}
 8005be4:	b082      	sub	sp, #8
 8005be6:	af00      	add	r7, sp, #0
 8005be8:	6078      	str	r0, [r7, #4]
  /* Check the TIM handle allocation */
  if (htim == NULL)
 8005bea:	687b      	ldr	r3, [r7, #4]
 8005bec:	2b00      	cmp	r3, #0
 8005bee:	d101      	bne.n	8005bf4 <HAL_TIM_PWM_Init+0x12>
  {
    return HAL_ERROR;
 8005bf0:	2301      	movs	r3, #1
 8005bf2:	e041      	b.n	8005c78 <HAL_TIM_PWM_Init+0x96>
  assert_param(IS_TIM_INSTANCE(htim->Instance));
  assert_param(IS_TIM_COUNTER_MODE(htim->Init.CounterMode));
  assert_param(IS_TIM_CLOCKDIVISION_DIV(htim->Init.ClockDivision));
  assert_param(IS_TIM_AUTORELOAD_PRELOAD(htim->Init.AutoReloadPreload));

  if (htim->State == HAL_TIM_STATE_RESET)
 8005bf4:	687b      	ldr	r3, [r7, #4]
 8005bf6:	f893 303d 	ldrb.w	r3, [r3, #61]	; 0x3d
 8005bfa:	b2db      	uxtb	r3, r3
 8005bfc:	2b00      	cmp	r3, #0
 8005bfe:	d106      	bne.n	8005c0e <HAL_TIM_PWM_Init+0x2c>
  {
    /* Allocate lock resource and initialize it */
    htim->Lock = HAL_UNLOCKED;
 8005c00:	687b      	ldr	r3, [r7, #4]
 8005c02:	2200      	movs	r2, #0
 8005c04:	f883 203c 	strb.w	r2, [r3, #60]	; 0x3c
    }
    /* Init the low level hardware : GPIO, CLOCK, NVIC */
    htim->PWM_MspInitCallback(htim);
#else
    /* Init the low level hardware : GPIO, CLOCK, NVIC and DMA */
    HAL_TIM_PWM_MspInit(htim);
 8005c08:	6878      	ldr	r0, [r7, #4]
 8005c0a:	f000 f839 	bl	8005c80 <HAL_TIM_PWM_MspInit>
#endif /* USE_HAL_TIM_REGISTER_CALLBACKS */
  }

  /* Set the TIM state */
  htim->State = HAL_TIM_STATE_BUSY;
 8005c0e:	687b      	ldr	r3, [r7, #4]
 8005c10:	2202      	movs	r2, #2
 8005c12:	f883 203d 	strb.w	r2, [r3, #61]	; 0x3d

  /* Init the base time for the PWM */
  TIM_Base_SetConfig(htim->Instance, &htim->Init);
 8005c16:	687b      	ldr	r3, [r7, #4]
 8005c18:	681a      	ldr	r2, [r3, #0]
 8005c1a:	687b      	ldr	r3, [r7, #4]
 8005c1c:	3304      	adds	r3, #4
 8005c1e:	4619      	mov	r1, r3
 8005c20:	4610      	mov	r0, r2
 8005c22:	f000 fc19 	bl	8006458 <TIM_Base_SetConfig>

  /* Initialize the DMA burst operation state */
  htim->DMABurstState = HAL_DMA_BURST_STATE_READY;
 8005c26:	687b      	ldr	r3, [r7, #4]
 8005c28:	2201      	movs	r2, #1
 8005c2a:	f883 2046 	strb.w	r2, [r3, #70]	; 0x46

  /* Initialize the TIM channels state */
  TIM_CHANNEL_STATE_SET_ALL(htim, HAL_TIM_CHANNEL_STATE_READY);
 8005c2e:	687b      	ldr	r3, [r7, #4]
 8005c30:	2201      	movs	r2, #1
 8005c32:	f883 203e 	strb.w	r2, [r3, #62]	; 0x3e
 8005c36:	687b      	ldr	r3, [r7, #4]
 8005c38:	2201      	movs	r2, #1
 8005c3a:	f883 203f 	strb.w	r2, [r3, #63]	; 0x3f
 8005c3e:	687b      	ldr	r3, [r7, #4]
 8005c40:	2201      	movs	r2, #1
 8005c42:	f883 2040 	strb.w	r2, [r3, #64]	; 0x40
 8005c46:	687b      	ldr	r3, [r7, #4]
 8005c48:	2201      	movs	r2, #1
 8005c4a:	f883 2041 	strb.w	r2, [r3, #65]	; 0x41
  TIM_CHANNEL_N_STATE_SET_ALL(htim, HAL_TIM_CHANNEL_STATE_READY);
 8005c4e:	687b      	ldr	r3, [r7, #4]
 8005c50:	2201      	movs	r2, #1
 8005c52:	f883 2042 	strb.w	r2, [r3, #66]	; 0x42
 8005c56:	687b      	ldr	r3, [r7, #4]
 8005c58:	2201      	movs	r2, #1
 8005c5a:	f883 2043 	strb.w	r2, [r3, #67]	; 0x43
 8005c5e:	687b      	ldr	r3, [r7, #4]
 8005c60:	2201      	movs	r2, #1
 8005c62:	f883 2044 	strb.w	r2, [r3, #68]	; 0x44
 8005c66:	687b      	ldr	r3, [r7, #4]
 8005c68:	2201      	movs	r2, #1
 8005c6a:	f883 2045 	strb.w	r2, [r3, #69]	; 0x45

  /* Initialize the TIM state*/
  htim->State = HAL_TIM_STATE_READY;
 8005c6e:	687b      	ldr	r3, [r7, #4]
 8005c70:	2201      	movs	r2, #1
 8005c72:	f883 203d 	strb.w	r2, [r3, #61]	; 0x3d

  return HAL_OK;
 8005c76:	2300      	movs	r3, #0
}
 8005c78:	4618      	mov	r0, r3
 8005c7a:	3708      	adds	r7, #8
 8005c7c:	46bd      	mov	sp, r7
 8005c7e:	bd80      	pop	{r7, pc}

08005c80 <HAL_TIM_PWM_MspInit>:
  * @brief  Initializes the TIM PWM MSP.
  * @param  htim TIM PWM handle
  * @retval None
  */
__weak void HAL_TIM_PWM_MspInit(TIM_HandleTypeDef *htim)
{
 8005c80:	b480      	push	{r7}
 8005c82:	b083      	sub	sp, #12
 8005c84:	af00      	add	r7, sp, #0
 8005c86:	6078      	str	r0, [r7, #4]
  UNUSED(htim);

  /* NOTE : This function should not be modified, when the callback is needed,
            the HAL_TIM_PWM_MspInit could be implemented in the user file
   */
}
 8005c88:	bf00      	nop
 8005c8a:	370c      	adds	r7, #12
 8005c8c:	46bd      	mov	sp, r7
 8005c8e:	bc80      	pop	{r7}
 8005c90:	4770      	bx	lr
	...

08005c94 <HAL_TIM_PWM_Start>:
  *            @arg TIM_CHANNEL_3: TIM Channel 3 selected
  *            @arg TIM_CHANNEL_4: TIM Channel 4 selected
  * @retval HAL status
  */
HAL_StatusTypeDef HAL_TIM_PWM_Start(TIM_HandleTypeDef *htim, uint32_t Channel)
{
 8005c94:	b580      	push	{r7, lr}
 8005c96:	b084      	sub	sp, #16
 8005c98:	af00      	add	r7, sp, #0
 8005c9a:	6078      	str	r0, [r7, #4]
 8005c9c:	6039      	str	r1, [r7, #0]

  /* Check the parameters */
  assert_param(IS_TIM_CCX_INSTANCE(htim->Instance, Channel));

  /* Check the TIM channel state */
  if (TIM_CHANNEL_STATE_GET(htim, Channel) != HAL_TIM_CHANNEL_STATE_READY)
 8005c9e:	683b      	ldr	r3, [r7, #0]
 8005ca0:	2b00      	cmp	r3, #0
 8005ca2:	d109      	bne.n	8005cb8 <HAL_TIM_PWM_Start+0x24>
 8005ca4:	687b      	ldr	r3, [r7, #4]
 8005ca6:	f893 303e 	ldrb.w	r3, [r3, #62]	; 0x3e
 8005caa:	b2db      	uxtb	r3, r3
 8005cac:	2b01      	cmp	r3, #1
 8005cae:	bf14      	ite	ne
 8005cb0:	2301      	movne	r3, #1
 8005cb2:	2300      	moveq	r3, #0
 8005cb4:	b2db      	uxtb	r3, r3
 8005cb6:	e022      	b.n	8005cfe <HAL_TIM_PWM_Start+0x6a>
 8005cb8:	683b      	ldr	r3, [r7, #0]
 8005cba:	2b04      	cmp	r3, #4
 8005cbc:	d109      	bne.n	8005cd2 <HAL_TIM_PWM_Start+0x3e>
 8005cbe:	687b      	ldr	r3, [r7, #4]
 8005cc0:	f893 303f 	ldrb.w	r3, [r3, #63]	; 0x3f
 8005cc4:	b2db      	uxtb	r3, r3
 8005cc6:	2b01      	cmp	r3, #1
 8005cc8:	bf14      	ite	ne
 8005cca:	2301      	movne	r3, #1
 8005ccc:	2300      	moveq	r3, #0
 8005cce:	b2db      	uxtb	r3, r3
 8005cd0:	e015      	b.n	8005cfe <HAL_TIM_PWM_Start+0x6a>
 8005cd2:	683b      	ldr	r3, [r7, #0]
 8005cd4:	2b08      	cmp	r3, #8
 8005cd6:	d109      	bne.n	8005cec <HAL_TIM_PWM_Start+0x58>
 8005cd8:	687b      	ldr	r3, [r7, #4]
 8005cda:	f893 3040 	ldrb.w	r3, [r3, #64]	; 0x40
 8005cde:	b2db      	uxtb	r3, r3
 8005ce0:	2b01      	cmp	r3, #1
 8005ce2:	bf14      	ite	ne
 8005ce4:	2301      	movne	r3, #1
 8005ce6:	2300      	moveq	r3, #0
 8005ce8:	b2db      	uxtb	r3, r3
 8005cea:	e008      	b.n	8005cfe <HAL_TIM_PWM_Start+0x6a>
 8005cec:	687b      	ldr	r3, [r7, #4]
 8005cee:	f893 3041 	ldrb.w	r3, [r3, #65]	; 0x41
 8005cf2:	b2db      	uxtb	r3, r3
 8005cf4:	2b01      	cmp	r3, #1
 8005cf6:	bf14      	ite	ne
 8005cf8:	2301      	movne	r3, #1
 8005cfa:	2300      	moveq	r3, #0
 8005cfc:	b2db      	uxtb	r3, r3
 8005cfe:	2b00      	cmp	r3, #0
 8005d00:	d001      	beq.n	8005d06 <HAL_TIM_PWM_Start+0x72>
  {
    return HAL_ERROR;
 8005d02:	2301      	movs	r3, #1
 8005d04:	e072      	b.n	8005dec <HAL_TIM_PWM_Start+0x158>
  }

  /* Set the TIM channel state */
  TIM_CHANNEL_STATE_SET(htim, Channel, HAL_TIM_CHANNEL_STATE_BUSY);
 8005d06:	683b      	ldr	r3, [r7, #0]
 8005d08:	2b00      	cmp	r3, #0
 8005d0a:	d104      	bne.n	8005d16 <HAL_TIM_PWM_Start+0x82>
 8005d0c:	687b      	ldr	r3, [r7, #4]
 8005d0e:	2202      	movs	r2, #2
 8005d10:	f883 203e 	strb.w	r2, [r3, #62]	; 0x3e
 8005d14:	e013      	b.n	8005d3e <HAL_TIM_PWM_Start+0xaa>
 8005d16:	683b      	ldr	r3, [r7, #0]
 8005d18:	2b04      	cmp	r3, #4
 8005d1a:	d104      	bne.n	8005d26 <HAL_TIM_PWM_Start+0x92>
 8005d1c:	687b      	ldr	r3, [r7, #4]
 8005d1e:	2202      	movs	r2, #2
 8005d20:	f883 203f 	strb.w	r2, [r3, #63]	; 0x3f
 8005d24:	e00b      	b.n	8005d3e <HAL_TIM_PWM_Start+0xaa>
 8005d26:	683b      	ldr	r3, [r7, #0]
 8005d28:	2b08      	cmp	r3, #8
 8005d2a:	d104      	bne.n	8005d36 <HAL_TIM_PWM_Start+0xa2>
 8005d2c:	687b      	ldr	r3, [r7, #4]
 8005d2e:	2202      	movs	r2, #2
 8005d30:	f883 2040 	strb.w	r2, [r3, #64]	; 0x40
 8005d34:	e003      	b.n	8005d3e <HAL_TIM_PWM_Start+0xaa>
 8005d36:	687b      	ldr	r3, [r7, #4]
 8005d38:	2202      	movs	r2, #2
 8005d3a:	f883 2041 	strb.w	r2, [r3, #65]	; 0x41

  /* Enable the Capture compare channel */
  TIM_CCxChannelCmd(htim->Instance, Channel, TIM_CCx_ENABLE);
 8005d3e:	687b      	ldr	r3, [r7, #4]
 8005d40:	681b      	ldr	r3, [r3, #0]
 8005d42:	2201      	movs	r2, #1
 8005d44:	6839      	ldr	r1, [r7, #0]
 8005d46:	4618      	mov	r0, r3
 8005d48:	f000 fe42 	bl	80069d0 <TIM_CCxChannelCmd>

  if (IS_TIM_BREAK_INSTANCE(htim->Instance) != RESET)
 8005d4c:	687b      	ldr	r3, [r7, #4]
 8005d4e:	681b      	ldr	r3, [r3, #0]
 8005d50:	4a28      	ldr	r2, [pc, #160]	; (8005df4 <HAL_TIM_PWM_Start+0x160>)
 8005d52:	4293      	cmp	r3, r2
 8005d54:	d004      	beq.n	8005d60 <HAL_TIM_PWM_Start+0xcc>
 8005d56:	687b      	ldr	r3, [r7, #4]
 8005d58:	681b      	ldr	r3, [r3, #0]
 8005d5a:	4a27      	ldr	r2, [pc, #156]	; (8005df8 <HAL_TIM_PWM_Start+0x164>)
 8005d5c:	4293      	cmp	r3, r2
 8005d5e:	d101      	bne.n	8005d64 <HAL_TIM_PWM_Start+0xd0>
 8005d60:	2301      	movs	r3, #1
 8005d62:	e000      	b.n	8005d66 <HAL_TIM_PWM_Start+0xd2>
 8005d64:	2300      	movs	r3, #0
 8005d66:	2b00      	cmp	r3, #0
 8005d68:	d007      	beq.n	8005d7a <HAL_TIM_PWM_Start+0xe6>
  {
    /* Enable the main output */
    __HAL_TIM_MOE_ENABLE(htim);
 8005d6a:	687b      	ldr	r3, [r7, #4]
 8005d6c:	681b      	ldr	r3, [r3, #0]
 8005d6e:	6c5a      	ldr	r2, [r3, #68]	; 0x44
 8005d70:	687b      	ldr	r3, [r7, #4]
 8005d72:	681b      	ldr	r3, [r3, #0]
 8005d74:	f442 4200 	orr.w	r2, r2, #32768	; 0x8000
 8005d78:	645a      	str	r2, [r3, #68]	; 0x44
  }

  /* Enable the Peripheral, except in trigger mode where enable is automatically done with trigger */
  if (IS_TIM_SLAVE_INSTANCE(htim->Instance))
 8005d7a:	687b      	ldr	r3, [r7, #4]
 8005d7c:	681b      	ldr	r3, [r3, #0]
 8005d7e:	4a1d      	ldr	r2, [pc, #116]	; (8005df4 <HAL_TIM_PWM_Start+0x160>)
 8005d80:	4293      	cmp	r3, r2
 8005d82:	d018      	beq.n	8005db6 <HAL_TIM_PWM_Start+0x122>
 8005d84:	687b      	ldr	r3, [r7, #4]
 8005d86:	681b      	ldr	r3, [r3, #0]
 8005d88:	4a1b      	ldr	r2, [pc, #108]	; (8005df8 <HAL_TIM_PWM_Start+0x164>)
 8005d8a:	4293      	cmp	r3, r2
 8005d8c:	d013      	beq.n	8005db6 <HAL_TIM_PWM_Start+0x122>
 8005d8e:	687b      	ldr	r3, [r7, #4]
 8005d90:	681b      	ldr	r3, [r3, #0]
 8005d92:	f1b3 4f80 	cmp.w	r3, #1073741824	; 0x40000000
 8005d96:	d00e      	beq.n	8005db6 <HAL_TIM_PWM_Start+0x122>
 8005d98:	687b      	ldr	r3, [r7, #4]
 8005d9a:	681b      	ldr	r3, [r3, #0]
 8005d9c:	4a17      	ldr	r2, [pc, #92]	; (8005dfc <HAL_TIM_PWM_Start+0x168>)
 8005d9e:	4293      	cmp	r3, r2
 8005da0:	d009      	beq.n	8005db6 <HAL_TIM_PWM_Start+0x122>
 8005da2:	687b      	ldr	r3, [r7, #4]
 8005da4:	681b      	ldr	r3, [r3, #0]
 8005da6:	4a16      	ldr	r2, [pc, #88]	; (8005e00 <HAL_TIM_PWM_Start+0x16c>)
 8005da8:	4293      	cmp	r3, r2
 8005daa:	d004      	beq.n	8005db6 <HAL_TIM_PWM_Start+0x122>
 8005dac:	687b      	ldr	r3, [r7, #4]
 8005dae:	681b      	ldr	r3, [r3, #0]
 8005db0:	4a14      	ldr	r2, [pc, #80]	; (8005e04 <HAL_TIM_PWM_Start+0x170>)
 8005db2:	4293      	cmp	r3, r2
 8005db4:	d111      	bne.n	8005dda <HAL_TIM_PWM_Start+0x146>
  {
    tmpsmcr = htim->Instance->SMCR & TIM_SMCR_SMS;
 8005db6:	687b      	ldr	r3, [r7, #4]
 8005db8:	681b      	ldr	r3, [r3, #0]
 8005dba:	689b      	ldr	r3, [r3, #8]
 8005dbc:	f003 0307 	and.w	r3, r3, #7
 8005dc0:	60fb      	str	r3, [r7, #12]
    if (!IS_TIM_SLAVEMODE_TRIGGER_ENABLED(tmpsmcr))
 8005dc2:	68fb      	ldr	r3, [r7, #12]
 8005dc4:	2b06      	cmp	r3, #6
 8005dc6:	d010      	beq.n	8005dea <HAL_TIM_PWM_Start+0x156>
    {
      __HAL_TIM_ENABLE(htim);
 8005dc8:	687b      	ldr	r3, [r7, #4]
 8005dca:	681b      	ldr	r3, [r3, #0]
 8005dcc:	681a      	ldr	r2, [r3, #0]
 8005dce:	687b      	ldr	r3, [r7, #4]
 8005dd0:	681b      	ldr	r3, [r3, #0]
 8005dd2:	f042 0201 	orr.w	r2, r2, #1
 8005dd6:	601a      	str	r2, [r3, #0]
    if (!IS_TIM_SLAVEMODE_TRIGGER_ENABLED(tmpsmcr))
 8005dd8:	e007      	b.n	8005dea <HAL_TIM_PWM_Start+0x156>
    }
  }
  else
  {
    __HAL_TIM_ENABLE(htim);
 8005dda:	687b      	ldr	r3, [r7, #4]
 8005ddc:	681b      	ldr	r3, [r3, #0]
 8005dde:	681a      	ldr	r2, [r3, #0]
 8005de0:	687b      	ldr	r3, [r7, #4]
 8005de2:	681b      	ldr	r3, [r3, #0]
 8005de4:	f042 0201 	orr.w	r2, r2, #1
 8005de8:	601a      	str	r2, [r3, #0]
  }

  /* Return function status */
  return HAL_OK;
 8005dea:	2300      	movs	r3, #0
}
 8005dec:	4618      	mov	r0, r3
 8005dee:	3710      	adds	r7, #16
 8005df0:	46bd      	mov	sp, r7
 8005df2:	bd80      	pop	{r7, pc}
 8005df4:	40012c00 	.word	0x40012c00
 8005df8:	40013400 	.word	0x40013400
 8005dfc:	40000400 	.word	0x40000400
 8005e00:	40000800 	.word	0x40000800
 8005e04:	40000c00 	.word	0x40000c00

08005e08 <HAL_TIM_PWM_Stop>:
  *            @arg TIM_CHANNEL_3: TIM Channel 3 selected
  *            @arg TIM_CHANNEL_4: TIM Channel 4 selected
  * @retval HAL status
  */
HAL_StatusTypeDef HAL_TIM_PWM_Stop(TIM_HandleTypeDef *htim, uint32_t Channel)
{
 8005e08:	b580      	push	{r7, lr}
 8005e0a:	b082      	sub	sp, #8
 8005e0c:	af00      	add	r7, sp, #0
 8005e0e:	6078      	str	r0, [r7, #4]
 8005e10:	6039      	str	r1, [r7, #0]
  /* Check the parameters */
  assert_param(IS_TIM_CCX_INSTANCE(htim->Instance, Channel));

  /* Disable the Capture compare channel */
  TIM_CCxChannelCmd(htim->Instance, Channel, TIM_CCx_DISABLE);
 8005e12:	687b      	ldr	r3, [r7, #4]
 8005e14:	681b      	ldr	r3, [r3, #0]
 8005e16:	2200      	movs	r2, #0
 8005e18:	6839      	ldr	r1, [r7, #0]
 8005e1a:	4618      	mov	r0, r3
 8005e1c:	f000 fdd8 	bl	80069d0 <TIM_CCxChannelCmd>

  if (IS_TIM_BREAK_INSTANCE(htim->Instance) != RESET)
 8005e20:	687b      	ldr	r3, [r7, #4]
 8005e22:	681b      	ldr	r3, [r3, #0]
 8005e24:	4a2e      	ldr	r2, [pc, #184]	; (8005ee0 <HAL_TIM_PWM_Stop+0xd8>)
 8005e26:	4293      	cmp	r3, r2
 8005e28:	d004      	beq.n	8005e34 <HAL_TIM_PWM_Stop+0x2c>
 8005e2a:	687b      	ldr	r3, [r7, #4]
 8005e2c:	681b      	ldr	r3, [r3, #0]
 8005e2e:	4a2d      	ldr	r2, [pc, #180]	; (8005ee4 <HAL_TIM_PWM_Stop+0xdc>)
 8005e30:	4293      	cmp	r3, r2
 8005e32:	d101      	bne.n	8005e38 <HAL_TIM_PWM_Stop+0x30>
 8005e34:	2301      	movs	r3, #1
 8005e36:	e000      	b.n	8005e3a <HAL_TIM_PWM_Stop+0x32>
 8005e38:	2300      	movs	r3, #0
 8005e3a:	2b00      	cmp	r3, #0
 8005e3c:	d017      	beq.n	8005e6e <HAL_TIM_PWM_Stop+0x66>
  {
    /* Disable the Main Output */
    __HAL_TIM_MOE_DISABLE(htim);
 8005e3e:	687b      	ldr	r3, [r7, #4]
 8005e40:	681b      	ldr	r3, [r3, #0]
 8005e42:	6a1a      	ldr	r2, [r3, #32]
 8005e44:	f241 1311 	movw	r3, #4369	; 0x1111
 8005e48:	4013      	ands	r3, r2
 8005e4a:	2b00      	cmp	r3, #0
 8005e4c:	d10f      	bne.n	8005e6e <HAL_TIM_PWM_Stop+0x66>
 8005e4e:	687b      	ldr	r3, [r7, #4]
 8005e50:	681b      	ldr	r3, [r3, #0]
 8005e52:	6a1a      	ldr	r2, [r3, #32]
 8005e54:	f240 4344 	movw	r3, #1092	; 0x444
 8005e58:	4013      	ands	r3, r2
 8005e5a:	2b00      	cmp	r3, #0
 8005e5c:	d107      	bne.n	8005e6e <HAL_TIM_PWM_Stop+0x66>
 8005e5e:	687b      	ldr	r3, [r7, #4]
 8005e60:	681b      	ldr	r3, [r3, #0]
 8005e62:	6c5a      	ldr	r2, [r3, #68]	; 0x44
 8005e64:	687b      	ldr	r3, [r7, #4]
 8005e66:	681b      	ldr	r3, [r3, #0]
 8005e68:	f422 4200 	bic.w	r2, r2, #32768	; 0x8000
 8005e6c:	645a      	str	r2, [r3, #68]	; 0x44
  }

  /* Disable the Peripheral */
  __HAL_TIM_DISABLE(htim);
 8005e6e:	687b      	ldr	r3, [r7, #4]
 8005e70:	681b      	ldr	r3, [r3, #0]
 8005e72:	6a1a      	ldr	r2, [r3, #32]
 8005e74:	f241 1311 	movw	r3, #4369	; 0x1111
 8005e78:	4013      	ands	r3, r2
 8005e7a:	2b00      	cmp	r3, #0
 8005e7c:	d10f      	bne.n	8005e9e <HAL_TIM_PWM_Stop+0x96>
 8005e7e:	687b      	ldr	r3, [r7, #4]
 8005e80:	681b      	ldr	r3, [r3, #0]
 8005e82:	6a1a      	ldr	r2, [r3, #32]
 8005e84:	f240 4344 	movw	r3, #1092	; 0x444
 8005e88:	4013      	ands	r3, r2
 8005e8a:	2b00      	cmp	r3, #0
 8005e8c:	d107      	bne.n	8005e9e <HAL_TIM_PWM_Stop+0x96>
 8005e8e:	687b      	ldr	r3, [r7, #4]
 8005e90:	681b      	ldr	r3, [r3, #0]
 8005e92:	681a      	ldr	r2, [r3, #0]
 8005e94:	687b      	ldr	r3, [r7, #4]
 8005e96:	681b      	ldr	r3, [r3, #0]
 8005e98:	f022 0201 	bic.w	r2, r2, #1
 8005e9c:	601a      	str	r2, [r3, #0]

  /* Set the TIM channel state */
  TIM_CHANNEL_STATE_SET(htim, Channel, HAL_TIM_CHANNEL_STATE_READY);
 8005e9e:	683b      	ldr	r3, [r7, #0]
 8005ea0:	2b00      	cmp	r3, #0
 8005ea2:	d104      	bne.n	8005eae <HAL_TIM_PWM_Stop+0xa6>
 8005ea4:	687b      	ldr	r3, [r7, #4]
 8005ea6:	2201      	movs	r2, #1
 8005ea8:	f883 203e 	strb.w	r2, [r3, #62]	; 0x3e
 8005eac:	e013      	b.n	8005ed6 <HAL_TIM_PWM_Stop+0xce>
 8005eae:	683b      	ldr	r3, [r7, #0]
 8005eb0:	2b04      	cmp	r3, #4
 8005eb2:	d104      	bne.n	8005ebe <HAL_TIM_PWM_Stop+0xb6>
 8005eb4:	687b      	ldr	r3, [r7, #4]
 8005eb6:	2201      	movs	r2, #1
 8005eb8:	f883 203f 	strb.w	r2, [r3, #63]	; 0x3f
 8005ebc:	e00b      	b.n	8005ed6 <HAL_TIM_PWM_Stop+0xce>
 8005ebe:	683b      	ldr	r3, [r7, #0]
 8005ec0:	2b08      	cmp	r3, #8
 8005ec2:	d104      	bne.n	8005ece <HAL_TIM_PWM_Stop+0xc6>
 8005ec4:	687b      	ldr	r3, [r7, #4]
 8005ec6:	2201      	movs	r2, #1
 8005ec8:	f883 2040 	strb.w	r2, [r3, #64]	; 0x40
 8005ecc:	e003      	b.n	8005ed6 <HAL_TIM_PWM_Stop+0xce>
 8005ece:	687b      	ldr	r3, [r7, #4]
 8005ed0:	2201      	movs	r2, #1
 8005ed2:	f883 2041 	strb.w	r2, [r3, #65]	; 0x41

  /* Return function status */
  return HAL_OK;
 8005ed6:	2300      	movs	r3, #0
}
 8005ed8:	4618      	mov	r0, r3
 8005eda:	3708      	adds	r7, #8
 8005edc:	46bd      	mov	sp, r7
 8005ede:	bd80      	pop	{r7, pc}
 8005ee0:	40012c00 	.word	0x40012c00
 8005ee4:	40013400 	.word	0x40013400

08005ee8 <HAL_TIM_IRQHandler>:
  * @brief  This function handles TIM interrupts requests.
  * @param  htim TIM  handle
  * @retval None
  */
void HAL_TIM_IRQHandler(TIM_HandleTypeDef *htim)
{
 8005ee8:	b580      	push	{r7, lr}
 8005eea:	b082      	sub	sp, #8
 8005eec:	af00      	add	r7, sp, #0
 8005eee:	6078      	str	r0, [r7, #4]
  /* Capture compare 1 event */
  if (__HAL_TIM_GET_FLAG(htim, TIM_FLAG_CC1) != RESET)
 8005ef0:	687b      	ldr	r3, [r7, #4]
 8005ef2:	681b      	ldr	r3, [r3, #0]
 8005ef4:	691b      	ldr	r3, [r3, #16]
 8005ef6:	f003 0302 	and.w	r3, r3, #2
 8005efa:	2b02      	cmp	r3, #2
 8005efc:	d122      	bne.n	8005f44 <HAL_TIM_IRQHandler+0x5c>
  {
    if (__HAL_TIM_GET_IT_SOURCE(htim, TIM_IT_CC1) != RESET)
 8005efe:	687b      	ldr	r3, [r7, #4]
 8005f00:	681b      	ldr	r3, [r3, #0]
 8005f02:	68db      	ldr	r3, [r3, #12]
 8005f04:	f003 0302 	and.w	r3, r3, #2
 8005f08:	2b02      	cmp	r3, #2
 8005f0a:	d11b      	bne.n	8005f44 <HAL_TIM_IRQHandler+0x5c>
    {
      {
        __HAL_TIM_CLEAR_IT(htim, TIM_IT_CC1);
 8005f0c:	687b      	ldr	r3, [r7, #4]
 8005f0e:	681b      	ldr	r3, [r3, #0]
 8005f10:	f06f 0202 	mvn.w	r2, #2
 8005f14:	611a      	str	r2, [r3, #16]
        htim->Channel = HAL_TIM_ACTIVE_CHANNEL_1;
 8005f16:	687b      	ldr	r3, [r7, #4]
 8005f18:	2201      	movs	r2, #1
 8005f1a:	771a      	strb	r2, [r3, #28]

        /* Input capture event */
        if ((htim->Instance->CCMR1 & TIM_CCMR1_CC1S) != 0x00U)
 8005f1c:	687b      	ldr	r3, [r7, #4]
 8005f1e:	681b      	ldr	r3, [r3, #0]
 8005f20:	699b      	ldr	r3, [r3, #24]
 8005f22:	f003 0303 	and.w	r3, r3, #3
 8005f26:	2b00      	cmp	r3, #0
 8005f28:	d003      	beq.n	8005f32 <HAL_TIM_IRQHandler+0x4a>
        {
#if (USE_HAL_TIM_REGISTER_CALLBACKS == 1)
          htim->IC_CaptureCallback(htim);
#else
          HAL_TIM_IC_CaptureCallback(htim);
 8005f2a:	6878      	ldr	r0, [r7, #4]
 8005f2c:	f000 fa78 	bl	8006420 <HAL_TIM_IC_CaptureCallback>
 8005f30:	e005      	b.n	8005f3e <HAL_TIM_IRQHandler+0x56>
        {
#if (USE_HAL_TIM_REGISTER_CALLBACKS == 1)
          htim->OC_DelayElapsedCallback(htim);
          htim->PWM_PulseFinishedCallback(htim);
#else
          HAL_TIM_OC_DelayElapsedCallback(htim);
 8005f32:	6878      	ldr	r0, [r7, #4]
 8005f34:	f000 fa6b 	bl	800640e <HAL_TIM_OC_DelayElapsedCallback>
          HAL_TIM_PWM_PulseFinishedCallback(htim);
 8005f38:	6878      	ldr	r0, [r7, #4]
 8005f3a:	f000 fa7a 	bl	8006432 <HAL_TIM_PWM_PulseFinishedCallback>
#endif /* USE_HAL_TIM_REGISTER_CALLBACKS */
        }
        htim->Channel = HAL_TIM_ACTIVE_CHANNEL_CLEARED;
 8005f3e:	687b      	ldr	r3, [r7, #4]
 8005f40:	2200      	movs	r2, #0
 8005f42:	771a      	strb	r2, [r3, #28]
      }
    }
  }
  /* Capture compare 2 event */
  if (__HAL_TIM_GET_FLAG(htim, TIM_FLAG_CC2) != RESET)
 8005f44:	687b      	ldr	r3, [r7, #4]
 8005f46:	681b      	ldr	r3, [r3, #0]
 8005f48:	691b      	ldr	r3, [r3, #16]
 8005f4a:	f003 0304 	and.w	r3, r3, #4
 8005f4e:	2b04      	cmp	r3, #4
 8005f50:	d122      	bne.n	8005f98 <HAL_TIM_IRQHandler+0xb0>
  {
    if (__HAL_TIM_GET_IT_SOURCE(htim, TIM_IT_CC2) != RESET)
 8005f52:	687b      	ldr	r3, [r7, #4]
 8005f54:	681b      	ldr	r3, [r3, #0]
 8005f56:	68db      	ldr	r3, [r3, #12]
 8005f58:	f003 0304 	and.w	r3, r3, #4
 8005f5c:	2b04      	cmp	r3, #4
 8005f5e:	d11b      	bne.n	8005f98 <HAL_TIM_IRQHandler+0xb0>
    {
      __HAL_TIM_CLEAR_IT(htim, TIM_IT_CC2);
 8005f60:	687b      	ldr	r3, [r7, #4]
 8005f62:	681b      	ldr	r3, [r3, #0]
 8005f64:	f06f 0204 	mvn.w	r2, #4
 8005f68:	611a      	str	r2, [r3, #16]
      htim->Channel = HAL_TIM_ACTIVE_CHANNEL_2;
 8005f6a:	687b      	ldr	r3, [r7, #4]
 8005f6c:	2202      	movs	r2, #2
 8005f6e:	771a      	strb	r2, [r3, #28]
      /* Input capture event */
      if ((htim->Instance->CCMR1 & TIM_CCMR1_CC2S) != 0x00U)
 8005f70:	687b      	ldr	r3, [r7, #4]
 8005f72:	681b      	ldr	r3, [r3, #0]
 8005f74:	699b      	ldr	r3, [r3, #24]
 8005f76:	f403 7340 	and.w	r3, r3, #768	; 0x300
 8005f7a:	2b00      	cmp	r3, #0
 8005f7c:	d003      	beq.n	8005f86 <HAL_TIM_IRQHandler+0x9e>
      {
#if (USE_HAL_TIM_REGISTER_CALLBACKS == 1)
        htim->IC_CaptureCallback(htim);
#else
        HAL_TIM_IC_CaptureCallback(htim);
 8005f7e:	6878      	ldr	r0, [r7, #4]
 8005f80:	f000 fa4e 	bl	8006420 <HAL_TIM_IC_CaptureCallback>
 8005f84:	e005      	b.n	8005f92 <HAL_TIM_IRQHandler+0xaa>
      {
#if (USE_HAL_TIM_REGISTER_CALLBACKS == 1)
        htim->OC_DelayElapsedCallback(htim);
        htim->PWM_PulseFinishedCallback(htim);
#else
        HAL_TIM_OC_DelayElapsedCallback(htim);
 8005f86:	6878      	ldr	r0, [r7, #4]
 8005f88:	f000 fa41 	bl	800640e <HAL_TIM_OC_DelayElapsedCallback>
        HAL_TIM_PWM_PulseFinishedCallback(htim);
 8005f8c:	6878      	ldr	r0, [r7, #4]
 8005f8e:	f000 fa50 	bl	8006432 <HAL_TIM_PWM_PulseFinishedCallback>
#endif /* USE_HAL_TIM_REGISTER_CALLBACKS */
      }
      htim->Channel = HAL_TIM_ACTIVE_CHANNEL_CLEARED;
 8005f92:	687b      	ldr	r3, [r7, #4]
 8005f94:	2200      	movs	r2, #0
 8005f96:	771a      	strb	r2, [r3, #28]
    }
  }
  /* Capture compare 3 event */
  if (__HAL_TIM_GET_FLAG(htim, TIM_FLAG_CC3) != RESET)
 8005f98:	687b      	ldr	r3, [r7, #4]
 8005f9a:	681b      	ldr	r3, [r3, #0]
 8005f9c:	691b      	ldr	r3, [r3, #16]
 8005f9e:	f003 0308 	and.w	r3, r3, #8
 8005fa2:	2b08      	cmp	r3, #8
 8005fa4:	d122      	bne.n	8005fec <HAL_TIM_IRQHandler+0x104>
  {
    if (__HAL_TIM_GET_IT_SOURCE(htim, TIM_IT_CC3) != RESET)
 8005fa6:	687b      	ldr	r3, [r7, #4]
 8005fa8:	681b      	ldr	r3, [r3, #0]
 8005faa:	68db      	ldr	r3, [r3, #12]
 8005fac:	f003 0308 	and.w	r3, r3, #8
 8005fb0:	2b08      	cmp	r3, #8
 8005fb2:	d11b      	bne.n	8005fec <HAL_TIM_IRQHandler+0x104>
    {
      __HAL_TIM_CLEAR_IT(htim, TIM_IT_CC3);
 8005fb4:	687b      	ldr	r3, [r7, #4]
 8005fb6:	681b      	ldr	r3, [r3, #0]
 8005fb8:	f06f 0208 	mvn.w	r2, #8
 8005fbc:	611a      	str	r2, [r3, #16]
      htim->Channel = HAL_TIM_ACTIVE_CHANNEL_3;
 8005fbe:	687b      	ldr	r3, [r7, #4]
 8005fc0:	2204      	movs	r2, #4
 8005fc2:	771a      	strb	r2, [r3, #28]
      /* Input capture event */
      if ((htim->Instance->CCMR2 & TIM_CCMR2_CC3S) != 0x00U)
 8005fc4:	687b      	ldr	r3, [r7, #4]
 8005fc6:	681b      	ldr	r3, [r3, #0]
 8005fc8:	69db      	ldr	r3, [r3, #28]
 8005fca:	f003 0303 	and.w	r3, r3, #3
 8005fce:	2b00      	cmp	r3, #0
 8005fd0:	d003      	beq.n	8005fda <HAL_TIM_IRQHandler+0xf2>
      {
#if (USE_HAL_TIM_REGISTER_CALLBACKS == 1)
        htim->IC_CaptureCallback(htim);
#else
        HAL_TIM_IC_CaptureCallback(htim);
 8005fd2:	6878      	ldr	r0, [r7, #4]
 8005fd4:	f000 fa24 	bl	8006420 <HAL_TIM_IC_CaptureCallback>
 8005fd8:	e005      	b.n	8005fe6 <HAL_TIM_IRQHandler+0xfe>
      {
#if (USE_HAL_TIM_REGISTER_CALLBACKS == 1)
        htim->OC_DelayElapsedCallback(htim);
        htim->PWM_PulseFinishedCallback(htim);
#else
        HAL_TIM_OC_DelayElapsedCallback(htim);
 8005fda:	6878      	ldr	r0, [r7, #4]
 8005fdc:	f000 fa17 	bl	800640e <HAL_TIM_OC_DelayElapsedCallback>
        HAL_TIM_PWM_PulseFinishedCallback(htim);
 8005fe0:	6878      	ldr	r0, [r7, #4]
 8005fe2:	f000 fa26 	bl	8006432 <HAL_TIM_PWM_PulseFinishedCallback>
#endif /* USE_HAL_TIM_REGISTER_CALLBACKS */
      }
      htim->Channel = HAL_TIM_ACTIVE_CHANNEL_CLEARED;
 8005fe6:	687b      	ldr	r3, [r7, #4]
 8005fe8:	2200      	movs	r2, #0
 8005fea:	771a      	strb	r2, [r3, #28]
    }
  }
  /* Capture compare 4 event */
  if (__HAL_TIM_GET_FLAG(htim, TIM_FLAG_CC4) != RESET)
 8005fec:	687b      	ldr	r3, [r7, #4]
 8005fee:	681b      	ldr	r3, [r3, #0]
 8005ff0:	691b      	ldr	r3, [r3, #16]
 8005ff2:	f003 0310 	and.w	r3, r3, #16
 8005ff6:	2b10      	cmp	r3, #16
 8005ff8:	d122      	bne.n	8006040 <HAL_TIM_IRQHandler+0x158>
  {
    if (__HAL_TIM_GET_IT_SOURCE(htim, TIM_IT_CC4) != RESET)
 8005ffa:	687b      	ldr	r3, [r7, #4]
 8005ffc:	681b      	ldr	r3, [r3, #0]
 8005ffe:	68db      	ldr	r3, [r3, #12]
 8006000:	f003 0310 	and.w	r3, r3, #16
 8006004:	2b10      	cmp	r3, #16
 8006006:	d11b      	bne.n	8006040 <HAL_TIM_IRQHandler+0x158>
    {
      __HAL_TIM_CLEAR_IT(htim, TIM_IT_CC4);
 8006008:	687b      	ldr	r3, [r7, #4]
 800600a:	681b      	ldr	r3, [r3, #0]
 800600c:	f06f 0210 	mvn.w	r2, #16
 8006010:	611a      	str	r2, [r3, #16]
      htim->Channel = HAL_TIM_ACTIVE_CHANNEL_4;
 8006012:	687b      	ldr	r3, [r7, #4]
 8006014:	2208      	movs	r2, #8
 8006016:	771a      	strb	r2, [r3, #28]
      /* Input capture event */
      if ((htim->Instance->CCMR2 & TIM_CCMR2_CC4S) != 0x00U)
 8006018:	687b      	ldr	r3, [r7, #4]
 800601a:	681b      	ldr	r3, [r3, #0]
 800601c:	69db      	ldr	r3, [r3, #28]
 800601e:	f403 7340 	and.w	r3, r3, #768	; 0x300
 8006022:	2b00      	cmp	r3, #0
 8006024:	d003      	beq.n	800602e <HAL_TIM_IRQHandler+0x146>
      {
#if (USE_HAL_TIM_REGISTER_CALLBACKS == 1)
        htim->IC_CaptureCallback(htim);
#else
        HAL_TIM_IC_CaptureCallback(htim);
 8006026:	6878      	ldr	r0, [r7, #4]
 8006028:	f000 f9fa 	bl	8006420 <HAL_TIM_IC_CaptureCallback>
 800602c:	e005      	b.n	800603a <HAL_TIM_IRQHandler+0x152>
      {
#if (USE_HAL_TIM_REGISTER_CALLBACKS == 1)
        htim->OC_DelayElapsedCallback(htim);
        htim->PWM_PulseFinishedCallback(htim);
#else
        HAL_TIM_OC_DelayElapsedCallback(htim);
 800602e:	6878      	ldr	r0, [r7, #4]
 8006030:	f000 f9ed 	bl	800640e <HAL_TIM_OC_DelayElapsedCallback>
        HAL_TIM_PWM_PulseFinishedCallback(htim);
 8006034:	6878      	ldr	r0, [r7, #4]
 8006036:	f000 f9fc 	bl	8006432 <HAL_TIM_PWM_PulseFinishedCallback>
#endif /* USE_HAL_TIM_REGISTER_CALLBACKS */
      }
      htim->Channel = HAL_TIM_ACTIVE_CHANNEL_CLEARED;
 800603a:	687b      	ldr	r3, [r7, #4]
 800603c:	2200      	movs	r2, #0
 800603e:	771a      	strb	r2, [r3, #28]
    }
  }
  /* TIM Update event */
  if (__HAL_TIM_GET_FLAG(htim, TIM_FLAG_UPDATE) != RESET)
 8006040:	687b      	ldr	r3, [r7, #4]
 8006042:	681b      	ldr	r3, [r3, #0]
 8006044:	691b      	ldr	r3, [r3, #16]
 8006046:	f003 0301 	and.w	r3, r3, #1
 800604a:	2b01      	cmp	r3, #1
 800604c:	d10e      	bne.n	800606c <HAL_TIM_IRQHandler+0x184>
  {
    if (__HAL_TIM_GET_IT_SOURCE(htim, TIM_IT_UPDATE) != RESET)
 800604e:	687b      	ldr	r3, [r7, #4]
 8006050:	681b      	ldr	r3, [r3, #0]
 8006052:	68db      	ldr	r3, [r3, #12]
 8006054:	f003 0301 	and.w	r3, r3, #1
 8006058:	2b01      	cmp	r3, #1
 800605a:	d107      	bne.n	800606c <HAL_TIM_IRQHandler+0x184>
    {
      __HAL_TIM_CLEAR_IT(htim, TIM_IT_UPDATE);
 800605c:	687b      	ldr	r3, [r7, #4]
 800605e:	681b      	ldr	r3, [r3, #0]
 8006060:	f06f 0201 	mvn.w	r2, #1
 8006064:	611a      	str	r2, [r3, #16]
#if (USE_HAL_TIM_REGISTER_CALLBACKS == 1)
      htim->PeriodElapsedCallback(htim);
#else
      HAL_TIM_PeriodElapsedCallback(htim);
 8006066:	6878      	ldr	r0, [r7, #4]
 8006068:	f000 f9c8 	bl	80063fc <HAL_TIM_PeriodElapsedCallback>
#endif /* USE_HAL_TIM_REGISTER_CALLBACKS */
    }
  }
  /* TIM Break input event */
  if (__HAL_TIM_GET_FLAG(htim, TIM_FLAG_BREAK) != RESET)
 800606c:	687b      	ldr	r3, [r7, #4]
 800606e:	681b      	ldr	r3, [r3, #0]
 8006070:	691b      	ldr	r3, [r3, #16]
 8006072:	f003 0380 	and.w	r3, r3, #128	; 0x80
 8006076:	2b80      	cmp	r3, #128	; 0x80
 8006078:	d10e      	bne.n	8006098 <HAL_TIM_IRQHandler+0x1b0>
  {
    if (__HAL_TIM_GET_IT_SOURCE(htim, TIM_IT_BREAK) != RESET)
 800607a:	687b      	ldr	r3, [r7, #4]
 800607c:	681b      	ldr	r3, [r3, #0]
 800607e:	68db      	ldr	r3, [r3, #12]
 8006080:	f003 0380 	and.w	r3, r3, #128	; 0x80
 8006084:	2b80      	cmp	r3, #128	; 0x80
 8006086:	d107      	bne.n	8006098 <HAL_TIM_IRQHandler+0x1b0>
    {
      __HAL_TIM_CLEAR_IT(htim, TIM_IT_BREAK);
 8006088:	687b      	ldr	r3, [r7, #4]
 800608a:	681b      	ldr	r3, [r3, #0]
 800608c:	f06f 0280 	mvn.w	r2, #128	; 0x80
 8006090:	611a      	str	r2, [r3, #16]
#if (USE_HAL_TIM_REGISTER_CALLBACKS == 1)
      htim->BreakCallback(htim);
#else
      HAL_TIMEx_BreakCallback(htim);
 8006092:	6878      	ldr	r0, [r7, #4]
 8006094:	f000 fd35 	bl	8006b02 <HAL_TIMEx_BreakCallback>
#endif /* USE_HAL_TIM_REGISTER_CALLBACKS */
    }
  }
  /* TIM Trigger detection event */
  if (__HAL_TIM_GET_FLAG(htim, TIM_FLAG_TRIGGER) != RESET)
 8006098:	687b      	ldr	r3, [r7, #4]
 800609a:	681b      	ldr	r3, [r3, #0]
 800609c:	691b      	ldr	r3, [r3, #16]
 800609e:	f003 0340 	and.w	r3, r3, #64	; 0x40
 80060a2:	2b40      	cmp	r3, #64	; 0x40
 80060a4:	d10e      	bne.n	80060c4 <HAL_TIM_IRQHandler+0x1dc>
  {
    if (__HAL_TIM_GET_IT_SOURCE(htim, TIM_IT_TRIGGER) != RESET)
 80060a6:	687b      	ldr	r3, [r7, #4]
 80060a8:	681b      	ldr	r3, [r3, #0]
 80060aa:	68db      	ldr	r3, [r3, #12]
 80060ac:	f003 0340 	and.w	r3, r3, #64	; 0x40
 80060b0:	2b40      	cmp	r3, #64	; 0x40
 80060b2:	d107      	bne.n	80060c4 <HAL_TIM_IRQHandler+0x1dc>
    {
      __HAL_TIM_CLEAR_IT(htim, TIM_IT_TRIGGER);
 80060b4:	687b      	ldr	r3, [r7, #4]
 80060b6:	681b      	ldr	r3, [r3, #0]
 80060b8:	f06f 0240 	mvn.w	r2, #64	; 0x40
 80060bc:	611a      	str	r2, [r3, #16]
#if (USE_HAL_TIM_REGISTER_CALLBACKS == 1)
      htim->TriggerCallback(htim);
#else
      HAL_TIM_TriggerCallback(htim);
 80060be:	6878      	ldr	r0, [r7, #4]
 80060c0:	f000 f9c0 	bl	8006444 <HAL_TIM_TriggerCallback>
#endif /* USE_HAL_TIM_REGISTER_CALLBACKS */
    }
  }
  /* TIM commutation event */
  if (__HAL_TIM_GET_FLAG(htim, TIM_FLAG_COM) != RESET)
 80060c4:	687b      	ldr	r3, [r7, #4]
 80060c6:	681b      	ldr	r3, [r3, #0]
 80060c8:	691b      	ldr	r3, [r3, #16]
 80060ca:	f003 0320 	and.w	r3, r3, #32
 80060ce:	2b20      	cmp	r3, #32
 80060d0:	d10e      	bne.n	80060f0 <HAL_TIM_IRQHandler+0x208>
  {
    if (__HAL_TIM_GET_IT_SOURCE(htim, TIM_IT_COM) != RESET)
 80060d2:	687b      	ldr	r3, [r7, #4]
 80060d4:	681b      	ldr	r3, [r3, #0]
 80060d6:	68db      	ldr	r3, [r3, #12]
 80060d8:	f003 0320 	and.w	r3, r3, #32
 80060dc:	2b20      	cmp	r3, #32
 80060de:	d107      	bne.n	80060f0 <HAL_TIM_IRQHandler+0x208>
    {
      __HAL_TIM_CLEAR_IT(htim, TIM_FLAG_COM);
 80060e0:	687b      	ldr	r3, [r7, #4]
 80060e2:	681b      	ldr	r3, [r3, #0]
 80060e4:	f06f 0220 	mvn.w	r2, #32
 80060e8:	611a      	str	r2, [r3, #16]
#if (USE_HAL_TIM_REGISTER_CALLBACKS == 1)
      htim->CommutationCallback(htim);
#else
      HAL_TIMEx_CommutCallback(htim);
 80060ea:	6878      	ldr	r0, [r7, #4]
 80060ec:	f000 fd00 	bl	8006af0 <HAL_TIMEx_CommutCallback>
#endif /* USE_HAL_TIM_REGISTER_CALLBACKS */
    }
  }
}
 80060f0:	bf00      	nop
 80060f2:	3708      	adds	r7, #8
 80060f4:	46bd      	mov	sp, r7
 80060f6:	bd80      	pop	{r7, pc}

080060f8 <HAL_TIM_PWM_ConfigChannel>:
  * @retval HAL status
  */
HAL_StatusTypeDef HAL_TIM_PWM_ConfigChannel(TIM_HandleTypeDef *htim,
                                            TIM_OC_InitTypeDef *sConfig,
                                            uint32_t Channel)
{
 80060f8:	b580      	push	{r7, lr}
 80060fa:	b084      	sub	sp, #16
 80060fc:	af00      	add	r7, sp, #0
 80060fe:	60f8      	str	r0, [r7, #12]
 8006100:	60b9      	str	r1, [r7, #8]
 8006102:	607a      	str	r2, [r7, #4]
  assert_param(IS_TIM_PWM_MODE(sConfig->OCMode));
  assert_param(IS_TIM_OC_POLARITY(sConfig->OCPolarity));
  assert_param(IS_TIM_FAST_STATE(sConfig->OCFastMode));

  /* Process Locked */
  __HAL_LOCK(htim);
 8006104:	68fb      	ldr	r3, [r7, #12]
 8006106:	f893 303c 	ldrb.w	r3, [r3, #60]	; 0x3c
 800610a:	2b01      	cmp	r3, #1
 800610c:	d101      	bne.n	8006112 <HAL_TIM_PWM_ConfigChannel+0x1a>
 800610e:	2302      	movs	r3, #2
 8006110:	e0ac      	b.n	800626c <HAL_TIM_PWM_ConfigChannel+0x174>
 8006112:	68fb      	ldr	r3, [r7, #12]
 8006114:	2201      	movs	r2, #1
 8006116:	f883 203c 	strb.w	r2, [r3, #60]	; 0x3c
 800611a:	687b      	ldr	r3, [r7, #4]
 800611c:	2b0c      	cmp	r3, #12
 800611e:	f200 809f 	bhi.w	8006260 <HAL_TIM_PWM_ConfigChannel+0x168>
 8006122:	a201      	add	r2, pc, #4	; (adr r2, 8006128 <HAL_TIM_PWM_ConfigChannel+0x30>)
 8006124:	f852 f023 	ldr.w	pc, [r2, r3, lsl #2]
 8006128:	0800615d 	.word	0x0800615d
 800612c:	08006261 	.word	0x08006261
 8006130:	08006261 	.word	0x08006261
 8006134:	08006261 	.word	0x08006261
 8006138:	0800619d 	.word	0x0800619d
 800613c:	08006261 	.word	0x08006261
 8006140:	08006261 	.word	0x08006261
 8006144:	08006261 	.word	0x08006261
 8006148:	080061df 	.word	0x080061df
 800614c:	08006261 	.word	0x08006261
 8006150:	08006261 	.word	0x08006261
 8006154:	08006261 	.word	0x08006261
 8006158:	0800621f 	.word	0x0800621f
    {
      /* Check the parameters */
      assert_param(IS_TIM_CC1_INSTANCE(htim->Instance));

      /* Configure the Channel 1 in PWM mode */
      TIM_OC1_SetConfig(htim->Instance, sConfig);
 800615c:	68fb      	ldr	r3, [r7, #12]
 800615e:	681b      	ldr	r3, [r3, #0]
 8006160:	68b9      	ldr	r1, [r7, #8]
 8006162:	4618      	mov	r0, r3
 8006164:	f000 f9f2 	bl	800654c <TIM_OC1_SetConfig>

      /* Set the Preload enable bit for channel1 */
      htim->Instance->CCMR1 |= TIM_CCMR1_OC1PE;
 8006168:	68fb      	ldr	r3, [r7, #12]
 800616a:	681b      	ldr	r3, [r3, #0]
 800616c:	699a      	ldr	r2, [r3, #24]
 800616e:	68fb      	ldr	r3, [r7, #12]
 8006170:	681b      	ldr	r3, [r3, #0]
 8006172:	f042 0208 	orr.w	r2, r2, #8
 8006176:	619a      	str	r2, [r3, #24]

      /* Configure the Output Fast mode */
      htim->Instance->CCMR1 &= ~TIM_CCMR1_OC1FE;
 8006178:	68fb      	ldr	r3, [r7, #12]
 800617a:	681b      	ldr	r3, [r3, #0]
 800617c:	699a      	ldr	r2, [r3, #24]
 800617e:	68fb      	ldr	r3, [r7, #12]
 8006180:	681b      	ldr	r3, [r3, #0]
 8006182:	f022 0204 	bic.w	r2, r2, #4
 8006186:	619a      	str	r2, [r3, #24]
      htim->Instance->CCMR1 |= sConfig->OCFastMode;
 8006188:	68fb      	ldr	r3, [r7, #12]
 800618a:	681b      	ldr	r3, [r3, #0]
 800618c:	6999      	ldr	r1, [r3, #24]
 800618e:	68bb      	ldr	r3, [r7, #8]
 8006190:	691a      	ldr	r2, [r3, #16]
 8006192:	68fb      	ldr	r3, [r7, #12]
 8006194:	681b      	ldr	r3, [r3, #0]
 8006196:	430a      	orrs	r2, r1
 8006198:	619a      	str	r2, [r3, #24]
      break;
 800619a:	e062      	b.n	8006262 <HAL_TIM_PWM_ConfigChannel+0x16a>
    {
      /* Check the parameters */
      assert_param(IS_TIM_CC2_INSTANCE(htim->Instance));

      /* Configure the Channel 2 in PWM mode */
      TIM_OC2_SetConfig(htim->Instance, sConfig);
 800619c:	68fb      	ldr	r3, [r7, #12]
 800619e:	681b      	ldr	r3, [r3, #0]
 80061a0:	68b9      	ldr	r1, [r7, #8]
 80061a2:	4618      	mov	r0, r3
 80061a4:	f000 fa42 	bl	800662c <TIM_OC2_SetConfig>

      /* Set the Preload enable bit for channel2 */
      htim->Instance->CCMR1 |= TIM_CCMR1_OC2PE;
 80061a8:	68fb      	ldr	r3, [r7, #12]
 80061aa:	681b      	ldr	r3, [r3, #0]
 80061ac:	699a      	ldr	r2, [r3, #24]
 80061ae:	68fb      	ldr	r3, [r7, #12]
 80061b0:	681b      	ldr	r3, [r3, #0]
 80061b2:	f442 6200 	orr.w	r2, r2, #2048	; 0x800
 80061b6:	619a      	str	r2, [r3, #24]

      /* Configure the Output Fast mode */
      htim->Instance->CCMR1 &= ~TIM_CCMR1_OC2FE;
 80061b8:	68fb      	ldr	r3, [r7, #12]
 80061ba:	681b      	ldr	r3, [r3, #0]
 80061bc:	699a      	ldr	r2, [r3, #24]
 80061be:	68fb      	ldr	r3, [r7, #12]
 80061c0:	681b      	ldr	r3, [r3, #0]
 80061c2:	f422 6280 	bic.w	r2, r2, #1024	; 0x400
 80061c6:	619a      	str	r2, [r3, #24]
      htim->Instance->CCMR1 |= sConfig->OCFastMode << 8U;
 80061c8:	68fb      	ldr	r3, [r7, #12]
 80061ca:	681b      	ldr	r3, [r3, #0]
 80061cc:	6999      	ldr	r1, [r3, #24]
 80061ce:	68bb      	ldr	r3, [r7, #8]
 80061d0:	691b      	ldr	r3, [r3, #16]
 80061d2:	021a      	lsls	r2, r3, #8
 80061d4:	68fb      	ldr	r3, [r7, #12]
 80061d6:	681b      	ldr	r3, [r3, #0]
 80061d8:	430a      	orrs	r2, r1
 80061da:	619a      	str	r2, [r3, #24]
      break;
 80061dc:	e041      	b.n	8006262 <HAL_TIM_PWM_ConfigChannel+0x16a>
    {
      /* Check the parameters */
      assert_param(IS_TIM_CC3_INSTANCE(htim->Instance));

      /* Configure the Channel 3 in PWM mode */
      TIM_OC3_SetConfig(htim->Instance, sConfig);
 80061de:	68fb      	ldr	r3, [r7, #12]
 80061e0:	681b      	ldr	r3, [r3, #0]
 80061e2:	68b9      	ldr	r1, [r7, #8]
 80061e4:	4618      	mov	r0, r3
 80061e6:	f000 fa95 	bl	8006714 <TIM_OC3_SetConfig>

      /* Set the Preload enable bit for channel3 */
      htim->Instance->CCMR2 |= TIM_CCMR2_OC3PE;
 80061ea:	68fb      	ldr	r3, [r7, #12]
 80061ec:	681b      	ldr	r3, [r3, #0]
 80061ee:	69da      	ldr	r2, [r3, #28]
 80061f0:	68fb      	ldr	r3, [r7, #12]
 80061f2:	681b      	ldr	r3, [r3, #0]
 80061f4:	f042 0208 	orr.w	r2, r2, #8
 80061f8:	61da      	str	r2, [r3, #28]

      /* Configure the Output Fast mode */
      htim->Instance->CCMR2 &= ~TIM_CCMR2_OC3FE;
 80061fa:	68fb      	ldr	r3, [r7, #12]
 80061fc:	681b      	ldr	r3, [r3, #0]
 80061fe:	69da      	ldr	r2, [r3, #28]
 8006200:	68fb      	ldr	r3, [r7, #12]
 8006202:	681b      	ldr	r3, [r3, #0]
 8006204:	f022 0204 	bic.w	r2, r2, #4
 8006208:	61da      	str	r2, [r3, #28]
      htim->Instance->CCMR2 |= sConfig->OCFastMode;
 800620a:	68fb      	ldr	r3, [r7, #12]
 800620c:	681b      	ldr	r3, [r3, #0]
 800620e:	69d9      	ldr	r1, [r3, #28]
 8006210:	68bb      	ldr	r3, [r7, #8]
 8006212:	691a      	ldr	r2, [r3, #16]
 8006214:	68fb      	ldr	r3, [r7, #12]
 8006216:	681b      	ldr	r3, [r3, #0]
 8006218:	430a      	orrs	r2, r1
 800621a:	61da      	str	r2, [r3, #28]
      break;
 800621c:	e021      	b.n	8006262 <HAL_TIM_PWM_ConfigChannel+0x16a>
    {
      /* Check the parameters */
      assert_param(IS_TIM_CC4_INSTANCE(htim->Instance));

      /* Configure the Channel 4 in PWM mode */
      TIM_OC4_SetConfig(htim->Instance, sConfig);
 800621e:	68fb      	ldr	r3, [r7, #12]
 8006220:	681b      	ldr	r3, [r3, #0]
 8006222:	68b9      	ldr	r1, [r7, #8]
 8006224:	4618      	mov	r0, r3
 8006226:	f000 fae9 	bl	80067fc <TIM_OC4_SetConfig>

      /* Set the Preload enable bit for channel4 */
      htim->Instance->CCMR2 |= TIM_CCMR2_OC4PE;
 800622a:	68fb      	ldr	r3, [r7, #12]
 800622c:	681b      	ldr	r3, [r3, #0]
 800622e:	69da      	ldr	r2, [r3, #28]
 8006230:	68fb      	ldr	r3, [r7, #12]
 8006232:	681b      	ldr	r3, [r3, #0]
 8006234:	f442 6200 	orr.w	r2, r2, #2048	; 0x800
 8006238:	61da      	str	r2, [r3, #28]

      /* Configure the Output Fast mode */
      htim->Instance->CCMR2 &= ~TIM_CCMR2_OC4FE;
 800623a:	68fb      	ldr	r3, [r7, #12]
 800623c:	681b      	ldr	r3, [r3, #0]
 800623e:	69da      	ldr	r2, [r3, #28]
 8006240:	68fb      	ldr	r3, [r7, #12]
 8006242:	681b      	ldr	r3, [r3, #0]
 8006244:	f422 6280 	bic.w	r2, r2, #1024	; 0x400
 8006248:	61da      	str	r2, [r3, #28]
      htim->Instance->CCMR2 |= sConfig->OCFastMode << 8U;
 800624a:	68fb      	ldr	r3, [r7, #12]
 800624c:	681b      	ldr	r3, [r3, #0]
 800624e:	69d9      	ldr	r1, [r3, #28]
 8006250:	68bb      	ldr	r3, [r7, #8]
 8006252:	691b      	ldr	r3, [r3, #16]
 8006254:	021a      	lsls	r2, r3, #8
 8006256:	68fb      	ldr	r3, [r7, #12]
 8006258:	681b      	ldr	r3, [r3, #0]
 800625a:	430a      	orrs	r2, r1
 800625c:	61da      	str	r2, [r3, #28]
      break;
 800625e:	e000      	b.n	8006262 <HAL_TIM_PWM_ConfigChannel+0x16a>
    }

    default:
      break;
 8006260:	bf00      	nop
  }

  __HAL_UNLOCK(htim);
 8006262:	68fb      	ldr	r3, [r7, #12]
 8006264:	2200      	movs	r2, #0
 8006266:	f883 203c 	strb.w	r2, [r3, #60]	; 0x3c

  return HAL_OK;
 800626a:	2300      	movs	r3, #0
}
 800626c:	4618      	mov	r0, r3
 800626e:	3710      	adds	r7, #16
 8006270:	46bd      	mov	sp, r7
 8006272:	bd80      	pop	{r7, pc}

08006274 <HAL_TIM_ConfigClockSource>:
  * @param  sClockSourceConfig pointer to a TIM_ClockConfigTypeDef structure that
  *         contains the clock source information for the TIM peripheral.
  * @retval HAL status
  */
HAL_StatusTypeDef HAL_TIM_ConfigClockSource(TIM_HandleTypeDef *htim, TIM_ClockConfigTypeDef *sClockSourceConfig)
{
 8006274:	b580      	push	{r7, lr}
 8006276:	b084      	sub	sp, #16
 8006278:	af00      	add	r7, sp, #0
 800627a:	6078      	str	r0, [r7, #4]
 800627c:	6039      	str	r1, [r7, #0]
  uint32_t tmpsmcr;

  /* Process Locked */
  __HAL_LOCK(htim);
 800627e:	687b      	ldr	r3, [r7, #4]
 8006280:	f893 303c 	ldrb.w	r3, [r3, #60]	; 0x3c
 8006284:	2b01      	cmp	r3, #1
 8006286:	d101      	bne.n	800628c <HAL_TIM_ConfigClockSource+0x18>
 8006288:	2302      	movs	r3, #2
 800628a:	e0b3      	b.n	80063f4 <HAL_TIM_ConfigClockSource+0x180>
 800628c:	687b      	ldr	r3, [r7, #4]
 800628e:	2201      	movs	r2, #1
 8006290:	f883 203c 	strb.w	r2, [r3, #60]	; 0x3c

  htim->State = HAL_TIM_STATE_BUSY;
 8006294:	687b      	ldr	r3, [r7, #4]
 8006296:	2202      	movs	r2, #2
 8006298:	f883 203d 	strb.w	r2, [r3, #61]	; 0x3d

  /* Check the parameters */
  assert_param(IS_TIM_CLOCKSOURCE(sClockSourceConfig->ClockSource));

  /* Reset the SMS, TS, ECE, ETPS and ETRF bits */
  tmpsmcr = htim->Instance->SMCR;
 800629c:	687b      	ldr	r3, [r7, #4]
 800629e:	681b      	ldr	r3, [r3, #0]
 80062a0:	689b      	ldr	r3, [r3, #8]
 80062a2:	60fb      	str	r3, [r7, #12]
  tmpsmcr &= ~(TIM_SMCR_SMS | TIM_SMCR_TS);
 80062a4:	68fb      	ldr	r3, [r7, #12]
 80062a6:	f023 0377 	bic.w	r3, r3, #119	; 0x77
 80062aa:	60fb      	str	r3, [r7, #12]
  tmpsmcr &= ~(TIM_SMCR_ETF | TIM_SMCR_ETPS | TIM_SMCR_ECE | TIM_SMCR_ETP);
 80062ac:	68fb      	ldr	r3, [r7, #12]
 80062ae:	f423 437f 	bic.w	r3, r3, #65280	; 0xff00
 80062b2:	60fb      	str	r3, [r7, #12]
  htim->Instance->SMCR = tmpsmcr;
 80062b4:	687b      	ldr	r3, [r7, #4]
 80062b6:	681b      	ldr	r3, [r3, #0]
 80062b8:	68fa      	ldr	r2, [r7, #12]
 80062ba:	609a      	str	r2, [r3, #8]

  switch (sClockSourceConfig->ClockSource)
 80062bc:	683b      	ldr	r3, [r7, #0]
 80062be:	681b      	ldr	r3, [r3, #0]
 80062c0:	f5b3 5f00 	cmp.w	r3, #8192	; 0x2000
 80062c4:	d03e      	beq.n	8006344 <HAL_TIM_ConfigClockSource+0xd0>
 80062c6:	f5b3 5f00 	cmp.w	r3, #8192	; 0x2000
 80062ca:	f200 8087 	bhi.w	80063dc <HAL_TIM_ConfigClockSource+0x168>
 80062ce:	f5b3 5f80 	cmp.w	r3, #4096	; 0x1000
 80062d2:	f000 8085 	beq.w	80063e0 <HAL_TIM_ConfigClockSource+0x16c>
 80062d6:	f5b3 5f80 	cmp.w	r3, #4096	; 0x1000
 80062da:	d87f      	bhi.n	80063dc <HAL_TIM_ConfigClockSource+0x168>
 80062dc:	2b70      	cmp	r3, #112	; 0x70
 80062de:	d01a      	beq.n	8006316 <HAL_TIM_ConfigClockSource+0xa2>
 80062e0:	2b70      	cmp	r3, #112	; 0x70
 80062e2:	d87b      	bhi.n	80063dc <HAL_TIM_ConfigClockSource+0x168>
 80062e4:	2b60      	cmp	r3, #96	; 0x60
 80062e6:	d050      	beq.n	800638a <HAL_TIM_ConfigClockSource+0x116>
 80062e8:	2b60      	cmp	r3, #96	; 0x60
 80062ea:	d877      	bhi.n	80063dc <HAL_TIM_ConfigClockSource+0x168>
 80062ec:	2b50      	cmp	r3, #80	; 0x50
 80062ee:	d03c      	beq.n	800636a <HAL_TIM_ConfigClockSource+0xf6>
 80062f0:	2b50      	cmp	r3, #80	; 0x50
 80062f2:	d873      	bhi.n	80063dc <HAL_TIM_ConfigClockSource+0x168>
 80062f4:	2b40      	cmp	r3, #64	; 0x40
 80062f6:	d058      	beq.n	80063aa <HAL_TIM_ConfigClockSource+0x136>
 80062f8:	2b40      	cmp	r3, #64	; 0x40
 80062fa:	d86f      	bhi.n	80063dc <HAL_TIM_ConfigClockSource+0x168>
 80062fc:	2b30      	cmp	r3, #48	; 0x30
 80062fe:	d064      	beq.n	80063ca <HAL_TIM_ConfigClockSource+0x156>
 8006300:	2b30      	cmp	r3, #48	; 0x30
 8006302:	d86b      	bhi.n	80063dc <HAL_TIM_ConfigClockSource+0x168>
 8006304:	2b20      	cmp	r3, #32
 8006306:	d060      	beq.n	80063ca <HAL_TIM_ConfigClockSource+0x156>
 8006308:	2b20      	cmp	r3, #32
 800630a:	d867      	bhi.n	80063dc <HAL_TIM_ConfigClockSource+0x168>
 800630c:	2b00      	cmp	r3, #0
 800630e:	d05c      	beq.n	80063ca <HAL_TIM_ConfigClockSource+0x156>
 8006310:	2b10      	cmp	r3, #16
 8006312:	d05a      	beq.n	80063ca <HAL_TIM_ConfigClockSource+0x156>
        TIM_ITRx_SetConfig(htim->Instance, sClockSourceConfig->ClockSource);
        break;
      }

    default:
      break;
 8006314:	e062      	b.n	80063dc <HAL_TIM_ConfigClockSource+0x168>
      TIM_ETR_SetConfig(htim->Instance,
 8006316:	687b      	ldr	r3, [r7, #4]
 8006318:	6818      	ldr	r0, [r3, #0]
 800631a:	683b      	ldr	r3, [r7, #0]
 800631c:	6899      	ldr	r1, [r3, #8]
 800631e:	683b      	ldr	r3, [r7, #0]
 8006320:	685a      	ldr	r2, [r3, #4]
 8006322:	683b      	ldr	r3, [r7, #0]
 8006324:	68db      	ldr	r3, [r3, #12]
 8006326:	f000 fb34 	bl	8006992 <TIM_ETR_SetConfig>
      tmpsmcr = htim->Instance->SMCR;
 800632a:	687b      	ldr	r3, [r7, #4]
 800632c:	681b      	ldr	r3, [r3, #0]
 800632e:	689b      	ldr	r3, [r3, #8]
 8006330:	60fb      	str	r3, [r7, #12]
      tmpsmcr |= (TIM_SLAVEMODE_EXTERNAL1 | TIM_CLOCKSOURCE_ETRMODE1);
 8006332:	68fb      	ldr	r3, [r7, #12]
 8006334:	f043 0377 	orr.w	r3, r3, #119	; 0x77
 8006338:	60fb      	str	r3, [r7, #12]
      htim->Instance->SMCR = tmpsmcr;
 800633a:	687b      	ldr	r3, [r7, #4]
 800633c:	681b      	ldr	r3, [r3, #0]
 800633e:	68fa      	ldr	r2, [r7, #12]
 8006340:	609a      	str	r2, [r3, #8]
      break;
 8006342:	e04e      	b.n	80063e2 <HAL_TIM_ConfigClockSource+0x16e>
      TIM_ETR_SetConfig(htim->Instance,
 8006344:	687b      	ldr	r3, [r7, #4]
 8006346:	6818      	ldr	r0, [r3, #0]
 8006348:	683b      	ldr	r3, [r7, #0]
 800634a:	6899      	ldr	r1, [r3, #8]
 800634c:	683b      	ldr	r3, [r7, #0]
 800634e:	685a      	ldr	r2, [r3, #4]
 8006350:	683b      	ldr	r3, [r7, #0]
 8006352:	68db      	ldr	r3, [r3, #12]
 8006354:	f000 fb1d 	bl	8006992 <TIM_ETR_SetConfig>
      htim->Instance->SMCR |= TIM_SMCR_ECE;
 8006358:	687b      	ldr	r3, [r7, #4]
 800635a:	681b      	ldr	r3, [r3, #0]
 800635c:	689a      	ldr	r2, [r3, #8]
 800635e:	687b      	ldr	r3, [r7, #4]
 8006360:	681b      	ldr	r3, [r3, #0]
 8006362:	f442 4280 	orr.w	r2, r2, #16384	; 0x4000
 8006366:	609a      	str	r2, [r3, #8]
      break;
 8006368:	e03b      	b.n	80063e2 <HAL_TIM_ConfigClockSource+0x16e>
      TIM_TI1_ConfigInputStage(htim->Instance,
 800636a:	687b      	ldr	r3, [r7, #4]
 800636c:	6818      	ldr	r0, [r3, #0]
 800636e:	683b      	ldr	r3, [r7, #0]
 8006370:	6859      	ldr	r1, [r3, #4]
 8006372:	683b      	ldr	r3, [r7, #0]
 8006374:	68db      	ldr	r3, [r3, #12]
 8006376:	461a      	mov	r2, r3
 8006378:	f000 fa94 	bl	80068a4 <TIM_TI1_ConfigInputStage>
      TIM_ITRx_SetConfig(htim->Instance, TIM_CLOCKSOURCE_TI1);
 800637c:	687b      	ldr	r3, [r7, #4]
 800637e:	681b      	ldr	r3, [r3, #0]
 8006380:	2150      	movs	r1, #80	; 0x50
 8006382:	4618      	mov	r0, r3
 8006384:	f000 faeb 	bl	800695e <TIM_ITRx_SetConfig>
      break;
 8006388:	e02b      	b.n	80063e2 <HAL_TIM_ConfigClockSource+0x16e>
      TIM_TI2_ConfigInputStage(htim->Instance,
 800638a:	687b      	ldr	r3, [r7, #4]
 800638c:	6818      	ldr	r0, [r3, #0]
 800638e:	683b      	ldr	r3, [r7, #0]
 8006390:	6859      	ldr	r1, [r3, #4]
 8006392:	683b      	ldr	r3, [r7, #0]
 8006394:	68db      	ldr	r3, [r3, #12]
 8006396:	461a      	mov	r2, r3
 8006398:	f000 fab2 	bl	8006900 <TIM_TI2_ConfigInputStage>
      TIM_ITRx_SetConfig(htim->Instance, TIM_CLOCKSOURCE_TI2);
 800639c:	687b      	ldr	r3, [r7, #4]
 800639e:	681b      	ldr	r3, [r3, #0]
 80063a0:	2160      	movs	r1, #96	; 0x60
 80063a2:	4618      	mov	r0, r3
 80063a4:	f000 fadb 	bl	800695e <TIM_ITRx_SetConfig>
      break;
 80063a8:	e01b      	b.n	80063e2 <HAL_TIM_ConfigClockSource+0x16e>
      TIM_TI1_ConfigInputStage(htim->Instance,
 80063aa:	687b      	ldr	r3, [r7, #4]
 80063ac:	6818      	ldr	r0, [r3, #0]
 80063ae:	683b      	ldr	r3, [r7, #0]
 80063b0:	6859      	ldr	r1, [r3, #4]
 80063b2:	683b      	ldr	r3, [r7, #0]
 80063b4:	68db      	ldr	r3, [r3, #12]
 80063b6:	461a      	mov	r2, r3
 80063b8:	f000 fa74 	bl	80068a4 <TIM_TI1_ConfigInputStage>
      TIM_ITRx_SetConfig(htim->Instance, TIM_CLOCKSOURCE_TI1ED);
 80063bc:	687b      	ldr	r3, [r7, #4]
 80063be:	681b      	ldr	r3, [r3, #0]
 80063c0:	2140      	movs	r1, #64	; 0x40
 80063c2:	4618      	mov	r0, r3
 80063c4:	f000 facb 	bl	800695e <TIM_ITRx_SetConfig>
      break;
 80063c8:	e00b      	b.n	80063e2 <HAL_TIM_ConfigClockSource+0x16e>
        TIM_ITRx_SetConfig(htim->Instance, sClockSourceConfig->ClockSource);
 80063ca:	687b      	ldr	r3, [r7, #4]
 80063cc:	681a      	ldr	r2, [r3, #0]
 80063ce:	683b      	ldr	r3, [r7, #0]
 80063d0:	681b      	ldr	r3, [r3, #0]
 80063d2:	4619      	mov	r1, r3
 80063d4:	4610      	mov	r0, r2
 80063d6:	f000 fac2 	bl	800695e <TIM_ITRx_SetConfig>
        break;
 80063da:	e002      	b.n	80063e2 <HAL_TIM_ConfigClockSource+0x16e>
      break;
 80063dc:	bf00      	nop
 80063de:	e000      	b.n	80063e2 <HAL_TIM_ConfigClockSource+0x16e>
      break;
 80063e0:	bf00      	nop
  }
  htim->State = HAL_TIM_STATE_READY;
 80063e2:	687b      	ldr	r3, [r7, #4]
 80063e4:	2201      	movs	r2, #1
 80063e6:	f883 203d 	strb.w	r2, [r3, #61]	; 0x3d

  __HAL_UNLOCK(htim);
 80063ea:	687b      	ldr	r3, [r7, #4]
 80063ec:	2200      	movs	r2, #0
 80063ee:	f883 203c 	strb.w	r2, [r3, #60]	; 0x3c

  return HAL_OK;
 80063f2:	2300      	movs	r3, #0
}
 80063f4:	4618      	mov	r0, r3
 80063f6:	3710      	adds	r7, #16
 80063f8:	46bd      	mov	sp, r7
 80063fa:	bd80      	pop	{r7, pc}

080063fc <HAL_TIM_PeriodElapsedCallback>:
  * @brief  Period elapsed callback in non-blocking mode
  * @param  htim TIM handle
  * @retval None
  */
__weak void HAL_TIM_PeriodElapsedCallback(TIM_HandleTypeDef *htim)
{
 80063fc:	b480      	push	{r7}
 80063fe:	b083      	sub	sp, #12
 8006400:	af00      	add	r7, sp, #0
 8006402:	6078      	str	r0, [r7, #4]
  UNUSED(htim);

  /* NOTE : This function should not be modified, when the callback is needed,
            the HAL_TIM_PeriodElapsedCallback could be implemented in the user file
   */
}
 8006404:	bf00      	nop
 8006406:	370c      	adds	r7, #12
 8006408:	46bd      	mov	sp, r7
 800640a:	bc80      	pop	{r7}
 800640c:	4770      	bx	lr

0800640e <HAL_TIM_OC_DelayElapsedCallback>:
  * @brief  Output Compare callback in non-blocking mode
  * @param  htim TIM OC handle
  * @retval None
  */
__weak void HAL_TIM_OC_DelayElapsedCallback(TIM_HandleTypeDef *htim)
{
 800640e:	b480      	push	{r7}
 8006410:	b083      	sub	sp, #12
 8006412:	af00      	add	r7, sp, #0
 8006414:	6078      	str	r0, [r7, #4]
  UNUSED(htim);

  /* NOTE : This function should not be modified, when the callback is needed,
            the HAL_TIM_OC_DelayElapsedCallback could be implemented in the user file
   */
}
 8006416:	bf00      	nop
 8006418:	370c      	adds	r7, #12
 800641a:	46bd      	mov	sp, r7
 800641c:	bc80      	pop	{r7}
 800641e:	4770      	bx	lr

08006420 <HAL_TIM_IC_CaptureCallback>:
  * @brief  Input Capture callback in non-blocking mode
  * @param  htim TIM IC handle
  * @retval None
  */
__weak void HAL_TIM_IC_CaptureCallback(TIM_HandleTypeDef *htim)
{
 8006420:	b480      	push	{r7}
 8006422:	b083      	sub	sp, #12
 8006424:	af00      	add	r7, sp, #0
 8006426:	6078      	str	r0, [r7, #4]
  UNUSED(htim);

  /* NOTE : This function should not be modified, when the callback is needed,
            the HAL_TIM_IC_CaptureCallback could be implemented in the user file
   */
}
 8006428:	bf00      	nop
 800642a:	370c      	adds	r7, #12
 800642c:	46bd      	mov	sp, r7
 800642e:	bc80      	pop	{r7}
 8006430:	4770      	bx	lr

08006432 <HAL_TIM_PWM_PulseFinishedCallback>:
  * @brief  PWM Pulse finished callback in non-blocking mode
  * @param  htim TIM handle
  * @retval None
  */
__weak void HAL_TIM_PWM_PulseFinishedCallback(TIM_HandleTypeDef *htim)
{
 8006432:	b480      	push	{r7}
 8006434:	b083      	sub	sp, #12
 8006436:	af00      	add	r7, sp, #0
 8006438:	6078      	str	r0, [r7, #4]
  UNUSED(htim);

  /* NOTE : This function should not be modified, when the callback is needed,
            the HAL_TIM_PWM_PulseFinishedCallback could be implemented in the user file
   */
}
 800643a:	bf00      	nop
 800643c:	370c      	adds	r7, #12
 800643e:	46bd      	mov	sp, r7
 8006440:	bc80      	pop	{r7}
 8006442:	4770      	bx	lr

08006444 <HAL_TIM_TriggerCallback>:
  * @brief  Hall Trigger detection callback in non-blocking mode
  * @param  htim TIM handle
  * @retval None
  */
__weak void HAL_TIM_TriggerCallback(TIM_HandleTypeDef *htim)
{
 8006444:	b480      	push	{r7}
 8006446:	b083      	sub	sp, #12
 8006448:	af00      	add	r7, sp, #0
 800644a:	6078      	str	r0, [r7, #4]
  UNUSED(htim);

  /* NOTE : This function should not be modified, when the callback is needed,
            the HAL_TIM_TriggerCallback could be implemented in the user file
   */
}
 800644c:	bf00      	nop
 800644e:	370c      	adds	r7, #12
 8006450:	46bd      	mov	sp, r7
 8006452:	bc80      	pop	{r7}
 8006454:	4770      	bx	lr
	...

08006458 <TIM_Base_SetConfig>:
  * @param  TIMx TIM peripheral
  * @param  Structure TIM Base configuration structure
  * @retval None
  */
void TIM_Base_SetConfig(TIM_TypeDef *TIMx, TIM_Base_InitTypeDef *Structure)
{
 8006458:	b480      	push	{r7}
 800645a:	b085      	sub	sp, #20
 800645c:	af00      	add	r7, sp, #0
 800645e:	6078      	str	r0, [r7, #4]
 8006460:	6039      	str	r1, [r7, #0]
  uint32_t tmpcr1;
  tmpcr1 = TIMx->CR1;
 8006462:	687b      	ldr	r3, [r7, #4]
 8006464:	681b      	ldr	r3, [r3, #0]
 8006466:	60fb      	str	r3, [r7, #12]

  /* Set TIM Time Base Unit parameters ---------------------------------------*/
  if (IS_TIM_COUNTER_MODE_SELECT_INSTANCE(TIMx))
 8006468:	687b      	ldr	r3, [r7, #4]
 800646a:	4a33      	ldr	r2, [pc, #204]	; (8006538 <TIM_Base_SetConfig+0xe0>)
 800646c:	4293      	cmp	r3, r2
 800646e:	d013      	beq.n	8006498 <TIM_Base_SetConfig+0x40>
 8006470:	687b      	ldr	r3, [r7, #4]
 8006472:	4a32      	ldr	r2, [pc, #200]	; (800653c <TIM_Base_SetConfig+0xe4>)
 8006474:	4293      	cmp	r3, r2
 8006476:	d00f      	beq.n	8006498 <TIM_Base_SetConfig+0x40>
 8006478:	687b      	ldr	r3, [r7, #4]
 800647a:	f1b3 4f80 	cmp.w	r3, #1073741824	; 0x40000000
 800647e:	d00b      	beq.n	8006498 <TIM_Base_SetConfig+0x40>
 8006480:	687b      	ldr	r3, [r7, #4]
 8006482:	4a2f      	ldr	r2, [pc, #188]	; (8006540 <TIM_Base_SetConfig+0xe8>)
 8006484:	4293      	cmp	r3, r2
 8006486:	d007      	beq.n	8006498 <TIM_Base_SetConfig+0x40>
 8006488:	687b      	ldr	r3, [r7, #4]
 800648a:	4a2e      	ldr	r2, [pc, #184]	; (8006544 <TIM_Base_SetConfig+0xec>)
 800648c:	4293      	cmp	r3, r2
 800648e:	d003      	beq.n	8006498 <TIM_Base_SetConfig+0x40>
 8006490:	687b      	ldr	r3, [r7, #4]
 8006492:	4a2d      	ldr	r2, [pc, #180]	; (8006548 <TIM_Base_SetConfig+0xf0>)
 8006494:	4293      	cmp	r3, r2
 8006496:	d108      	bne.n	80064aa <TIM_Base_SetConfig+0x52>
  {
    /* Select the Counter Mode */
    tmpcr1 &= ~(TIM_CR1_DIR | TIM_CR1_CMS);
 8006498:	68fb      	ldr	r3, [r7, #12]
 800649a:	f023 0370 	bic.w	r3, r3, #112	; 0x70
 800649e:	60fb      	str	r3, [r7, #12]
    tmpcr1 |= Structure->CounterMode;
 80064a0:	683b      	ldr	r3, [r7, #0]
 80064a2:	685b      	ldr	r3, [r3, #4]
 80064a4:	68fa      	ldr	r2, [r7, #12]
 80064a6:	4313      	orrs	r3, r2
 80064a8:	60fb      	str	r3, [r7, #12]
  }

  if (IS_TIM_CLOCK_DIVISION_INSTANCE(TIMx))
 80064aa:	687b      	ldr	r3, [r7, #4]
 80064ac:	4a22      	ldr	r2, [pc, #136]	; (8006538 <TIM_Base_SetConfig+0xe0>)
 80064ae:	4293      	cmp	r3, r2
 80064b0:	d013      	beq.n	80064da <TIM_Base_SetConfig+0x82>
 80064b2:	687b      	ldr	r3, [r7, #4]
 80064b4:	4a21      	ldr	r2, [pc, #132]	; (800653c <TIM_Base_SetConfig+0xe4>)
 80064b6:	4293      	cmp	r3, r2
 80064b8:	d00f      	beq.n	80064da <TIM_Base_SetConfig+0x82>
 80064ba:	687b      	ldr	r3, [r7, #4]
 80064bc:	f1b3 4f80 	cmp.w	r3, #1073741824	; 0x40000000
 80064c0:	d00b      	beq.n	80064da <TIM_Base_SetConfig+0x82>
 80064c2:	687b      	ldr	r3, [r7, #4]
 80064c4:	4a1e      	ldr	r2, [pc, #120]	; (8006540 <TIM_Base_SetConfig+0xe8>)
 80064c6:	4293      	cmp	r3, r2
 80064c8:	d007      	beq.n	80064da <TIM_Base_SetConfig+0x82>
 80064ca:	687b      	ldr	r3, [r7, #4]
 80064cc:	4a1d      	ldr	r2, [pc, #116]	; (8006544 <TIM_Base_SetConfig+0xec>)
 80064ce:	4293      	cmp	r3, r2
 80064d0:	d003      	beq.n	80064da <TIM_Base_SetConfig+0x82>
 80064d2:	687b      	ldr	r3, [r7, #4]
 80064d4:	4a1c      	ldr	r2, [pc, #112]	; (8006548 <TIM_Base_SetConfig+0xf0>)
 80064d6:	4293      	cmp	r3, r2
 80064d8:	d108      	bne.n	80064ec <TIM_Base_SetConfig+0x94>
  {
    /* Set the clock division */
    tmpcr1 &= ~TIM_CR1_CKD;
 80064da:	68fb      	ldr	r3, [r7, #12]
 80064dc:	f423 7340 	bic.w	r3, r3, #768	; 0x300
 80064e0:	60fb      	str	r3, [r7, #12]
    tmpcr1 |= (uint32_t)Structure->ClockDivision;
 80064e2:	683b      	ldr	r3, [r7, #0]
 80064e4:	68db      	ldr	r3, [r3, #12]
 80064e6:	68fa      	ldr	r2, [r7, #12]
 80064e8:	4313      	orrs	r3, r2
 80064ea:	60fb      	str	r3, [r7, #12]
  }

  /* Set the auto-reload preload */
  MODIFY_REG(tmpcr1, TIM_CR1_ARPE, Structure->AutoReloadPreload);
 80064ec:	68fb      	ldr	r3, [r7, #12]
 80064ee:	f023 0280 	bic.w	r2, r3, #128	; 0x80
 80064f2:	683b      	ldr	r3, [r7, #0]
 80064f4:	695b      	ldr	r3, [r3, #20]
 80064f6:	4313      	orrs	r3, r2
 80064f8:	60fb      	str	r3, [r7, #12]

  TIMx->CR1 = tmpcr1;
 80064fa:	687b      	ldr	r3, [r7, #4]
 80064fc:	68fa      	ldr	r2, [r7, #12]
 80064fe:	601a      	str	r2, [r3, #0]

  /* Set the Autoreload value */
  TIMx->ARR = (uint32_t)Structure->Period ;
 8006500:	683b      	ldr	r3, [r7, #0]
 8006502:	689a      	ldr	r2, [r3, #8]
 8006504:	687b      	ldr	r3, [r7, #4]
 8006506:	62da      	str	r2, [r3, #44]	; 0x2c

  /* Set the Prescaler value */
  TIMx->PSC = Structure->Prescaler;
 8006508:	683b      	ldr	r3, [r7, #0]
 800650a:	681a      	ldr	r2, [r3, #0]
 800650c:	687b      	ldr	r3, [r7, #4]
 800650e:	629a      	str	r2, [r3, #40]	; 0x28

  if (IS_TIM_REPETITION_COUNTER_INSTANCE(TIMx))
 8006510:	687b      	ldr	r3, [r7, #4]
 8006512:	4a09      	ldr	r2, [pc, #36]	; (8006538 <TIM_Base_SetConfig+0xe0>)
 8006514:	4293      	cmp	r3, r2
 8006516:	d003      	beq.n	8006520 <TIM_Base_SetConfig+0xc8>
 8006518:	687b      	ldr	r3, [r7, #4]
 800651a:	4a08      	ldr	r2, [pc, #32]	; (800653c <TIM_Base_SetConfig+0xe4>)
 800651c:	4293      	cmp	r3, r2
 800651e:	d103      	bne.n	8006528 <TIM_Base_SetConfig+0xd0>
  {
    /* Set the Repetition Counter value */
    TIMx->RCR = Structure->RepetitionCounter;
 8006520:	683b      	ldr	r3, [r7, #0]
 8006522:	691a      	ldr	r2, [r3, #16]
 8006524:	687b      	ldr	r3, [r7, #4]
 8006526:	631a      	str	r2, [r3, #48]	; 0x30
  }

  /* Generate an update event to reload the Prescaler
     and the repetition counter (only for advanced timer) value immediately */
  TIMx->EGR = TIM_EGR_UG;
 8006528:	687b      	ldr	r3, [r7, #4]
 800652a:	2201      	movs	r2, #1
 800652c:	615a      	str	r2, [r3, #20]
}
 800652e:	bf00      	nop
 8006530:	3714      	adds	r7, #20
 8006532:	46bd      	mov	sp, r7
 8006534:	bc80      	pop	{r7}
 8006536:	4770      	bx	lr
 8006538:	40012c00 	.word	0x40012c00
 800653c:	40013400 	.word	0x40013400
 8006540:	40000400 	.word	0x40000400
 8006544:	40000800 	.word	0x40000800
 8006548:	40000c00 	.word	0x40000c00

0800654c <TIM_OC1_SetConfig>:
  * @param  TIMx to select the TIM peripheral
  * @param  OC_Config The output configuration structure
  * @retval None
  */
static void TIM_OC1_SetConfig(TIM_TypeDef *TIMx, TIM_OC_InitTypeDef *OC_Config)
{
 800654c:	b480      	push	{r7}
 800654e:	b087      	sub	sp, #28
 8006550:	af00      	add	r7, sp, #0
 8006552:	6078      	str	r0, [r7, #4]
 8006554:	6039      	str	r1, [r7, #0]
  uint32_t tmpccmrx;
  uint32_t tmpccer;
  uint32_t tmpcr2;

  /* Disable the Channel 1: Reset the CC1E Bit */
  TIMx->CCER &= ~TIM_CCER_CC1E;
 8006556:	687b      	ldr	r3, [r7, #4]
 8006558:	6a1b      	ldr	r3, [r3, #32]
 800655a:	f023 0201 	bic.w	r2, r3, #1
 800655e:	687b      	ldr	r3, [r7, #4]
 8006560:	621a      	str	r2, [r3, #32]

  /* Get the TIMx CCER register value */
  tmpccer = TIMx->CCER;
 8006562:	687b      	ldr	r3, [r7, #4]
 8006564:	6a1b      	ldr	r3, [r3, #32]
 8006566:	617b      	str	r3, [r7, #20]
  /* Get the TIMx CR2 register value */
  tmpcr2 =  TIMx->CR2;
 8006568:	687b      	ldr	r3, [r7, #4]
 800656a:	685b      	ldr	r3, [r3, #4]
 800656c:	613b      	str	r3, [r7, #16]

  /* Get the TIMx CCMR1 register value */
  tmpccmrx = TIMx->CCMR1;
 800656e:	687b      	ldr	r3, [r7, #4]
 8006570:	699b      	ldr	r3, [r3, #24]
 8006572:	60fb      	str	r3, [r7, #12]

  /* Reset the Output Compare Mode Bits */
  tmpccmrx &= ~TIM_CCMR1_OC1M;
 8006574:	68fb      	ldr	r3, [r7, #12]
 8006576:	f023 0370 	bic.w	r3, r3, #112	; 0x70
 800657a:	60fb      	str	r3, [r7, #12]
  tmpccmrx &= ~TIM_CCMR1_CC1S;
 800657c:	68fb      	ldr	r3, [r7, #12]
 800657e:	f023 0303 	bic.w	r3, r3, #3
 8006582:	60fb      	str	r3, [r7, #12]
  /* Select the Output Compare Mode */
  tmpccmrx |= OC_Config->OCMode;
 8006584:	683b      	ldr	r3, [r7, #0]
 8006586:	681b      	ldr	r3, [r3, #0]
 8006588:	68fa      	ldr	r2, [r7, #12]
 800658a:	4313      	orrs	r3, r2
 800658c:	60fb      	str	r3, [r7, #12]

  /* Reset the Output Polarity level */
  tmpccer &= ~TIM_CCER_CC1P;
 800658e:	697b      	ldr	r3, [r7, #20]
 8006590:	f023 0302 	bic.w	r3, r3, #2
 8006594:	617b      	str	r3, [r7, #20]
  /* Set the Output Compare Polarity */
  tmpccer |= OC_Config->OCPolarity;
 8006596:	683b      	ldr	r3, [r7, #0]
 8006598:	689b      	ldr	r3, [r3, #8]
 800659a:	697a      	ldr	r2, [r7, #20]
 800659c:	4313      	orrs	r3, r2
 800659e:	617b      	str	r3, [r7, #20]

  if (IS_TIM_CCXN_INSTANCE(TIMx, TIM_CHANNEL_1))
 80065a0:	687b      	ldr	r3, [r7, #4]
 80065a2:	4a20      	ldr	r2, [pc, #128]	; (8006624 <TIM_OC1_SetConfig+0xd8>)
 80065a4:	4293      	cmp	r3, r2
 80065a6:	d003      	beq.n	80065b0 <TIM_OC1_SetConfig+0x64>
 80065a8:	687b      	ldr	r3, [r7, #4]
 80065aa:	4a1f      	ldr	r2, [pc, #124]	; (8006628 <TIM_OC1_SetConfig+0xdc>)
 80065ac:	4293      	cmp	r3, r2
 80065ae:	d10c      	bne.n	80065ca <TIM_OC1_SetConfig+0x7e>
  {
    /* Check parameters */
    assert_param(IS_TIM_OCN_POLARITY(OC_Config->OCNPolarity));

    /* Reset the Output N Polarity level */
    tmpccer &= ~TIM_CCER_CC1NP;
 80065b0:	697b      	ldr	r3, [r7, #20]
 80065b2:	f023 0308 	bic.w	r3, r3, #8
 80065b6:	617b      	str	r3, [r7, #20]
    /* Set the Output N Polarity */
    tmpccer |= OC_Config->OCNPolarity;
 80065b8:	683b      	ldr	r3, [r7, #0]
 80065ba:	68db      	ldr	r3, [r3, #12]
 80065bc:	697a      	ldr	r2, [r7, #20]
 80065be:	4313      	orrs	r3, r2
 80065c0:	617b      	str	r3, [r7, #20]
    /* Reset the Output N State */
    tmpccer &= ~TIM_CCER_CC1NE;
 80065c2:	697b      	ldr	r3, [r7, #20]
 80065c4:	f023 0304 	bic.w	r3, r3, #4
 80065c8:	617b      	str	r3, [r7, #20]
  }

  if (IS_TIM_BREAK_INSTANCE(TIMx))
 80065ca:	687b      	ldr	r3, [r7, #4]
 80065cc:	4a15      	ldr	r2, [pc, #84]	; (8006624 <TIM_OC1_SetConfig+0xd8>)
 80065ce:	4293      	cmp	r3, r2
 80065d0:	d003      	beq.n	80065da <TIM_OC1_SetConfig+0x8e>
 80065d2:	687b      	ldr	r3, [r7, #4]
 80065d4:	4a14      	ldr	r2, [pc, #80]	; (8006628 <TIM_OC1_SetConfig+0xdc>)
 80065d6:	4293      	cmp	r3, r2
 80065d8:	d111      	bne.n	80065fe <TIM_OC1_SetConfig+0xb2>
    /* Check parameters */
    assert_param(IS_TIM_OCNIDLE_STATE(OC_Config->OCNIdleState));
    assert_param(IS_TIM_OCIDLE_STATE(OC_Config->OCIdleState));

    /* Reset the Output Compare and Output Compare N IDLE State */
    tmpcr2 &= ~TIM_CR2_OIS1;
 80065da:	693b      	ldr	r3, [r7, #16]
 80065dc:	f423 7380 	bic.w	r3, r3, #256	; 0x100
 80065e0:	613b      	str	r3, [r7, #16]
    tmpcr2 &= ~TIM_CR2_OIS1N;
 80065e2:	693b      	ldr	r3, [r7, #16]
 80065e4:	f423 7300 	bic.w	r3, r3, #512	; 0x200
 80065e8:	613b      	str	r3, [r7, #16]
    /* Set the Output Idle state */
    tmpcr2 |= OC_Config->OCIdleState;
 80065ea:	683b      	ldr	r3, [r7, #0]
 80065ec:	695b      	ldr	r3, [r3, #20]
 80065ee:	693a      	ldr	r2, [r7, #16]
 80065f0:	4313      	orrs	r3, r2
 80065f2:	613b      	str	r3, [r7, #16]
    /* Set the Output N Idle state */
    tmpcr2 |= OC_Config->OCNIdleState;
 80065f4:	683b      	ldr	r3, [r7, #0]
 80065f6:	699b      	ldr	r3, [r3, #24]
 80065f8:	693a      	ldr	r2, [r7, #16]
 80065fa:	4313      	orrs	r3, r2
 80065fc:	613b      	str	r3, [r7, #16]
  }

  /* Write to TIMx CR2 */
  TIMx->CR2 = tmpcr2;
 80065fe:	687b      	ldr	r3, [r7, #4]
 8006600:	693a      	ldr	r2, [r7, #16]
 8006602:	605a      	str	r2, [r3, #4]

  /* Write to TIMx CCMR1 */
  TIMx->CCMR1 = tmpccmrx;
 8006604:	687b      	ldr	r3, [r7, #4]
 8006606:	68fa      	ldr	r2, [r7, #12]
 8006608:	619a      	str	r2, [r3, #24]

  /* Set the Capture Compare Register value */
  TIMx->CCR1 = OC_Config->Pulse;
 800660a:	683b      	ldr	r3, [r7, #0]
 800660c:	685a      	ldr	r2, [r3, #4]
 800660e:	687b      	ldr	r3, [r7, #4]
 8006610:	635a      	str	r2, [r3, #52]	; 0x34

  /* Write to TIMx CCER */
  TIMx->CCER = tmpccer;
 8006612:	687b      	ldr	r3, [r7, #4]
 8006614:	697a      	ldr	r2, [r7, #20]
 8006616:	621a      	str	r2, [r3, #32]
}
 8006618:	bf00      	nop
 800661a:	371c      	adds	r7, #28
 800661c:	46bd      	mov	sp, r7
 800661e:	bc80      	pop	{r7}
 8006620:	4770      	bx	lr
 8006622:	bf00      	nop
 8006624:	40012c00 	.word	0x40012c00
 8006628:	40013400 	.word	0x40013400

0800662c <TIM_OC2_SetConfig>:
  * @param  TIMx to select the TIM peripheral
  * @param  OC_Config The output configuration structure
  * @retval None
  */
void TIM_OC2_SetConfig(TIM_TypeDef *TIMx, TIM_OC_InitTypeDef *OC_Config)
{
 800662c:	b480      	push	{r7}
 800662e:	b087      	sub	sp, #28
 8006630:	af00      	add	r7, sp, #0
 8006632:	6078      	str	r0, [r7, #4]
 8006634:	6039      	str	r1, [r7, #0]
  uint32_t tmpccmrx;
  uint32_t tmpccer;
  uint32_t tmpcr2;

  /* Disable the Channel 2: Reset the CC2E Bit */
  TIMx->CCER &= ~TIM_CCER_CC2E;
 8006636:	687b      	ldr	r3, [r7, #4]
 8006638:	6a1b      	ldr	r3, [r3, #32]
 800663a:	f023 0210 	bic.w	r2, r3, #16
 800663e:	687b      	ldr	r3, [r7, #4]
 8006640:	621a      	str	r2, [r3, #32]

  /* Get the TIMx CCER register value */
  tmpccer = TIMx->CCER;
 8006642:	687b      	ldr	r3, [r7, #4]
 8006644:	6a1b      	ldr	r3, [r3, #32]
 8006646:	617b      	str	r3, [r7, #20]
  /* Get the TIMx CR2 register value */
  tmpcr2 =  TIMx->CR2;
 8006648:	687b      	ldr	r3, [r7, #4]
 800664a:	685b      	ldr	r3, [r3, #4]
 800664c:	613b      	str	r3, [r7, #16]

  /* Get the TIMx CCMR1 register value */
  tmpccmrx = TIMx->CCMR1;
 800664e:	687b      	ldr	r3, [r7, #4]
 8006650:	699b      	ldr	r3, [r3, #24]
 8006652:	60fb      	str	r3, [r7, #12]

  /* Reset the Output Compare mode and Capture/Compare selection Bits */
  tmpccmrx &= ~TIM_CCMR1_OC2M;
 8006654:	68fb      	ldr	r3, [r7, #12]
 8006656:	f423 43e0 	bic.w	r3, r3, #28672	; 0x7000
 800665a:	60fb      	str	r3, [r7, #12]
  tmpccmrx &= ~TIM_CCMR1_CC2S;
 800665c:	68fb      	ldr	r3, [r7, #12]
 800665e:	f423 7340 	bic.w	r3, r3, #768	; 0x300
 8006662:	60fb      	str	r3, [r7, #12]

  /* Select the Output Compare Mode */
  tmpccmrx |= (OC_Config->OCMode << 8U);
 8006664:	683b      	ldr	r3, [r7, #0]
 8006666:	681b      	ldr	r3, [r3, #0]
 8006668:	021b      	lsls	r3, r3, #8
 800666a:	68fa      	ldr	r2, [r7, #12]
 800666c:	4313      	orrs	r3, r2
 800666e:	60fb      	str	r3, [r7, #12]

  /* Reset the Output Polarity level */
  tmpccer &= ~TIM_CCER_CC2P;
 8006670:	697b      	ldr	r3, [r7, #20]
 8006672:	f023 0320 	bic.w	r3, r3, #32
 8006676:	617b      	str	r3, [r7, #20]
  /* Set the Output Compare Polarity */
  tmpccer |= (OC_Config->OCPolarity << 4U);
 8006678:	683b      	ldr	r3, [r7, #0]
 800667a:	689b      	ldr	r3, [r3, #8]
 800667c:	011b      	lsls	r3, r3, #4
 800667e:	697a      	ldr	r2, [r7, #20]
 8006680:	4313      	orrs	r3, r2
 8006682:	617b      	str	r3, [r7, #20]

  if (IS_TIM_CCXN_INSTANCE(TIMx, TIM_CHANNEL_2))
 8006684:	687b      	ldr	r3, [r7, #4]
 8006686:	4a21      	ldr	r2, [pc, #132]	; (800670c <TIM_OC2_SetConfig+0xe0>)
 8006688:	4293      	cmp	r3, r2
 800668a:	d003      	beq.n	8006694 <TIM_OC2_SetConfig+0x68>
 800668c:	687b      	ldr	r3, [r7, #4]
 800668e:	4a20      	ldr	r2, [pc, #128]	; (8006710 <TIM_OC2_SetConfig+0xe4>)
 8006690:	4293      	cmp	r3, r2
 8006692:	d10d      	bne.n	80066b0 <TIM_OC2_SetConfig+0x84>
  {
    assert_param(IS_TIM_OCN_POLARITY(OC_Config->OCNPolarity));

    /* Reset the Output N Polarity level */
    tmpccer &= ~TIM_CCER_CC2NP;
 8006694:	697b      	ldr	r3, [r7, #20]
 8006696:	f023 0380 	bic.w	r3, r3, #128	; 0x80
 800669a:	617b      	str	r3, [r7, #20]
    /* Set the Output N Polarity */
    tmpccer |= (OC_Config->OCNPolarity << 4U);
 800669c:	683b      	ldr	r3, [r7, #0]
 800669e:	68db      	ldr	r3, [r3, #12]
 80066a0:	011b      	lsls	r3, r3, #4
 80066a2:	697a      	ldr	r2, [r7, #20]
 80066a4:	4313      	orrs	r3, r2
 80066a6:	617b      	str	r3, [r7, #20]
    /* Reset the Output N State */
    tmpccer &= ~TIM_CCER_CC2NE;
 80066a8:	697b      	ldr	r3, [r7, #20]
 80066aa:	f023 0340 	bic.w	r3, r3, #64	; 0x40
 80066ae:	617b      	str	r3, [r7, #20]

  }

  if (IS_TIM_BREAK_INSTANCE(TIMx))
 80066b0:	687b      	ldr	r3, [r7, #4]
 80066b2:	4a16      	ldr	r2, [pc, #88]	; (800670c <TIM_OC2_SetConfig+0xe0>)
 80066b4:	4293      	cmp	r3, r2
 80066b6:	d003      	beq.n	80066c0 <TIM_OC2_SetConfig+0x94>
 80066b8:	687b      	ldr	r3, [r7, #4]
 80066ba:	4a15      	ldr	r2, [pc, #84]	; (8006710 <TIM_OC2_SetConfig+0xe4>)
 80066bc:	4293      	cmp	r3, r2
 80066be:	d113      	bne.n	80066e8 <TIM_OC2_SetConfig+0xbc>
    /* Check parameters */
    assert_param(IS_TIM_OCNIDLE_STATE(OC_Config->OCNIdleState));
    assert_param(IS_TIM_OCIDLE_STATE(OC_Config->OCIdleState));

    /* Reset the Output Compare and Output Compare N IDLE State */
    tmpcr2 &= ~TIM_CR2_OIS2;
 80066c0:	693b      	ldr	r3, [r7, #16]
 80066c2:	f423 6380 	bic.w	r3, r3, #1024	; 0x400
 80066c6:	613b      	str	r3, [r7, #16]
    tmpcr2 &= ~TIM_CR2_OIS2N;
 80066c8:	693b      	ldr	r3, [r7, #16]
 80066ca:	f423 6300 	bic.w	r3, r3, #2048	; 0x800
 80066ce:	613b      	str	r3, [r7, #16]
    /* Set the Output Idle state */
    tmpcr2 |= (OC_Config->OCIdleState << 2U);
 80066d0:	683b      	ldr	r3, [r7, #0]
 80066d2:	695b      	ldr	r3, [r3, #20]
 80066d4:	009b      	lsls	r3, r3, #2
 80066d6:	693a      	ldr	r2, [r7, #16]
 80066d8:	4313      	orrs	r3, r2
 80066da:	613b      	str	r3, [r7, #16]
    /* Set the Output N Idle state */
    tmpcr2 |= (OC_Config->OCNIdleState << 2U);
 80066dc:	683b      	ldr	r3, [r7, #0]
 80066de:	699b      	ldr	r3, [r3, #24]
 80066e0:	009b      	lsls	r3, r3, #2
 80066e2:	693a      	ldr	r2, [r7, #16]
 80066e4:	4313      	orrs	r3, r2
 80066e6:	613b      	str	r3, [r7, #16]
  }

  /* Write to TIMx CR2 */
  TIMx->CR2 = tmpcr2;
 80066e8:	687b      	ldr	r3, [r7, #4]
 80066ea:	693a      	ldr	r2, [r7, #16]
 80066ec:	605a      	str	r2, [r3, #4]

  /* Write to TIMx CCMR1 */
  TIMx->CCMR1 = tmpccmrx;
 80066ee:	687b      	ldr	r3, [r7, #4]
 80066f0:	68fa      	ldr	r2, [r7, #12]
 80066f2:	619a      	str	r2, [r3, #24]

  /* Set the Capture Compare Register value */
  TIMx->CCR2 = OC_Config->Pulse;
 80066f4:	683b      	ldr	r3, [r7, #0]
 80066f6:	685a      	ldr	r2, [r3, #4]
 80066f8:	687b      	ldr	r3, [r7, #4]
 80066fa:	639a      	str	r2, [r3, #56]	; 0x38

  /* Write to TIMx CCER */
  TIMx->CCER = tmpccer;
 80066fc:	687b      	ldr	r3, [r7, #4]
 80066fe:	697a      	ldr	r2, [r7, #20]
 8006700:	621a      	str	r2, [r3, #32]
}
 8006702:	bf00      	nop
 8006704:	371c      	adds	r7, #28
 8006706:	46bd      	mov	sp, r7
 8006708:	bc80      	pop	{r7}
 800670a:	4770      	bx	lr
 800670c:	40012c00 	.word	0x40012c00
 8006710:	40013400 	.word	0x40013400

08006714 <TIM_OC3_SetConfig>:
  * @param  TIMx to select the TIM peripheral
  * @param  OC_Config The output configuration structure
  * @retval None
  */
static void TIM_OC3_SetConfig(TIM_TypeDef *TIMx, TIM_OC_InitTypeDef *OC_Config)
{
 8006714:	b480      	push	{r7}
 8006716:	b087      	sub	sp, #28
 8006718:	af00      	add	r7, sp, #0
 800671a:	6078      	str	r0, [r7, #4]
 800671c:	6039      	str	r1, [r7, #0]
  uint32_t tmpccmrx;
  uint32_t tmpccer;
  uint32_t tmpcr2;

  /* Disable the Channel 3: Reset the CC2E Bit */
  TIMx->CCER &= ~TIM_CCER_CC3E;
 800671e:	687b      	ldr	r3, [r7, #4]
 8006720:	6a1b      	ldr	r3, [r3, #32]
 8006722:	f423 7280 	bic.w	r2, r3, #256	; 0x100
 8006726:	687b      	ldr	r3, [r7, #4]
 8006728:	621a      	str	r2, [r3, #32]

  /* Get the TIMx CCER register value */
  tmpccer = TIMx->CCER;
 800672a:	687b      	ldr	r3, [r7, #4]
 800672c:	6a1b      	ldr	r3, [r3, #32]
 800672e:	617b      	str	r3, [r7, #20]
  /* Get the TIMx CR2 register value */
  tmpcr2 =  TIMx->CR2;
 8006730:	687b      	ldr	r3, [r7, #4]
 8006732:	685b      	ldr	r3, [r3, #4]
 8006734:	613b      	str	r3, [r7, #16]

  /* Get the TIMx CCMR2 register value */
  tmpccmrx = TIMx->CCMR2;
 8006736:	687b      	ldr	r3, [r7, #4]
 8006738:	69db      	ldr	r3, [r3, #28]
 800673a:	60fb      	str	r3, [r7, #12]

  /* Reset the Output Compare mode and Capture/Compare selection Bits */
  tmpccmrx &= ~TIM_CCMR2_OC3M;
 800673c:	68fb      	ldr	r3, [r7, #12]
 800673e:	f023 0370 	bic.w	r3, r3, #112	; 0x70
 8006742:	60fb      	str	r3, [r7, #12]
  tmpccmrx &= ~TIM_CCMR2_CC3S;
 8006744:	68fb      	ldr	r3, [r7, #12]
 8006746:	f023 0303 	bic.w	r3, r3, #3
 800674a:	60fb      	str	r3, [r7, #12]
  /* Select the Output Compare Mode */
  tmpccmrx |= OC_Config->OCMode;
 800674c:	683b      	ldr	r3, [r7, #0]
 800674e:	681b      	ldr	r3, [r3, #0]
 8006750:	68fa      	ldr	r2, [r7, #12]
 8006752:	4313      	orrs	r3, r2
 8006754:	60fb      	str	r3, [r7, #12]

  /* Reset the Output Polarity level */
  tmpccer &= ~TIM_CCER_CC3P;
 8006756:	697b      	ldr	r3, [r7, #20]
 8006758:	f423 7300 	bic.w	r3, r3, #512	; 0x200
 800675c:	617b      	str	r3, [r7, #20]
  /* Set the Output Compare Polarity */
  tmpccer |= (OC_Config->OCPolarity << 8U);
 800675e:	683b      	ldr	r3, [r7, #0]
 8006760:	689b      	ldr	r3, [r3, #8]
 8006762:	021b      	lsls	r3, r3, #8
 8006764:	697a      	ldr	r2, [r7, #20]
 8006766:	4313      	orrs	r3, r2
 8006768:	617b      	str	r3, [r7, #20]

  if (IS_TIM_CCXN_INSTANCE(TIMx, TIM_CHANNEL_3))
 800676a:	687b      	ldr	r3, [r7, #4]
 800676c:	4a21      	ldr	r2, [pc, #132]	; (80067f4 <TIM_OC3_SetConfig+0xe0>)
 800676e:	4293      	cmp	r3, r2
 8006770:	d003      	beq.n	800677a <TIM_OC3_SetConfig+0x66>
 8006772:	687b      	ldr	r3, [r7, #4]
 8006774:	4a20      	ldr	r2, [pc, #128]	; (80067f8 <TIM_OC3_SetConfig+0xe4>)
 8006776:	4293      	cmp	r3, r2
 8006778:	d10d      	bne.n	8006796 <TIM_OC3_SetConfig+0x82>
  {
    assert_param(IS_TIM_OCN_POLARITY(OC_Config->OCNPolarity));

    /* Reset the Output N Polarity level */
    tmpccer &= ~TIM_CCER_CC3NP;
 800677a:	697b      	ldr	r3, [r7, #20]
 800677c:	f423 6300 	bic.w	r3, r3, #2048	; 0x800
 8006780:	617b      	str	r3, [r7, #20]
    /* Set the Output N Polarity */
    tmpccer |= (OC_Config->OCNPolarity << 8U);
 8006782:	683b      	ldr	r3, [r7, #0]
 8006784:	68db      	ldr	r3, [r3, #12]
 8006786:	021b      	lsls	r3, r3, #8
 8006788:	697a      	ldr	r2, [r7, #20]
 800678a:	4313      	orrs	r3, r2
 800678c:	617b      	str	r3, [r7, #20]
    /* Reset the Output N State */
    tmpccer &= ~TIM_CCER_CC3NE;
 800678e:	697b      	ldr	r3, [r7, #20]
 8006790:	f423 6380 	bic.w	r3, r3, #1024	; 0x400
 8006794:	617b      	str	r3, [r7, #20]
  }

  if (IS_TIM_BREAK_INSTANCE(TIMx))
 8006796:	687b      	ldr	r3, [r7, #4]
 8006798:	4a16      	ldr	r2, [pc, #88]	; (80067f4 <TIM_OC3_SetConfig+0xe0>)
 800679a:	4293      	cmp	r3, r2
 800679c:	d003      	beq.n	80067a6 <TIM_OC3_SetConfig+0x92>
 800679e:	687b      	ldr	r3, [r7, #4]
 80067a0:	4a15      	ldr	r2, [pc, #84]	; (80067f8 <TIM_OC3_SetConfig+0xe4>)
 80067a2:	4293      	cmp	r3, r2
 80067a4:	d113      	bne.n	80067ce <TIM_OC3_SetConfig+0xba>
    /* Check parameters */
    assert_param(IS_TIM_OCNIDLE_STATE(OC_Config->OCNIdleState));
    assert_param(IS_TIM_OCIDLE_STATE(OC_Config->OCIdleState));

    /* Reset the Output Compare and Output Compare N IDLE State */
    tmpcr2 &= ~TIM_CR2_OIS3;
 80067a6:	693b      	ldr	r3, [r7, #16]
 80067a8:	f423 5380 	bic.w	r3, r3, #4096	; 0x1000
 80067ac:	613b      	str	r3, [r7, #16]
    tmpcr2 &= ~TIM_CR2_OIS3N;
 80067ae:	693b      	ldr	r3, [r7, #16]
 80067b0:	f423 5300 	bic.w	r3, r3, #8192	; 0x2000
 80067b4:	613b      	str	r3, [r7, #16]
    /* Set the Output Idle state */
    tmpcr2 |= (OC_Config->OCIdleState << 4U);
 80067b6:	683b      	ldr	r3, [r7, #0]
 80067b8:	695b      	ldr	r3, [r3, #20]
 80067ba:	011b      	lsls	r3, r3, #4
 80067bc:	693a      	ldr	r2, [r7, #16]
 80067be:	4313      	orrs	r3, r2
 80067c0:	613b      	str	r3, [r7, #16]
    /* Set the Output N Idle state */
    tmpcr2 |= (OC_Config->OCNIdleState << 4U);
 80067c2:	683b      	ldr	r3, [r7, #0]
 80067c4:	699b      	ldr	r3, [r3, #24]
 80067c6:	011b      	lsls	r3, r3, #4
 80067c8:	693a      	ldr	r2, [r7, #16]
 80067ca:	4313      	orrs	r3, r2
 80067cc:	613b      	str	r3, [r7, #16]
  }

  /* Write to TIMx CR2 */
  TIMx->CR2 = tmpcr2;
 80067ce:	687b      	ldr	r3, [r7, #4]
 80067d0:	693a      	ldr	r2, [r7, #16]
 80067d2:	605a      	str	r2, [r3, #4]

  /* Write to TIMx CCMR2 */
  TIMx->CCMR2 = tmpccmrx;
 80067d4:	687b      	ldr	r3, [r7, #4]
 80067d6:	68fa      	ldr	r2, [r7, #12]
 80067d8:	61da      	str	r2, [r3, #28]

  /* Set the Capture Compare Register value */
  TIMx->CCR3 = OC_Config->Pulse;
 80067da:	683b      	ldr	r3, [r7, #0]
 80067dc:	685a      	ldr	r2, [r3, #4]
 80067de:	687b      	ldr	r3, [r7, #4]
 80067e0:	63da      	str	r2, [r3, #60]	; 0x3c

  /* Write to TIMx CCER */
  TIMx->CCER = tmpccer;
 80067e2:	687b      	ldr	r3, [r7, #4]
 80067e4:	697a      	ldr	r2, [r7, #20]
 80067e6:	621a      	str	r2, [r3, #32]
}
 80067e8:	bf00      	nop
 80067ea:	371c      	adds	r7, #28
 80067ec:	46bd      	mov	sp, r7
 80067ee:	bc80      	pop	{r7}
 80067f0:	4770      	bx	lr
 80067f2:	bf00      	nop
 80067f4:	40012c00 	.word	0x40012c00
 80067f8:	40013400 	.word	0x40013400

080067fc <TIM_OC4_SetConfig>:
  * @param  TIMx to select the TIM peripheral
  * @param  OC_Config The output configuration structure
  * @retval None
  */
static void TIM_OC4_SetConfig(TIM_TypeDef *TIMx, TIM_OC_InitTypeDef *OC_Config)
{
 80067fc:	b480      	push	{r7}
 80067fe:	b087      	sub	sp, #28
 8006800:	af00      	add	r7, sp, #0
 8006802:	6078      	str	r0, [r7, #4]
 8006804:	6039      	str	r1, [r7, #0]
  uint32_t tmpccmrx;
  uint32_t tmpccer;
  uint32_t tmpcr2;

  /* Disable the Channel 4: Reset the CC4E Bit */
  TIMx->CCER &= ~TIM_CCER_CC4E;
 8006806:	687b      	ldr	r3, [r7, #4]
 8006808:	6a1b      	ldr	r3, [r3, #32]
 800680a:	f423 5280 	bic.w	r2, r3, #4096	; 0x1000
 800680e:	687b      	ldr	r3, [r7, #4]
 8006810:	621a      	str	r2, [r3, #32]

  /* Get the TIMx CCER register value */
  tmpccer = TIMx->CCER;
 8006812:	687b      	ldr	r3, [r7, #4]
 8006814:	6a1b      	ldr	r3, [r3, #32]
 8006816:	613b      	str	r3, [r7, #16]
  /* Get the TIMx CR2 register value */
  tmpcr2 =  TIMx->CR2;
 8006818:	687b      	ldr	r3, [r7, #4]
 800681a:	685b      	ldr	r3, [r3, #4]
 800681c:	617b      	str	r3, [r7, #20]

  /* Get the TIMx CCMR2 register value */
  tmpccmrx = TIMx->CCMR2;
 800681e:	687b      	ldr	r3, [r7, #4]
 8006820:	69db      	ldr	r3, [r3, #28]
 8006822:	60fb      	str	r3, [r7, #12]

  /* Reset the Output Compare mode and Capture/Compare selection Bits */
  tmpccmrx &= ~TIM_CCMR2_OC4M;
 8006824:	68fb      	ldr	r3, [r7, #12]
 8006826:	f423 43e0 	bic.w	r3, r3, #28672	; 0x7000
 800682a:	60fb      	str	r3, [r7, #12]
  tmpccmrx &= ~TIM_CCMR2_CC4S;
 800682c:	68fb      	ldr	r3, [r7, #12]
 800682e:	f423 7340 	bic.w	r3, r3, #768	; 0x300
 8006832:	60fb      	str	r3, [r7, #12]

  /* Select the Output Compare Mode */
  tmpccmrx |= (OC_Config->OCMode << 8U);
 8006834:	683b      	ldr	r3, [r7, #0]
 8006836:	681b      	ldr	r3, [r3, #0]
 8006838:	021b      	lsls	r3, r3, #8
 800683a:	68fa      	ldr	r2, [r7, #12]
 800683c:	4313      	orrs	r3, r2
 800683e:	60fb      	str	r3, [r7, #12]

  /* Reset the Output Polarity level */
  tmpccer &= ~TIM_CCER_CC4P;
 8006840:	693b      	ldr	r3, [r7, #16]
 8006842:	f423 5300 	bic.w	r3, r3, #8192	; 0x2000
 8006846:	613b      	str	r3, [r7, #16]
  /* Set the Output Compare Polarity */
  tmpccer |= (OC_Config->OCPolarity << 12U);
 8006848:	683b      	ldr	r3, [r7, #0]
 800684a:	689b      	ldr	r3, [r3, #8]
 800684c:	031b      	lsls	r3, r3, #12
 800684e:	693a      	ldr	r2, [r7, #16]
 8006850:	4313      	orrs	r3, r2
 8006852:	613b      	str	r3, [r7, #16]

  if (IS_TIM_BREAK_INSTANCE(TIMx))
 8006854:	687b      	ldr	r3, [r7, #4]
 8006856:	4a11      	ldr	r2, [pc, #68]	; (800689c <TIM_OC4_SetConfig+0xa0>)
 8006858:	4293      	cmp	r3, r2
 800685a:	d003      	beq.n	8006864 <TIM_OC4_SetConfig+0x68>
 800685c:	687b      	ldr	r3, [r7, #4]
 800685e:	4a10      	ldr	r2, [pc, #64]	; (80068a0 <TIM_OC4_SetConfig+0xa4>)
 8006860:	4293      	cmp	r3, r2
 8006862:	d109      	bne.n	8006878 <TIM_OC4_SetConfig+0x7c>
  {
    /* Check parameters */
    assert_param(IS_TIM_OCIDLE_STATE(OC_Config->OCIdleState));

    /* Reset the Output Compare IDLE State */
    tmpcr2 &= ~TIM_CR2_OIS4;
 8006864:	697b      	ldr	r3, [r7, #20]
 8006866:	f423 4380 	bic.w	r3, r3, #16384	; 0x4000
 800686a:	617b      	str	r3, [r7, #20]

    /* Set the Output Idle state */
    tmpcr2 |= (OC_Config->OCIdleState << 6U);
 800686c:	683b      	ldr	r3, [r7, #0]
 800686e:	695b      	ldr	r3, [r3, #20]
 8006870:	019b      	lsls	r3, r3, #6
 8006872:	697a      	ldr	r2, [r7, #20]
 8006874:	4313      	orrs	r3, r2
 8006876:	617b      	str	r3, [r7, #20]
  }

  /* Write to TIMx CR2 */
  TIMx->CR2 = tmpcr2;
 8006878:	687b      	ldr	r3, [r7, #4]
 800687a:	697a      	ldr	r2, [r7, #20]
 800687c:	605a      	str	r2, [r3, #4]

  /* Write to TIMx CCMR2 */
  TIMx->CCMR2 = tmpccmrx;
 800687e:	687b      	ldr	r3, [r7, #4]
 8006880:	68fa      	ldr	r2, [r7, #12]
 8006882:	61da      	str	r2, [r3, #28]

  /* Set the Capture Compare Register value */
  TIMx->CCR4 = OC_Config->Pulse;
 8006884:	683b      	ldr	r3, [r7, #0]
 8006886:	685a      	ldr	r2, [r3, #4]
 8006888:	687b      	ldr	r3, [r7, #4]
 800688a:	641a      	str	r2, [r3, #64]	; 0x40

  /* Write to TIMx CCER */
  TIMx->CCER = tmpccer;
 800688c:	687b      	ldr	r3, [r7, #4]
 800688e:	693a      	ldr	r2, [r7, #16]
 8006890:	621a      	str	r2, [r3, #32]
}
 8006892:	bf00      	nop
 8006894:	371c      	adds	r7, #28
 8006896:	46bd      	mov	sp, r7
 8006898:	bc80      	pop	{r7}
 800689a:	4770      	bx	lr
 800689c:	40012c00 	.word	0x40012c00
 80068a0:	40013400 	.word	0x40013400

080068a4 <TIM_TI1_ConfigInputStage>:
  * @param  TIM_ICFilter Specifies the Input Capture Filter.
  *          This parameter must be a value between 0x00 and 0x0F.
  * @retval None
  */
static void TIM_TI1_ConfigInputStage(TIM_TypeDef *TIMx, uint32_t TIM_ICPolarity, uint32_t TIM_ICFilter)
{
 80068a4:	b480      	push	{r7}
 80068a6:	b087      	sub	sp, #28
 80068a8:	af00      	add	r7, sp, #0
 80068aa:	60f8      	str	r0, [r7, #12]
 80068ac:	60b9      	str	r1, [r7, #8]
 80068ae:	607a      	str	r2, [r7, #4]
  uint32_t tmpccmr1;
  uint32_t tmpccer;

  /* Disable the Channel 1: Reset the CC1E Bit */
  tmpccer = TIMx->CCER;
 80068b0:	68fb      	ldr	r3, [r7, #12]
 80068b2:	6a1b      	ldr	r3, [r3, #32]
 80068b4:	617b      	str	r3, [r7, #20]
  TIMx->CCER &= ~TIM_CCER_CC1E;
 80068b6:	68fb      	ldr	r3, [r7, #12]
 80068b8:	6a1b      	ldr	r3, [r3, #32]
 80068ba:	f023 0201 	bic.w	r2, r3, #1
 80068be:	68fb      	ldr	r3, [r7, #12]
 80068c0:	621a      	str	r2, [r3, #32]
  tmpccmr1 = TIMx->CCMR1;
 80068c2:	68fb      	ldr	r3, [r7, #12]
 80068c4:	699b      	ldr	r3, [r3, #24]
 80068c6:	613b      	str	r3, [r7, #16]

  /* Set the filter */
  tmpccmr1 &= ~TIM_CCMR1_IC1F;
 80068c8:	693b      	ldr	r3, [r7, #16]
 80068ca:	f023 03f0 	bic.w	r3, r3, #240	; 0xf0
 80068ce:	613b      	str	r3, [r7, #16]
  tmpccmr1 |= (TIM_ICFilter << 4U);
 80068d0:	687b      	ldr	r3, [r7, #4]
 80068d2:	011b      	lsls	r3, r3, #4
 80068d4:	693a      	ldr	r2, [r7, #16]
 80068d6:	4313      	orrs	r3, r2
 80068d8:	613b      	str	r3, [r7, #16]

  /* Select the Polarity and set the CC1E Bit */
  tmpccer &= ~(TIM_CCER_CC1P | TIM_CCER_CC1NP);
 80068da:	697b      	ldr	r3, [r7, #20]
 80068dc:	f023 030a 	bic.w	r3, r3, #10
 80068e0:	617b      	str	r3, [r7, #20]
  tmpccer |= TIM_ICPolarity;
 80068e2:	697a      	ldr	r2, [r7, #20]
 80068e4:	68bb      	ldr	r3, [r7, #8]
 80068e6:	4313      	orrs	r3, r2
 80068e8:	617b      	str	r3, [r7, #20]

  /* Write to TIMx CCMR1 and CCER registers */
  TIMx->CCMR1 = tmpccmr1;
 80068ea:	68fb      	ldr	r3, [r7, #12]
 80068ec:	693a      	ldr	r2, [r7, #16]
 80068ee:	619a      	str	r2, [r3, #24]
  TIMx->CCER = tmpccer;
 80068f0:	68fb      	ldr	r3, [r7, #12]
 80068f2:	697a      	ldr	r2, [r7, #20]
 80068f4:	621a      	str	r2, [r3, #32]
}
 80068f6:	bf00      	nop
 80068f8:	371c      	adds	r7, #28
 80068fa:	46bd      	mov	sp, r7
 80068fc:	bc80      	pop	{r7}
 80068fe:	4770      	bx	lr

08006900 <TIM_TI2_ConfigInputStage>:
  * @param  TIM_ICFilter Specifies the Input Capture Filter.
  *          This parameter must be a value between 0x00 and 0x0F.
  * @retval None
  */
static void TIM_TI2_ConfigInputStage(TIM_TypeDef *TIMx, uint32_t TIM_ICPolarity, uint32_t TIM_ICFilter)
{
 8006900:	b480      	push	{r7}
 8006902:	b087      	sub	sp, #28
 8006904:	af00      	add	r7, sp, #0
 8006906:	60f8      	str	r0, [r7, #12]
 8006908:	60b9      	str	r1, [r7, #8]
 800690a:	607a      	str	r2, [r7, #4]
  uint32_t tmpccmr1;
  uint32_t tmpccer;

  /* Disable the Channel 2: Reset the CC2E Bit */
  TIMx->CCER &= ~TIM_CCER_CC2E;
 800690c:	68fb      	ldr	r3, [r7, #12]
 800690e:	6a1b      	ldr	r3, [r3, #32]
 8006910:	f023 0210 	bic.w	r2, r3, #16
 8006914:	68fb      	ldr	r3, [r7, #12]
 8006916:	621a      	str	r2, [r3, #32]
  tmpccmr1 = TIMx->CCMR1;
 8006918:	68fb      	ldr	r3, [r7, #12]
 800691a:	699b      	ldr	r3, [r3, #24]
 800691c:	617b      	str	r3, [r7, #20]
  tmpccer = TIMx->CCER;
 800691e:	68fb      	ldr	r3, [r7, #12]
 8006920:	6a1b      	ldr	r3, [r3, #32]
 8006922:	613b      	str	r3, [r7, #16]

  /* Set the filter */
  tmpccmr1 &= ~TIM_CCMR1_IC2F;
 8006924:	697b      	ldr	r3, [r7, #20]
 8006926:	f423 4370 	bic.w	r3, r3, #61440	; 0xf000
 800692a:	617b      	str	r3, [r7, #20]
  tmpccmr1 |= (TIM_ICFilter << 12U);
 800692c:	687b      	ldr	r3, [r7, #4]
 800692e:	031b      	lsls	r3, r3, #12
 8006930:	697a      	ldr	r2, [r7, #20]
 8006932:	4313      	orrs	r3, r2
 8006934:	617b      	str	r3, [r7, #20]

  /* Select the Polarity and set the CC2E Bit */
  tmpccer &= ~(TIM_CCER_CC2P | TIM_CCER_CC2NP);
 8006936:	693b      	ldr	r3, [r7, #16]
 8006938:	f023 03a0 	bic.w	r3, r3, #160	; 0xa0
 800693c:	613b      	str	r3, [r7, #16]
  tmpccer |= (TIM_ICPolarity << 4U);
 800693e:	68bb      	ldr	r3, [r7, #8]
 8006940:	011b      	lsls	r3, r3, #4
 8006942:	693a      	ldr	r2, [r7, #16]
 8006944:	4313      	orrs	r3, r2
 8006946:	613b      	str	r3, [r7, #16]

  /* Write to TIMx CCMR1 and CCER registers */
  TIMx->CCMR1 = tmpccmr1 ;
 8006948:	68fb      	ldr	r3, [r7, #12]
 800694a:	697a      	ldr	r2, [r7, #20]
 800694c:	619a      	str	r2, [r3, #24]
  TIMx->CCER = tmpccer;
 800694e:	68fb      	ldr	r3, [r7, #12]
 8006950:	693a      	ldr	r2, [r7, #16]
 8006952:	621a      	str	r2, [r3, #32]
}
 8006954:	bf00      	nop
 8006956:	371c      	adds	r7, #28
 8006958:	46bd      	mov	sp, r7
 800695a:	bc80      	pop	{r7}
 800695c:	4770      	bx	lr

0800695e <TIM_ITRx_SetConfig>:
  *            @arg TIM_TS_TI2FP2: Filtered Timer Input 2
  *            @arg TIM_TS_ETRF: External Trigger input
  * @retval None
  */
static void TIM_ITRx_SetConfig(TIM_TypeDef *TIMx, uint32_t InputTriggerSource)
{
 800695e:	b480      	push	{r7}
 8006960:	b085      	sub	sp, #20
 8006962:	af00      	add	r7, sp, #0
 8006964:	6078      	str	r0, [r7, #4]
 8006966:	6039      	str	r1, [r7, #0]
  uint32_t tmpsmcr;

  /* Get the TIMx SMCR register value */
  tmpsmcr = TIMx->SMCR;
 8006968:	687b      	ldr	r3, [r7, #4]
 800696a:	689b      	ldr	r3, [r3, #8]
 800696c:	60fb      	str	r3, [r7, #12]
  /* Reset the TS Bits */
  tmpsmcr &= ~TIM_SMCR_TS;
 800696e:	68fb      	ldr	r3, [r7, #12]
 8006970:	f023 0370 	bic.w	r3, r3, #112	; 0x70
 8006974:	60fb      	str	r3, [r7, #12]
  /* Set the Input Trigger source and the slave mode*/
  tmpsmcr |= (InputTriggerSource | TIM_SLAVEMODE_EXTERNAL1);
 8006976:	683a      	ldr	r2, [r7, #0]
 8006978:	68fb      	ldr	r3, [r7, #12]
 800697a:	4313      	orrs	r3, r2
 800697c:	f043 0307 	orr.w	r3, r3, #7
 8006980:	60fb      	str	r3, [r7, #12]
  /* Write to TIMx SMCR */
  TIMx->SMCR = tmpsmcr;
 8006982:	687b      	ldr	r3, [r7, #4]
 8006984:	68fa      	ldr	r2, [r7, #12]
 8006986:	609a      	str	r2, [r3, #8]
}
 8006988:	bf00      	nop
 800698a:	3714      	adds	r7, #20
 800698c:	46bd      	mov	sp, r7
 800698e:	bc80      	pop	{r7}
 8006990:	4770      	bx	lr

08006992 <TIM_ETR_SetConfig>:
  *          This parameter must be a value between 0x00 and 0x0F
  * @retval None
  */
void TIM_ETR_SetConfig(TIM_TypeDef *TIMx, uint32_t TIM_ExtTRGPrescaler,
                       uint32_t TIM_ExtTRGPolarity, uint32_t ExtTRGFilter)
{
 8006992:	b480      	push	{r7}
 8006994:	b087      	sub	sp, #28
 8006996:	af00      	add	r7, sp, #0
 8006998:	60f8      	str	r0, [r7, #12]
 800699a:	60b9      	str	r1, [r7, #8]
 800699c:	607a      	str	r2, [r7, #4]
 800699e:	603b      	str	r3, [r7, #0]
  uint32_t tmpsmcr;

  tmpsmcr = TIMx->SMCR;
 80069a0:	68fb      	ldr	r3, [r7, #12]
 80069a2:	689b      	ldr	r3, [r3, #8]
 80069a4:	617b      	str	r3, [r7, #20]

  /* Reset the ETR Bits */
  tmpsmcr &= ~(TIM_SMCR_ETF | TIM_SMCR_ETPS | TIM_SMCR_ECE | TIM_SMCR_ETP);
 80069a6:	697b      	ldr	r3, [r7, #20]
 80069a8:	f423 437f 	bic.w	r3, r3, #65280	; 0xff00
 80069ac:	617b      	str	r3, [r7, #20]

  /* Set the Prescaler, the Filter value and the Polarity */
  tmpsmcr |= (uint32_t)(TIM_ExtTRGPrescaler | (TIM_ExtTRGPolarity | (ExtTRGFilter << 8U)));
 80069ae:	683b      	ldr	r3, [r7, #0]
 80069b0:	021a      	lsls	r2, r3, #8
 80069b2:	687b      	ldr	r3, [r7, #4]
 80069b4:	431a      	orrs	r2, r3
 80069b6:	68bb      	ldr	r3, [r7, #8]
 80069b8:	4313      	orrs	r3, r2
 80069ba:	697a      	ldr	r2, [r7, #20]
 80069bc:	4313      	orrs	r3, r2
 80069be:	617b      	str	r3, [r7, #20]

  /* Write to TIMx SMCR */
  TIMx->SMCR = tmpsmcr;
 80069c0:	68fb      	ldr	r3, [r7, #12]
 80069c2:	697a      	ldr	r2, [r7, #20]
 80069c4:	609a      	str	r2, [r3, #8]
}
 80069c6:	bf00      	nop
 80069c8:	371c      	adds	r7, #28
 80069ca:	46bd      	mov	sp, r7
 80069cc:	bc80      	pop	{r7}
 80069ce:	4770      	bx	lr

080069d0 <TIM_CCxChannelCmd>:
  * @param  ChannelState specifies the TIM Channel CCxE bit new state.
  *          This parameter can be: TIM_CCx_ENABLE or TIM_CCx_DISABLE.
  * @retval None
  */
void TIM_CCxChannelCmd(TIM_TypeDef *TIMx, uint32_t Channel, uint32_t ChannelState)
{
 80069d0:	b480      	push	{r7}
 80069d2:	b087      	sub	sp, #28
 80069d4:	af00      	add	r7, sp, #0
 80069d6:	60f8      	str	r0, [r7, #12]
 80069d8:	60b9      	str	r1, [r7, #8]
 80069da:	607a      	str	r2, [r7, #4]

  /* Check the parameters */
  assert_param(IS_TIM_CC1_INSTANCE(TIMx));
  assert_param(IS_TIM_CHANNELS(Channel));

  tmp = TIM_CCER_CC1E << (Channel & 0x1FU); /* 0x1FU = 31 bits max shift */
 80069dc:	68bb      	ldr	r3, [r7, #8]
 80069de:	f003 031f 	and.w	r3, r3, #31
 80069e2:	2201      	movs	r2, #1
 80069e4:	fa02 f303 	lsl.w	r3, r2, r3
 80069e8:	617b      	str	r3, [r7, #20]

  /* Reset the CCxE Bit */
  TIMx->CCER &= ~tmp;
 80069ea:	68fb      	ldr	r3, [r7, #12]
 80069ec:	6a1a      	ldr	r2, [r3, #32]
 80069ee:	697b      	ldr	r3, [r7, #20]
 80069f0:	43db      	mvns	r3, r3
 80069f2:	401a      	ands	r2, r3
 80069f4:	68fb      	ldr	r3, [r7, #12]
 80069f6:	621a      	str	r2, [r3, #32]

  /* Set or reset the CCxE Bit */
  TIMx->CCER |= (uint32_t)(ChannelState << (Channel & 0x1FU)); /* 0x1FU = 31 bits max shift */
 80069f8:	68fb      	ldr	r3, [r7, #12]
 80069fa:	6a1a      	ldr	r2, [r3, #32]
 80069fc:	68bb      	ldr	r3, [r7, #8]
 80069fe:	f003 031f 	and.w	r3, r3, #31
 8006a02:	6879      	ldr	r1, [r7, #4]
 8006a04:	fa01 f303 	lsl.w	r3, r1, r3
 8006a08:	431a      	orrs	r2, r3
 8006a0a:	68fb      	ldr	r3, [r7, #12]
 8006a0c:	621a      	str	r2, [r3, #32]
}
 8006a0e:	bf00      	nop
 8006a10:	371c      	adds	r7, #28
 8006a12:	46bd      	mov	sp, r7
 8006a14:	bc80      	pop	{r7}
 8006a16:	4770      	bx	lr

08006a18 <HAL_TIMEx_MasterConfigSynchronization>:
  *         mode.
  * @retval HAL status
  */
HAL_StatusTypeDef HAL_TIMEx_MasterConfigSynchronization(TIM_HandleTypeDef *htim,
                                                        TIM_MasterConfigTypeDef *sMasterConfig)
{
 8006a18:	b480      	push	{r7}
 8006a1a:	b085      	sub	sp, #20
 8006a1c:	af00      	add	r7, sp, #0
 8006a1e:	6078      	str	r0, [r7, #4]
 8006a20:	6039      	str	r1, [r7, #0]
  assert_param(IS_TIM_MASTER_INSTANCE(htim->Instance));
  assert_param(IS_TIM_TRGO_SOURCE(sMasterConfig->MasterOutputTrigger));
  assert_param(IS_TIM_MSM_STATE(sMasterConfig->MasterSlaveMode));

  /* Check input state */
  __HAL_LOCK(htim);
 8006a22:	687b      	ldr	r3, [r7, #4]
 8006a24:	f893 303c 	ldrb.w	r3, [r3, #60]	; 0x3c
 8006a28:	2b01      	cmp	r3, #1
 8006a2a:	d101      	bne.n	8006a30 <HAL_TIMEx_MasterConfigSynchronization+0x18>
 8006a2c:	2302      	movs	r3, #2
 8006a2e:	e050      	b.n	8006ad2 <HAL_TIMEx_MasterConfigSynchronization+0xba>
 8006a30:	687b      	ldr	r3, [r7, #4]
 8006a32:	2201      	movs	r2, #1
 8006a34:	f883 203c 	strb.w	r2, [r3, #60]	; 0x3c

  /* Change the handler state */
  htim->State = HAL_TIM_STATE_BUSY;
 8006a38:	687b      	ldr	r3, [r7, #4]
 8006a3a:	2202      	movs	r2, #2
 8006a3c:	f883 203d 	strb.w	r2, [r3, #61]	; 0x3d

  /* Get the TIMx CR2 register value */
  tmpcr2 = htim->Instance->CR2;
 8006a40:	687b      	ldr	r3, [r7, #4]
 8006a42:	681b      	ldr	r3, [r3, #0]
 8006a44:	685b      	ldr	r3, [r3, #4]
 8006a46:	60fb      	str	r3, [r7, #12]

  /* Get the TIMx SMCR register value */
  tmpsmcr = htim->Instance->SMCR;
 8006a48:	687b      	ldr	r3, [r7, #4]
 8006a4a:	681b      	ldr	r3, [r3, #0]
 8006a4c:	689b      	ldr	r3, [r3, #8]
 8006a4e:	60bb      	str	r3, [r7, #8]

  /* Reset the MMS Bits */
  tmpcr2 &= ~TIM_CR2_MMS;
 8006a50:	68fb      	ldr	r3, [r7, #12]
 8006a52:	f023 0370 	bic.w	r3, r3, #112	; 0x70
 8006a56:	60fb      	str	r3, [r7, #12]
  /* Select the TRGO source */
  tmpcr2 |=  sMasterConfig->MasterOutputTrigger;
 8006a58:	683b      	ldr	r3, [r7, #0]
 8006a5a:	681b      	ldr	r3, [r3, #0]
 8006a5c:	68fa      	ldr	r2, [r7, #12]
 8006a5e:	4313      	orrs	r3, r2
 8006a60:	60fb      	str	r3, [r7, #12]

  /* Update TIMx CR2 */
  htim->Instance->CR2 = tmpcr2;
 8006a62:	687b      	ldr	r3, [r7, #4]
 8006a64:	681b      	ldr	r3, [r3, #0]
 8006a66:	68fa      	ldr	r2, [r7, #12]
 8006a68:	605a      	str	r2, [r3, #4]

  if (IS_TIM_SLAVE_INSTANCE(htim->Instance))
 8006a6a:	687b      	ldr	r3, [r7, #4]
 8006a6c:	681b      	ldr	r3, [r3, #0]
 8006a6e:	4a1b      	ldr	r2, [pc, #108]	; (8006adc <HAL_TIMEx_MasterConfigSynchronization+0xc4>)
 8006a70:	4293      	cmp	r3, r2
 8006a72:	d018      	beq.n	8006aa6 <HAL_TIMEx_MasterConfigSynchronization+0x8e>
 8006a74:	687b      	ldr	r3, [r7, #4]
 8006a76:	681b      	ldr	r3, [r3, #0]
 8006a78:	4a19      	ldr	r2, [pc, #100]	; (8006ae0 <HAL_TIMEx_MasterConfigSynchronization+0xc8>)
 8006a7a:	4293      	cmp	r3, r2
 8006a7c:	d013      	beq.n	8006aa6 <HAL_TIMEx_MasterConfigSynchronization+0x8e>
 8006a7e:	687b      	ldr	r3, [r7, #4]
 8006a80:	681b      	ldr	r3, [r3, #0]
 8006a82:	f1b3 4f80 	cmp.w	r3, #1073741824	; 0x40000000
 8006a86:	d00e      	beq.n	8006aa6 <HAL_TIMEx_MasterConfigSynchronization+0x8e>
 8006a88:	687b      	ldr	r3, [r7, #4]
 8006a8a:	681b      	ldr	r3, [r3, #0]
 8006a8c:	4a15      	ldr	r2, [pc, #84]	; (8006ae4 <HAL_TIMEx_MasterConfigSynchronization+0xcc>)
 8006a8e:	4293      	cmp	r3, r2
 8006a90:	d009      	beq.n	8006aa6 <HAL_TIMEx_MasterConfigSynchronization+0x8e>
 8006a92:	687b      	ldr	r3, [r7, #4]
 8006a94:	681b      	ldr	r3, [r3, #0]
 8006a96:	4a14      	ldr	r2, [pc, #80]	; (8006ae8 <HAL_TIMEx_MasterConfigSynchronization+0xd0>)
 8006a98:	4293      	cmp	r3, r2
 8006a9a:	d004      	beq.n	8006aa6 <HAL_TIMEx_MasterConfigSynchronization+0x8e>
 8006a9c:	687b      	ldr	r3, [r7, #4]
 8006a9e:	681b      	ldr	r3, [r3, #0]
 8006aa0:	4a12      	ldr	r2, [pc, #72]	; (8006aec <HAL_TIMEx_MasterConfigSynchronization+0xd4>)
 8006aa2:	4293      	cmp	r3, r2
 8006aa4:	d10c      	bne.n	8006ac0 <HAL_TIMEx_MasterConfigSynchronization+0xa8>
  {
    /* Reset the MSM Bit */
    tmpsmcr &= ~TIM_SMCR_MSM;
 8006aa6:	68bb      	ldr	r3, [r7, #8]
 8006aa8:	f023 0380 	bic.w	r3, r3, #128	; 0x80
 8006aac:	60bb      	str	r3, [r7, #8]
    /* Set master mode */
    tmpsmcr |= sMasterConfig->MasterSlaveMode;
 8006aae:	683b      	ldr	r3, [r7, #0]
 8006ab0:	685b      	ldr	r3, [r3, #4]
 8006ab2:	68ba      	ldr	r2, [r7, #8]
 8006ab4:	4313      	orrs	r3, r2
 8006ab6:	60bb      	str	r3, [r7, #8]

    /* Update TIMx SMCR */
    htim->Instance->SMCR = tmpsmcr;
 8006ab8:	687b      	ldr	r3, [r7, #4]
 8006aba:	681b      	ldr	r3, [r3, #0]
 8006abc:	68ba      	ldr	r2, [r7, #8]
 8006abe:	609a      	str	r2, [r3, #8]
  }

  /* Change the htim state */
  htim->State = HAL_TIM_STATE_READY;
 8006ac0:	687b      	ldr	r3, [r7, #4]
 8006ac2:	2201      	movs	r2, #1
 8006ac4:	f883 203d 	strb.w	r2, [r3, #61]	; 0x3d

  __HAL_UNLOCK(htim);
 8006ac8:	687b      	ldr	r3, [r7, #4]
 8006aca:	2200      	movs	r2, #0
 8006acc:	f883 203c 	strb.w	r2, [r3, #60]	; 0x3c

  return HAL_OK;
 8006ad0:	2300      	movs	r3, #0
}
 8006ad2:	4618      	mov	r0, r3
 8006ad4:	3714      	adds	r7, #20
 8006ad6:	46bd      	mov	sp, r7
 8006ad8:	bc80      	pop	{r7}
 8006ada:	4770      	bx	lr
 8006adc:	40012c00 	.word	0x40012c00
 8006ae0:	40013400 	.word	0x40013400
 8006ae4:	40000400 	.word	0x40000400
 8006ae8:	40000800 	.word	0x40000800
 8006aec:	40000c00 	.word	0x40000c00

08006af0 <HAL_TIMEx_CommutCallback>:
  * @brief  Hall commutation changed callback in non-blocking mode
  * @param  htim TIM handle
  * @retval None
  */
__weak void HAL_TIMEx_CommutCallback(TIM_HandleTypeDef *htim)
{
 8006af0:	b480      	push	{r7}
 8006af2:	b083      	sub	sp, #12
 8006af4:	af00      	add	r7, sp, #0
 8006af6:	6078      	str	r0, [r7, #4]
  UNUSED(htim);

  /* NOTE : This function should not be modified, when the callback is needed,
            the HAL_TIMEx_CommutCallback could be implemented in the user file
   */
}
 8006af8:	bf00      	nop
 8006afa:	370c      	adds	r7, #12
 8006afc:	46bd      	mov	sp, r7
 8006afe:	bc80      	pop	{r7}
 8006b00:	4770      	bx	lr

08006b02 <HAL_TIMEx_BreakCallback>:
  * @brief  Hall Break detection callback in non-blocking mode
  * @param  htim TIM handle
  * @retval None
  */
__weak void HAL_TIMEx_BreakCallback(TIM_HandleTypeDef *htim)
{
 8006b02:	b480      	push	{r7}
 8006b04:	b083      	sub	sp, #12
 8006b06:	af00      	add	r7, sp, #0
 8006b08:	6078      	str	r0, [r7, #4]
  UNUSED(htim);

  /* NOTE : This function should not be modified, when the callback is needed,
            the HAL_TIMEx_BreakCallback could be implemented in the user file
   */
}
 8006b0a:	bf00      	nop
 8006b0c:	370c      	adds	r7, #12
 8006b0e:	46bd      	mov	sp, r7
 8006b10:	bc80      	pop	{r7}
 8006b12:	4770      	bx	lr

08006b14 <osKernelInitialize>:
}
#endif /* SysTick */

/*---------------------------------------------------------------------------*/

osStatus_t osKernelInitialize (void) {
 8006b14:	b480      	push	{r7}
 8006b16:	b085      	sub	sp, #20
 8006b18:	af00      	add	r7, sp, #0
 */
__STATIC_FORCEINLINE uint32_t __get_IPSR(void)
{
  uint32_t result;

  __ASM volatile ("MRS %0, ipsr" : "=r" (result) );
 8006b1a:	f3ef 8305 	mrs	r3, IPSR
 8006b1e:	60bb      	str	r3, [r7, #8]
  return(result);
 8006b20:	68bb      	ldr	r3, [r7, #8]
  osStatus_t stat;

  if (IS_IRQ()) {
 8006b22:	2b00      	cmp	r3, #0
 8006b24:	d10f      	bne.n	8006b46 <osKernelInitialize+0x32>
 */
__STATIC_FORCEINLINE uint32_t __get_PRIMASK(void)
{
  uint32_t result;

  __ASM volatile ("MRS %0, primask" : "=r" (result) :: "memory");
 8006b26:	f3ef 8310 	mrs	r3, PRIMASK
 8006b2a:	607b      	str	r3, [r7, #4]
  return(result);
 8006b2c:	687b      	ldr	r3, [r7, #4]
 8006b2e:	2b00      	cmp	r3, #0
 8006b30:	d109      	bne.n	8006b46 <osKernelInitialize+0x32>
 8006b32:	4b10      	ldr	r3, [pc, #64]	; (8006b74 <osKernelInitialize+0x60>)
 8006b34:	681b      	ldr	r3, [r3, #0]
 8006b36:	2b02      	cmp	r3, #2
 8006b38:	d109      	bne.n	8006b4e <osKernelInitialize+0x3a>
 */
__STATIC_FORCEINLINE uint32_t __get_BASEPRI(void)
{
  uint32_t result;

  __ASM volatile ("MRS %0, basepri" : "=r" (result) );
 8006b3a:	f3ef 8311 	mrs	r3, BASEPRI
 8006b3e:	603b      	str	r3, [r7, #0]
  return(result);
 8006b40:	683b      	ldr	r3, [r7, #0]
 8006b42:	2b00      	cmp	r3, #0
 8006b44:	d003      	beq.n	8006b4e <osKernelInitialize+0x3a>
    stat = osErrorISR;
 8006b46:	f06f 0305 	mvn.w	r3, #5
 8006b4a:	60fb      	str	r3, [r7, #12]
 8006b4c:	e00c      	b.n	8006b68 <osKernelInitialize+0x54>
  }
  else {
    if (KernelState == osKernelInactive) {
 8006b4e:	4b09      	ldr	r3, [pc, #36]	; (8006b74 <osKernelInitialize+0x60>)
 8006b50:	681b      	ldr	r3, [r3, #0]
 8006b52:	2b00      	cmp	r3, #0
 8006b54:	d105      	bne.n	8006b62 <osKernelInitialize+0x4e>
      #if defined(USE_FreeRTOS_HEAP_5)
        vPortDefineHeapRegions (xHeapRegions);
      #endif
      KernelState = osKernelReady;
 8006b56:	4b07      	ldr	r3, [pc, #28]	; (8006b74 <osKernelInitialize+0x60>)
 8006b58:	2201      	movs	r2, #1
 8006b5a:	601a      	str	r2, [r3, #0]
      stat = osOK;
 8006b5c:	2300      	movs	r3, #0
 8006b5e:	60fb      	str	r3, [r7, #12]
 8006b60:	e002      	b.n	8006b68 <osKernelInitialize+0x54>
    } else {
      stat = osError;
 8006b62:	f04f 33ff 	mov.w	r3, #4294967295
 8006b66:	60fb      	str	r3, [r7, #12]
    }
  }

  return (stat);
 8006b68:	68fb      	ldr	r3, [r7, #12]
}
 8006b6a:	4618      	mov	r0, r3
 8006b6c:	3714      	adds	r7, #20
 8006b6e:	46bd      	mov	sp, r7
 8006b70:	bc80      	pop	{r7}
 8006b72:	4770      	bx	lr
 8006b74:	20000034 	.word	0x20000034

08006b78 <osThreadNew>:
  return (configCPU_CLOCK_HZ);
}

/*---------------------------------------------------------------------------*/

osThreadId_t osThreadNew (osThreadFunc_t func, void *argument, const osThreadAttr_t *attr) {
 8006b78:	b580      	push	{r7, lr}
 8006b7a:	b092      	sub	sp, #72	; 0x48
 8006b7c:	af04      	add	r7, sp, #16
 8006b7e:	60f8      	str	r0, [r7, #12]
 8006b80:	60b9      	str	r1, [r7, #8]
 8006b82:	607a      	str	r2, [r7, #4]
  uint32_t stack;
  TaskHandle_t hTask;
  UBaseType_t prio;
  int32_t mem;

  hTask = NULL;
 8006b84:	2300      	movs	r3, #0
 8006b86:	617b      	str	r3, [r7, #20]
  __ASM volatile ("MRS %0, ipsr" : "=r" (result) );
 8006b88:	f3ef 8305 	mrs	r3, IPSR
 8006b8c:	627b      	str	r3, [r7, #36]	; 0x24
  return(result);
 8006b8e:	6a7b      	ldr	r3, [r7, #36]	; 0x24

  if (!IS_IRQ() && (func != NULL)) {
 8006b90:	2b00      	cmp	r3, #0
 8006b92:	f040 8094 	bne.w	8006cbe <osThreadNew+0x146>
  __ASM volatile ("MRS %0, primask" : "=r" (result) :: "memory");
 8006b96:	f3ef 8310 	mrs	r3, PRIMASK
 8006b9a:	623b      	str	r3, [r7, #32]
  return(result);
 8006b9c:	6a3b      	ldr	r3, [r7, #32]
 8006b9e:	2b00      	cmp	r3, #0
 8006ba0:	f040 808d 	bne.w	8006cbe <osThreadNew+0x146>
 8006ba4:	4b48      	ldr	r3, [pc, #288]	; (8006cc8 <osThreadNew+0x150>)
 8006ba6:	681b      	ldr	r3, [r3, #0]
 8006ba8:	2b02      	cmp	r3, #2
 8006baa:	d106      	bne.n	8006bba <osThreadNew+0x42>
  __ASM volatile ("MRS %0, basepri" : "=r" (result) );
 8006bac:	f3ef 8311 	mrs	r3, BASEPRI
 8006bb0:	61fb      	str	r3, [r7, #28]
  return(result);
 8006bb2:	69fb      	ldr	r3, [r7, #28]
 8006bb4:	2b00      	cmp	r3, #0
 8006bb6:	f040 8082 	bne.w	8006cbe <osThreadNew+0x146>
 8006bba:	68fb      	ldr	r3, [r7, #12]
 8006bbc:	2b00      	cmp	r3, #0
 8006bbe:	d07e      	beq.n	8006cbe <osThreadNew+0x146>
    stack = configMINIMAL_STACK_SIZE;
 8006bc0:	2380      	movs	r3, #128	; 0x80
 8006bc2:	633b      	str	r3, [r7, #48]	; 0x30
    prio  = (UBaseType_t)osPriorityNormal;
 8006bc4:	2318      	movs	r3, #24
 8006bc6:	62fb      	str	r3, [r7, #44]	; 0x2c

    empty = '\0';
 8006bc8:	2300      	movs	r3, #0
 8006bca:	76fb      	strb	r3, [r7, #27]
    name  = &empty;
 8006bcc:	f107 031b 	add.w	r3, r7, #27
 8006bd0:	637b      	str	r3, [r7, #52]	; 0x34
    mem   = -1;
 8006bd2:	f04f 33ff 	mov.w	r3, #4294967295
 8006bd6:	62bb      	str	r3, [r7, #40]	; 0x28

    if (attr != NULL) {
 8006bd8:	687b      	ldr	r3, [r7, #4]
 8006bda:	2b00      	cmp	r3, #0
 8006bdc:	d045      	beq.n	8006c6a <osThreadNew+0xf2>
      if (attr->name != NULL) {
 8006bde:	687b      	ldr	r3, [r7, #4]
 8006be0:	681b      	ldr	r3, [r3, #0]
 8006be2:	2b00      	cmp	r3, #0
 8006be4:	d002      	beq.n	8006bec <osThreadNew+0x74>
        name = attr->name;
 8006be6:	687b      	ldr	r3, [r7, #4]
 8006be8:	681b      	ldr	r3, [r3, #0]
 8006bea:	637b      	str	r3, [r7, #52]	; 0x34
      }
      if (attr->priority != osPriorityNone) {
 8006bec:	687b      	ldr	r3, [r7, #4]
 8006bee:	699b      	ldr	r3, [r3, #24]
 8006bf0:	2b00      	cmp	r3, #0
 8006bf2:	d002      	beq.n	8006bfa <osThreadNew+0x82>
        prio = (UBaseType_t)attr->priority;
 8006bf4:	687b      	ldr	r3, [r7, #4]
 8006bf6:	699b      	ldr	r3, [r3, #24]
 8006bf8:	62fb      	str	r3, [r7, #44]	; 0x2c
      }

      if ((prio < osPriorityIdle) || (prio > osPriorityISR) || ((attr->attr_bits & osThreadJoinable) == osThreadJoinable)) {
 8006bfa:	6afb      	ldr	r3, [r7, #44]	; 0x2c
 8006bfc:	2b00      	cmp	r3, #0
 8006bfe:	d008      	beq.n	8006c12 <osThreadNew+0x9a>
 8006c00:	6afb      	ldr	r3, [r7, #44]	; 0x2c
 8006c02:	2b38      	cmp	r3, #56	; 0x38
 8006c04:	d805      	bhi.n	8006c12 <osThreadNew+0x9a>
 8006c06:	687b      	ldr	r3, [r7, #4]
 8006c08:	685b      	ldr	r3, [r3, #4]
 8006c0a:	f003 0301 	and.w	r3, r3, #1
 8006c0e:	2b00      	cmp	r3, #0
 8006c10:	d001      	beq.n	8006c16 <osThreadNew+0x9e>
        return (NULL);
 8006c12:	2300      	movs	r3, #0
 8006c14:	e054      	b.n	8006cc0 <osThreadNew+0x148>
      }

      if (attr->stack_size > 0U) {
 8006c16:	687b      	ldr	r3, [r7, #4]
 8006c18:	695b      	ldr	r3, [r3, #20]
 8006c1a:	2b00      	cmp	r3, #0
 8006c1c:	d003      	beq.n	8006c26 <osThreadNew+0xae>
        /* In FreeRTOS stack is not in bytes, but in sizeof(StackType_t) which is 4 on ARM ports.       */
        /* Stack size should be therefore 4 byte aligned in order to avoid division caused side effects */
        stack = attr->stack_size / sizeof(StackType_t);
 8006c1e:	687b      	ldr	r3, [r7, #4]
 8006c20:	695b      	ldr	r3, [r3, #20]
 8006c22:	089b      	lsrs	r3, r3, #2
 8006c24:	633b      	str	r3, [r7, #48]	; 0x30
      }

      if ((attr->cb_mem    != NULL) && (attr->cb_size    >= sizeof(StaticTask_t)) &&
 8006c26:	687b      	ldr	r3, [r7, #4]
 8006c28:	689b      	ldr	r3, [r3, #8]
 8006c2a:	2b00      	cmp	r3, #0
 8006c2c:	d00e      	beq.n	8006c4c <osThreadNew+0xd4>
 8006c2e:	687b      	ldr	r3, [r7, #4]
 8006c30:	68db      	ldr	r3, [r3, #12]
 8006c32:	2b5b      	cmp	r3, #91	; 0x5b
 8006c34:	d90a      	bls.n	8006c4c <osThreadNew+0xd4>
          (attr->stack_mem != NULL) && (attr->stack_size >  0U)) {
 8006c36:	687b      	ldr	r3, [r7, #4]
 8006c38:	691b      	ldr	r3, [r3, #16]
      if ((attr->cb_mem    != NULL) && (attr->cb_size    >= sizeof(StaticTask_t)) &&
 8006c3a:	2b00      	cmp	r3, #0
 8006c3c:	d006      	beq.n	8006c4c <osThreadNew+0xd4>
          (attr->stack_mem != NULL) && (attr->stack_size >  0U)) {
 8006c3e:	687b      	ldr	r3, [r7, #4]
 8006c40:	695b      	ldr	r3, [r3, #20]
 8006c42:	2b00      	cmp	r3, #0
 8006c44:	d002      	beq.n	8006c4c <osThreadNew+0xd4>
        mem = 1;
 8006c46:	2301      	movs	r3, #1
 8006c48:	62bb      	str	r3, [r7, #40]	; 0x28
 8006c4a:	e010      	b.n	8006c6e <osThreadNew+0xf6>
      }
      else {
        if ((attr->cb_mem == NULL) && (attr->cb_size == 0U) && (attr->stack_mem == NULL)) {
 8006c4c:	687b      	ldr	r3, [r7, #4]
 8006c4e:	689b      	ldr	r3, [r3, #8]
 8006c50:	2b00      	cmp	r3, #0
 8006c52:	d10c      	bne.n	8006c6e <osThreadNew+0xf6>
 8006c54:	687b      	ldr	r3, [r7, #4]
 8006c56:	68db      	ldr	r3, [r3, #12]
 8006c58:	2b00      	cmp	r3, #0
 8006c5a:	d108      	bne.n	8006c6e <osThreadNew+0xf6>
 8006c5c:	687b      	ldr	r3, [r7, #4]
 8006c5e:	691b      	ldr	r3, [r3, #16]
 8006c60:	2b00      	cmp	r3, #0
 8006c62:	d104      	bne.n	8006c6e <osThreadNew+0xf6>
          mem = 0;
 8006c64:	2300      	movs	r3, #0
 8006c66:	62bb      	str	r3, [r7, #40]	; 0x28
 8006c68:	e001      	b.n	8006c6e <osThreadNew+0xf6>
        }
      }
    }
    else {
      mem = 0;
 8006c6a:	2300      	movs	r3, #0
 8006c6c:	62bb      	str	r3, [r7, #40]	; 0x28
    }

    if (mem == 1) {
 8006c6e:	6abb      	ldr	r3, [r7, #40]	; 0x28
 8006c70:	2b01      	cmp	r3, #1
 8006c72:	d110      	bne.n	8006c96 <osThreadNew+0x11e>
      hTask = xTaskCreateStatic ((TaskFunction_t)func, name, stack, argument, prio, (StackType_t  *)attr->stack_mem,
 8006c74:	687b      	ldr	r3, [r7, #4]
 8006c76:	691b      	ldr	r3, [r3, #16]
                                                                                    (StaticTask_t *)attr->cb_mem);
 8006c78:	687a      	ldr	r2, [r7, #4]
 8006c7a:	6892      	ldr	r2, [r2, #8]
      hTask = xTaskCreateStatic ((TaskFunction_t)func, name, stack, argument, prio, (StackType_t  *)attr->stack_mem,
 8006c7c:	9202      	str	r2, [sp, #8]
 8006c7e:	9301      	str	r3, [sp, #4]
 8006c80:	6afb      	ldr	r3, [r7, #44]	; 0x2c
 8006c82:	9300      	str	r3, [sp, #0]
 8006c84:	68bb      	ldr	r3, [r7, #8]
 8006c86:	6b3a      	ldr	r2, [r7, #48]	; 0x30
 8006c88:	6b79      	ldr	r1, [r7, #52]	; 0x34
 8006c8a:	68f8      	ldr	r0, [r7, #12]
 8006c8c:	f000 fecc 	bl	8007a28 <xTaskCreateStatic>
 8006c90:	4603      	mov	r3, r0
 8006c92:	617b      	str	r3, [r7, #20]
 8006c94:	e013      	b.n	8006cbe <osThreadNew+0x146>
    }
    else {
      if (mem == 0) {
 8006c96:	6abb      	ldr	r3, [r7, #40]	; 0x28
 8006c98:	2b00      	cmp	r3, #0
 8006c9a:	d110      	bne.n	8006cbe <osThreadNew+0x146>
        if (xTaskCreate ((TaskFunction_t)func, name, (uint16_t)stack, argument, prio, &hTask) != pdPASS) {
 8006c9c:	6b3b      	ldr	r3, [r7, #48]	; 0x30
 8006c9e:	b29a      	uxth	r2, r3
 8006ca0:	f107 0314 	add.w	r3, r7, #20
 8006ca4:	9301      	str	r3, [sp, #4]
 8006ca6:	6afb      	ldr	r3, [r7, #44]	; 0x2c
 8006ca8:	9300      	str	r3, [sp, #0]
 8006caa:	68bb      	ldr	r3, [r7, #8]
 8006cac:	6b79      	ldr	r1, [r7, #52]	; 0x34
 8006cae:	68f8      	ldr	r0, [r7, #12]
 8006cb0:	f000 feea 	bl	8007a88 <xTaskCreate>
 8006cb4:	4603      	mov	r3, r0
 8006cb6:	2b01      	cmp	r3, #1
 8006cb8:	d001      	beq.n	8006cbe <osThreadNew+0x146>
          hTask = NULL;
 8006cba:	2300      	movs	r3, #0
 8006cbc:	617b      	str	r3, [r7, #20]
        }
      }
    }
  }

  return ((osThreadId_t)hTask);
 8006cbe:	697b      	ldr	r3, [r7, #20]
}
 8006cc0:	4618      	mov	r0, r3
 8006cc2:	3738      	adds	r7, #56	; 0x38
 8006cc4:	46bd      	mov	sp, r7
 8006cc6:	bd80      	pop	{r7, pc}
 8006cc8:	20000034 	.word	0x20000034

08006ccc <vApplicationGetIdleTaskMemory>:

/*
  vApplicationGetIdleTaskMemory gets called when configSUPPORT_STATIC_ALLOCATION
  equals to 1 and is required for static memory allocation support.
*/
void vApplicationGetIdleTaskMemory (StaticTask_t **ppxIdleTaskTCBBuffer, StackType_t **ppxIdleTaskStackBuffer, uint32_t *pulIdleTaskStackSize) {
 8006ccc:	b480      	push	{r7}
 8006cce:	b085      	sub	sp, #20
 8006cd0:	af00      	add	r7, sp, #0
 8006cd2:	60f8      	str	r0, [r7, #12]
 8006cd4:	60b9      	str	r1, [r7, #8]
 8006cd6:	607a      	str	r2, [r7, #4]
  *ppxIdleTaskTCBBuffer   = &Idle_TCB;
 8006cd8:	68fb      	ldr	r3, [r7, #12]
 8006cda:	4a06      	ldr	r2, [pc, #24]	; (8006cf4 <vApplicationGetIdleTaskMemory+0x28>)
 8006cdc:	601a      	str	r2, [r3, #0]
  *ppxIdleTaskStackBuffer = &Idle_Stack[0];
 8006cde:	68bb      	ldr	r3, [r7, #8]
 8006ce0:	4a05      	ldr	r2, [pc, #20]	; (8006cf8 <vApplicationGetIdleTaskMemory+0x2c>)
 8006ce2:	601a      	str	r2, [r3, #0]
  *pulIdleTaskStackSize   = (uint32_t)configMINIMAL_STACK_SIZE;
 8006ce4:	687b      	ldr	r3, [r7, #4]
 8006ce6:	2280      	movs	r2, #128	; 0x80
 8006ce8:	601a      	str	r2, [r3, #0]
}
 8006cea:	bf00      	nop
 8006cec:	3714      	adds	r7, #20
 8006cee:	46bd      	mov	sp, r7
 8006cf0:	bc80      	pop	{r7}
 8006cf2:	4770      	bx	lr
 8006cf4:	20000038 	.word	0x20000038
 8006cf8:	20000094 	.word	0x20000094

08006cfc <vApplicationGetTimerTaskMemory>:

/*
  vApplicationGetTimerTaskMemory gets called when configSUPPORT_STATIC_ALLOCATION
  equals to 1 and is required for static memory allocation support.
*/
void vApplicationGetTimerTaskMemory (StaticTask_t **ppxTimerTaskTCBBuffer, StackType_t **ppxTimerTaskStackBuffer, uint32_t *pulTimerTaskStackSize) {
 8006cfc:	b480      	push	{r7}
 8006cfe:	b085      	sub	sp, #20
 8006d00:	af00      	add	r7, sp, #0
 8006d02:	60f8      	str	r0, [r7, #12]
 8006d04:	60b9      	str	r1, [r7, #8]
 8006d06:	607a      	str	r2, [r7, #4]
  *ppxTimerTaskTCBBuffer   = &Timer_TCB;
 8006d08:	68fb      	ldr	r3, [r7, #12]
 8006d0a:	4a07      	ldr	r2, [pc, #28]	; (8006d28 <vApplicationGetTimerTaskMemory+0x2c>)
 8006d0c:	601a      	str	r2, [r3, #0]
  *ppxTimerTaskStackBuffer = &Timer_Stack[0];
 8006d0e:	68bb      	ldr	r3, [r7, #8]
 8006d10:	4a06      	ldr	r2, [pc, #24]	; (8006d2c <vApplicationGetTimerTaskMemory+0x30>)
 8006d12:	601a      	str	r2, [r3, #0]
  *pulTimerTaskStackSize   = (uint32_t)configTIMER_TASK_STACK_DEPTH;
 8006d14:	687b      	ldr	r3, [r7, #4]
 8006d16:	f44f 7280 	mov.w	r2, #256	; 0x100
 8006d1a:	601a      	str	r2, [r3, #0]
}
 8006d1c:	bf00      	nop
 8006d1e:	3714      	adds	r7, #20
 8006d20:	46bd      	mov	sp, r7
 8006d22:	bc80      	pop	{r7}
 8006d24:	4770      	bx	lr
 8006d26:	bf00      	nop
 8006d28:	20000294 	.word	0x20000294
 8006d2c:	200002f0 	.word	0x200002f0

08006d30 <vListInitialise>:
/*-----------------------------------------------------------
 * PUBLIC LIST API documented in list.h
 *----------------------------------------------------------*/

void vListInitialise( List_t * const pxList )
{
 8006d30:	b480      	push	{r7}
 8006d32:	b083      	sub	sp, #12
 8006d34:	af00      	add	r7, sp, #0
 8006d36:	6078      	str	r0, [r7, #4]
	/* The list structure contains a list item which is used to mark the
	end of the list.  To initialise the list the list end is inserted
	as the only list entry. */
	pxList->pxIndex = ( ListItem_t * ) &( pxList->xListEnd );			/*lint !e826 !e740 The mini list structure is used as the list end to save RAM.  This is checked and valid. */
 8006d38:	687b      	ldr	r3, [r7, #4]
 8006d3a:	f103 0208 	add.w	r2, r3, #8
 8006d3e:	687b      	ldr	r3, [r7, #4]
 8006d40:	605a      	str	r2, [r3, #4]

	/* The list end value is the highest possible value in the list to
	ensure it remains at the end of the list. */
	pxList->xListEnd.xItemValue = portMAX_DELAY;
 8006d42:	687b      	ldr	r3, [r7, #4]
 8006d44:	f04f 32ff 	mov.w	r2, #4294967295
 8006d48:	609a      	str	r2, [r3, #8]

	/* The list end next and previous pointers point to itself so we know
	when the list is empty. */
	pxList->xListEnd.pxNext = ( ListItem_t * ) &( pxList->xListEnd );	/*lint !e826 !e740 The mini list structure is used as the list end to save RAM.  This is checked and valid. */
 8006d4a:	687b      	ldr	r3, [r7, #4]
 8006d4c:	f103 0208 	add.w	r2, r3, #8
 8006d50:	687b      	ldr	r3, [r7, #4]
 8006d52:	60da      	str	r2, [r3, #12]
	pxList->xListEnd.pxPrevious = ( ListItem_t * ) &( pxList->xListEnd );/*lint !e826 !e740 The mini list structure is used as the list end to save RAM.  This is checked and valid. */
 8006d54:	687b      	ldr	r3, [r7, #4]
 8006d56:	f103 0208 	add.w	r2, r3, #8
 8006d5a:	687b      	ldr	r3, [r7, #4]
 8006d5c:	611a      	str	r2, [r3, #16]

	pxList->uxNumberOfItems = ( UBaseType_t ) 0U;
 8006d5e:	687b      	ldr	r3, [r7, #4]
 8006d60:	2200      	movs	r2, #0
 8006d62:	601a      	str	r2, [r3, #0]

	/* Write known values into the list if
	configUSE_LIST_DATA_INTEGRITY_CHECK_BYTES is set to 1. */
	listSET_LIST_INTEGRITY_CHECK_1_VALUE( pxList );
	listSET_LIST_INTEGRITY_CHECK_2_VALUE( pxList );
}
 8006d64:	bf00      	nop
 8006d66:	370c      	adds	r7, #12
 8006d68:	46bd      	mov	sp, r7
 8006d6a:	bc80      	pop	{r7}
 8006d6c:	4770      	bx	lr

08006d6e <vListInitialiseItem>:
/*-----------------------------------------------------------*/

void vListInitialiseItem( ListItem_t * const pxItem )
{
 8006d6e:	b480      	push	{r7}
 8006d70:	b083      	sub	sp, #12
 8006d72:	af00      	add	r7, sp, #0
 8006d74:	6078      	str	r0, [r7, #4]
	/* Make sure the list item is not recorded as being on a list. */
	pxItem->pvContainer = NULL;
 8006d76:	687b      	ldr	r3, [r7, #4]
 8006d78:	2200      	movs	r2, #0
 8006d7a:	611a      	str	r2, [r3, #16]

	/* Write known values into the list item if
	configUSE_LIST_DATA_INTEGRITY_CHECK_BYTES is set to 1. */
	listSET_FIRST_LIST_ITEM_INTEGRITY_CHECK_VALUE( pxItem );
	listSET_SECOND_LIST_ITEM_INTEGRITY_CHECK_VALUE( pxItem );
}
 8006d7c:	bf00      	nop
 8006d7e:	370c      	adds	r7, #12
 8006d80:	46bd      	mov	sp, r7
 8006d82:	bc80      	pop	{r7}
 8006d84:	4770      	bx	lr

08006d86 <vListInsertEnd>:
/*-----------------------------------------------------------*/

void vListInsertEnd( List_t * const pxList, ListItem_t * const pxNewListItem )
{
 8006d86:	b480      	push	{r7}
 8006d88:	b085      	sub	sp, #20
 8006d8a:	af00      	add	r7, sp, #0
 8006d8c:	6078      	str	r0, [r7, #4]
 8006d8e:	6039      	str	r1, [r7, #0]
ListItem_t * const pxIndex = pxList->pxIndex;
 8006d90:	687b      	ldr	r3, [r7, #4]
 8006d92:	685b      	ldr	r3, [r3, #4]
 8006d94:	60fb      	str	r3, [r7, #12]
	listTEST_LIST_ITEM_INTEGRITY( pxNewListItem );

	/* Insert a new list item into pxList, but rather than sort the list,
	makes the new list item the last item to be removed by a call to
	listGET_OWNER_OF_NEXT_ENTRY(). */
	pxNewListItem->pxNext = pxIndex;
 8006d96:	683b      	ldr	r3, [r7, #0]
 8006d98:	68fa      	ldr	r2, [r7, #12]
 8006d9a:	605a      	str	r2, [r3, #4]
	pxNewListItem->pxPrevious = pxIndex->pxPrevious;
 8006d9c:	68fb      	ldr	r3, [r7, #12]
 8006d9e:	689a      	ldr	r2, [r3, #8]
 8006da0:	683b      	ldr	r3, [r7, #0]
 8006da2:	609a      	str	r2, [r3, #8]

	/* Only used during decision coverage testing. */
	mtCOVERAGE_TEST_DELAY();

	pxIndex->pxPrevious->pxNext = pxNewListItem;
 8006da4:	68fb      	ldr	r3, [r7, #12]
 8006da6:	689b      	ldr	r3, [r3, #8]
 8006da8:	683a      	ldr	r2, [r7, #0]
 8006daa:	605a      	str	r2, [r3, #4]
	pxIndex->pxPrevious = pxNewListItem;
 8006dac:	68fb      	ldr	r3, [r7, #12]
 8006dae:	683a      	ldr	r2, [r7, #0]
 8006db0:	609a      	str	r2, [r3, #8]

	/* Remember which list the item is in. */
	pxNewListItem->pvContainer = ( void * ) pxList;
 8006db2:	683b      	ldr	r3, [r7, #0]
 8006db4:	687a      	ldr	r2, [r7, #4]
 8006db6:	611a      	str	r2, [r3, #16]

	( pxList->uxNumberOfItems )++;
 8006db8:	687b      	ldr	r3, [r7, #4]
 8006dba:	681b      	ldr	r3, [r3, #0]
 8006dbc:	1c5a      	adds	r2, r3, #1
 8006dbe:	687b      	ldr	r3, [r7, #4]
 8006dc0:	601a      	str	r2, [r3, #0]
}
 8006dc2:	bf00      	nop
 8006dc4:	3714      	adds	r7, #20
 8006dc6:	46bd      	mov	sp, r7
 8006dc8:	bc80      	pop	{r7}
 8006dca:	4770      	bx	lr

08006dcc <vListInsert>:
/*-----------------------------------------------------------*/

void vListInsert( List_t * const pxList, ListItem_t * const pxNewListItem )
{
 8006dcc:	b480      	push	{r7}
 8006dce:	b085      	sub	sp, #20
 8006dd0:	af00      	add	r7, sp, #0
 8006dd2:	6078      	str	r0, [r7, #4]
 8006dd4:	6039      	str	r1, [r7, #0]
ListItem_t *pxIterator;
const TickType_t xValueOfInsertion = pxNewListItem->xItemValue;
 8006dd6:	683b      	ldr	r3, [r7, #0]
 8006dd8:	681b      	ldr	r3, [r3, #0]
 8006dda:	60bb      	str	r3, [r7, #8]
	new list item should be placed after it.  This ensures that TCB's which are
	stored in ready lists (all of which have the same xItemValue value) get a
	share of the CPU.  However, if the xItemValue is the same as the back marker
	the iteration loop below will not end.  Therefore the value is checked
	first, and the algorithm slightly modified if necessary. */
	if( xValueOfInsertion == portMAX_DELAY )
 8006ddc:	68bb      	ldr	r3, [r7, #8]
 8006dde:	f1b3 3fff 	cmp.w	r3, #4294967295
 8006de2:	d103      	bne.n	8006dec <vListInsert+0x20>
	{
		pxIterator = pxList->xListEnd.pxPrevious;
 8006de4:	687b      	ldr	r3, [r7, #4]
 8006de6:	691b      	ldr	r3, [r3, #16]
 8006de8:	60fb      	str	r3, [r7, #12]
 8006dea:	e00c      	b.n	8006e06 <vListInsert+0x3a>
			4) Using a queue or semaphore before it has been initialised or
			   before the scheduler has been started (are interrupts firing
			   before vTaskStartScheduler() has been called?).
		**********************************************************************/

		for( pxIterator = ( ListItem_t * ) &( pxList->xListEnd ); pxIterator->pxNext->xItemValue <= xValueOfInsertion; pxIterator = pxIterator->pxNext ) /*lint !e826 !e740 The mini list structure is used as the list end to save RAM.  This is checked and valid. */
 8006dec:	687b      	ldr	r3, [r7, #4]
 8006dee:	3308      	adds	r3, #8
 8006df0:	60fb      	str	r3, [r7, #12]
 8006df2:	e002      	b.n	8006dfa <vListInsert+0x2e>
 8006df4:	68fb      	ldr	r3, [r7, #12]
 8006df6:	685b      	ldr	r3, [r3, #4]
 8006df8:	60fb      	str	r3, [r7, #12]
 8006dfa:	68fb      	ldr	r3, [r7, #12]
 8006dfc:	685b      	ldr	r3, [r3, #4]
 8006dfe:	681b      	ldr	r3, [r3, #0]
 8006e00:	68ba      	ldr	r2, [r7, #8]
 8006e02:	429a      	cmp	r2, r3
 8006e04:	d2f6      	bcs.n	8006df4 <vListInsert+0x28>
			/* There is nothing to do here, just iterating to the wanted
			insertion position. */
		}
	}

	pxNewListItem->pxNext = pxIterator->pxNext;
 8006e06:	68fb      	ldr	r3, [r7, #12]
 8006e08:	685a      	ldr	r2, [r3, #4]
 8006e0a:	683b      	ldr	r3, [r7, #0]
 8006e0c:	605a      	str	r2, [r3, #4]
	pxNewListItem->pxNext->pxPrevious = pxNewListItem;
 8006e0e:	683b      	ldr	r3, [r7, #0]
 8006e10:	685b      	ldr	r3, [r3, #4]
 8006e12:	683a      	ldr	r2, [r7, #0]
 8006e14:	609a      	str	r2, [r3, #8]
	pxNewListItem->pxPrevious = pxIterator;
 8006e16:	683b      	ldr	r3, [r7, #0]
 8006e18:	68fa      	ldr	r2, [r7, #12]
 8006e1a:	609a      	str	r2, [r3, #8]
	pxIterator->pxNext = pxNewListItem;
 8006e1c:	68fb      	ldr	r3, [r7, #12]
 8006e1e:	683a      	ldr	r2, [r7, #0]
 8006e20:	605a      	str	r2, [r3, #4]

	/* Remember which list the item is in.  This allows fast removal of the
	item later. */
	pxNewListItem->pvContainer = ( void * ) pxList;
 8006e22:	683b      	ldr	r3, [r7, #0]
 8006e24:	687a      	ldr	r2, [r7, #4]
 8006e26:	611a      	str	r2, [r3, #16]

	( pxList->uxNumberOfItems )++;
 8006e28:	687b      	ldr	r3, [r7, #4]
 8006e2a:	681b      	ldr	r3, [r3, #0]
 8006e2c:	1c5a      	adds	r2, r3, #1
 8006e2e:	687b      	ldr	r3, [r7, #4]
 8006e30:	601a      	str	r2, [r3, #0]
}
 8006e32:	bf00      	nop
 8006e34:	3714      	adds	r7, #20
 8006e36:	46bd      	mov	sp, r7
 8006e38:	bc80      	pop	{r7}
 8006e3a:	4770      	bx	lr

08006e3c <uxListRemove>:
/*-----------------------------------------------------------*/

UBaseType_t uxListRemove( ListItem_t * const pxItemToRemove )
{
 8006e3c:	b480      	push	{r7}
 8006e3e:	b085      	sub	sp, #20
 8006e40:	af00      	add	r7, sp, #0
 8006e42:	6078      	str	r0, [r7, #4]
/* The list item knows which list it is in.  Obtain the list from the list
item. */
List_t * const pxList = ( List_t * ) pxItemToRemove->pvContainer;
 8006e44:	687b      	ldr	r3, [r7, #4]
 8006e46:	691b      	ldr	r3, [r3, #16]
 8006e48:	60fb      	str	r3, [r7, #12]

	pxItemToRemove->pxNext->pxPrevious = pxItemToRemove->pxPrevious;
 8006e4a:	687b      	ldr	r3, [r7, #4]
 8006e4c:	685b      	ldr	r3, [r3, #4]
 8006e4e:	687a      	ldr	r2, [r7, #4]
 8006e50:	6892      	ldr	r2, [r2, #8]
 8006e52:	609a      	str	r2, [r3, #8]
	pxItemToRemove->pxPrevious->pxNext = pxItemToRemove->pxNext;
 8006e54:	687b      	ldr	r3, [r7, #4]
 8006e56:	689b      	ldr	r3, [r3, #8]
 8006e58:	687a      	ldr	r2, [r7, #4]
 8006e5a:	6852      	ldr	r2, [r2, #4]
 8006e5c:	605a      	str	r2, [r3, #4]

	/* Only used during decision coverage testing. */
	mtCOVERAGE_TEST_DELAY();

	/* Make sure the index is left pointing to a valid item. */
	if( pxList->pxIndex == pxItemToRemove )
 8006e5e:	68fb      	ldr	r3, [r7, #12]
 8006e60:	685b      	ldr	r3, [r3, #4]
 8006e62:	687a      	ldr	r2, [r7, #4]
 8006e64:	429a      	cmp	r2, r3
 8006e66:	d103      	bne.n	8006e70 <uxListRemove+0x34>
	{
		pxList->pxIndex = pxItemToRemove->pxPrevious;
 8006e68:	687b      	ldr	r3, [r7, #4]
 8006e6a:	689a      	ldr	r2, [r3, #8]
 8006e6c:	68fb      	ldr	r3, [r7, #12]
 8006e6e:	605a      	str	r2, [r3, #4]
	else
	{
		mtCOVERAGE_TEST_MARKER();
	}

	pxItemToRemove->pvContainer = NULL;
 8006e70:	687b      	ldr	r3, [r7, #4]
 8006e72:	2200      	movs	r2, #0
 8006e74:	611a      	str	r2, [r3, #16]
	( pxList->uxNumberOfItems )--;
 8006e76:	68fb      	ldr	r3, [r7, #12]
 8006e78:	681b      	ldr	r3, [r3, #0]
 8006e7a:	1e5a      	subs	r2, r3, #1
 8006e7c:	68fb      	ldr	r3, [r7, #12]
 8006e7e:	601a      	str	r2, [r3, #0]

	return pxList->uxNumberOfItems;
 8006e80:	68fb      	ldr	r3, [r7, #12]
 8006e82:	681b      	ldr	r3, [r3, #0]
}
 8006e84:	4618      	mov	r0, r3
 8006e86:	3714      	adds	r7, #20
 8006e88:	46bd      	mov	sp, r7
 8006e8a:	bc80      	pop	{r7}
 8006e8c:	4770      	bx	lr
	...

08006e90 <xQueueGenericReset>:
	}														\
	taskEXIT_CRITICAL()
/*-----------------------------------------------------------*/

BaseType_t xQueueGenericReset( QueueHandle_t xQueue, BaseType_t xNewQueue )
{
 8006e90:	b580      	push	{r7, lr}
 8006e92:	b084      	sub	sp, #16
 8006e94:	af00      	add	r7, sp, #0
 8006e96:	6078      	str	r0, [r7, #4]
 8006e98:	6039      	str	r1, [r7, #0]
Queue_t * const pxQueue = ( Queue_t * ) xQueue;
 8006e9a:	687b      	ldr	r3, [r7, #4]
 8006e9c:	60fb      	str	r3, [r7, #12]

	configASSERT( pxQueue );

	taskENTER_CRITICAL();
 8006e9e:	f001 ffdb 	bl	8008e58 <vPortEnterCritical>
	{
		pxQueue->pcTail = pxQueue->pcHead + ( pxQueue->uxLength * pxQueue->uxItemSize );
 8006ea2:	68fb      	ldr	r3, [r7, #12]
 8006ea4:	681a      	ldr	r2, [r3, #0]
 8006ea6:	68fb      	ldr	r3, [r7, #12]
 8006ea8:	6bdb      	ldr	r3, [r3, #60]	; 0x3c
 8006eaa:	68f9      	ldr	r1, [r7, #12]
 8006eac:	6c09      	ldr	r1, [r1, #64]	; 0x40
 8006eae:	fb01 f303 	mul.w	r3, r1, r3
 8006eb2:	441a      	add	r2, r3
 8006eb4:	68fb      	ldr	r3, [r7, #12]
 8006eb6:	605a      	str	r2, [r3, #4]
		pxQueue->uxMessagesWaiting = ( UBaseType_t ) 0U;
 8006eb8:	68fb      	ldr	r3, [r7, #12]
 8006eba:	2200      	movs	r2, #0
 8006ebc:	639a      	str	r2, [r3, #56]	; 0x38
		pxQueue->pcWriteTo = pxQueue->pcHead;
 8006ebe:	68fb      	ldr	r3, [r7, #12]
 8006ec0:	681a      	ldr	r2, [r3, #0]
 8006ec2:	68fb      	ldr	r3, [r7, #12]
 8006ec4:	609a      	str	r2, [r3, #8]
		pxQueue->u.pcReadFrom = pxQueue->pcHead + ( ( pxQueue->uxLength - ( UBaseType_t ) 1U ) * pxQueue->uxItemSize );
 8006ec6:	68fb      	ldr	r3, [r7, #12]
 8006ec8:	681a      	ldr	r2, [r3, #0]
 8006eca:	68fb      	ldr	r3, [r7, #12]
 8006ecc:	6bdb      	ldr	r3, [r3, #60]	; 0x3c
 8006ece:	3b01      	subs	r3, #1
 8006ed0:	68f9      	ldr	r1, [r7, #12]
 8006ed2:	6c09      	ldr	r1, [r1, #64]	; 0x40
 8006ed4:	fb01 f303 	mul.w	r3, r1, r3
 8006ed8:	441a      	add	r2, r3
 8006eda:	68fb      	ldr	r3, [r7, #12]
 8006edc:	60da      	str	r2, [r3, #12]
		pxQueue->cRxLock = queueUNLOCKED;
 8006ede:	68fb      	ldr	r3, [r7, #12]
 8006ee0:	22ff      	movs	r2, #255	; 0xff
 8006ee2:	f883 2044 	strb.w	r2, [r3, #68]	; 0x44
		pxQueue->cTxLock = queueUNLOCKED;
 8006ee6:	68fb      	ldr	r3, [r7, #12]
 8006ee8:	22ff      	movs	r2, #255	; 0xff
 8006eea:	f883 2045 	strb.w	r2, [r3, #69]	; 0x45

		if( xNewQueue == pdFALSE )
 8006eee:	683b      	ldr	r3, [r7, #0]
 8006ef0:	2b00      	cmp	r3, #0
 8006ef2:	d114      	bne.n	8006f1e <xQueueGenericReset+0x8e>
			/* If there are tasks blocked waiting to read from the queue, then
			the tasks will remain blocked as after this function exits the queue
			will still be empty.  If there are tasks blocked waiting to write to
			the queue, then one should be unblocked as after this function exits
			it will be possible to write to it. */
			if( listLIST_IS_EMPTY( &( pxQueue->xTasksWaitingToSend ) ) == pdFALSE )
 8006ef4:	68fb      	ldr	r3, [r7, #12]
 8006ef6:	691b      	ldr	r3, [r3, #16]
 8006ef8:	2b00      	cmp	r3, #0
 8006efa:	d01a      	beq.n	8006f32 <xQueueGenericReset+0xa2>
			{
				if( xTaskRemoveFromEventList( &( pxQueue->xTasksWaitingToSend ) ) != pdFALSE )
 8006efc:	68fb      	ldr	r3, [r7, #12]
 8006efe:	3310      	adds	r3, #16
 8006f00:	4618      	mov	r0, r3
 8006f02:	f001 f943 	bl	800818c <xTaskRemoveFromEventList>
 8006f06:	4603      	mov	r3, r0
 8006f08:	2b00      	cmp	r3, #0
 8006f0a:	d012      	beq.n	8006f32 <xQueueGenericReset+0xa2>
				{
					queueYIELD_IF_USING_PREEMPTION();
 8006f0c:	4b0c      	ldr	r3, [pc, #48]	; (8006f40 <xQueueGenericReset+0xb0>)
 8006f0e:	f04f 5280 	mov.w	r2, #268435456	; 0x10000000
 8006f12:	601a      	str	r2, [r3, #0]
 8006f14:	f3bf 8f4f 	dsb	sy
 8006f18:	f3bf 8f6f 	isb	sy
 8006f1c:	e009      	b.n	8006f32 <xQueueGenericReset+0xa2>
			}
		}
		else
		{
			/* Ensure the event queues start in the correct state. */
			vListInitialise( &( pxQueue->xTasksWaitingToSend ) );
 8006f1e:	68fb      	ldr	r3, [r7, #12]
 8006f20:	3310      	adds	r3, #16
 8006f22:	4618      	mov	r0, r3
 8006f24:	f7ff ff04 	bl	8006d30 <vListInitialise>
			vListInitialise( &( pxQueue->xTasksWaitingToReceive ) );
 8006f28:	68fb      	ldr	r3, [r7, #12]
 8006f2a:	3324      	adds	r3, #36	; 0x24
 8006f2c:	4618      	mov	r0, r3
 8006f2e:	f7ff feff 	bl	8006d30 <vListInitialise>
		}
	}
	taskEXIT_CRITICAL();
 8006f32:	f001 ffab 	bl	8008e8c <vPortExitCritical>

	/* A value is returned for calling semantic consistency with previous
	versions. */
	return pdPASS;
 8006f36:	2301      	movs	r3, #1
}
 8006f38:	4618      	mov	r0, r3
 8006f3a:	3710      	adds	r7, #16
 8006f3c:	46bd      	mov	sp, r7
 8006f3e:	bd80      	pop	{r7, pc}
 8006f40:	e000ed04 	.word	0xe000ed04

08006f44 <xQueueGenericCreateStatic>:
/*-----------------------------------------------------------*/

#if( configSUPPORT_STATIC_ALLOCATION == 1 )

	QueueHandle_t xQueueGenericCreateStatic( const UBaseType_t uxQueueLength, const UBaseType_t uxItemSize, uint8_t *pucQueueStorage, StaticQueue_t *pxStaticQueue, const uint8_t ucQueueType )
	{
 8006f44:	b580      	push	{r7, lr}
 8006f46:	b088      	sub	sp, #32
 8006f48:	af02      	add	r7, sp, #8
 8006f4a:	60f8      	str	r0, [r7, #12]
 8006f4c:	60b9      	str	r1, [r7, #8]
 8006f4e:	607a      	str	r2, [r7, #4]
 8006f50:	603b      	str	r3, [r7, #0]
		#endif /* configASSERT_DEFINED */

		/* The address of a statically allocated queue was passed in, use it.
		The address of a statically allocated storage area was also passed in
		but is already set. */
		pxNewQueue = ( Queue_t * ) pxStaticQueue; /*lint !e740 Unusual cast is ok as the structures are designed to have the same alignment, and the size is checked by an assert. */
 8006f52:	683b      	ldr	r3, [r7, #0]
 8006f54:	617b      	str	r3, [r7, #20]

		if( pxNewQueue != NULL )
 8006f56:	697b      	ldr	r3, [r7, #20]
 8006f58:	2b00      	cmp	r3, #0
 8006f5a:	d00d      	beq.n	8006f78 <xQueueGenericCreateStatic+0x34>
			#if( configSUPPORT_DYNAMIC_ALLOCATION == 1 )
			{
				/* Queues can be allocated wither statically or dynamically, so
				note this queue was allocated statically in case the queue is
				later deleted. */
				pxNewQueue->ucStaticallyAllocated = pdTRUE;
 8006f5c:	697b      	ldr	r3, [r7, #20]
 8006f5e:	2201      	movs	r2, #1
 8006f60:	f883 2046 	strb.w	r2, [r3, #70]	; 0x46
			}
			#endif /* configSUPPORT_DYNAMIC_ALLOCATION */

			prvInitialiseNewQueue( uxQueueLength, uxItemSize, pucQueueStorage, ucQueueType, pxNewQueue );
 8006f64:	f897 2020 	ldrb.w	r2, [r7, #32]
 8006f68:	697b      	ldr	r3, [r7, #20]
 8006f6a:	9300      	str	r3, [sp, #0]
 8006f6c:	4613      	mov	r3, r2
 8006f6e:	687a      	ldr	r2, [r7, #4]
 8006f70:	68b9      	ldr	r1, [r7, #8]
 8006f72:	68f8      	ldr	r0, [r7, #12]
 8006f74:	f000 f835 	bl	8006fe2 <prvInitialiseNewQueue>
		else
		{
			traceQUEUE_CREATE_FAILED( ucQueueType );
		}

		return pxNewQueue;
 8006f78:	697b      	ldr	r3, [r7, #20]
	}
 8006f7a:	4618      	mov	r0, r3
 8006f7c:	3718      	adds	r7, #24
 8006f7e:	46bd      	mov	sp, r7
 8006f80:	bd80      	pop	{r7, pc}

08006f82 <xQueueGenericCreate>:
/*-----------------------------------------------------------*/

#if( configSUPPORT_DYNAMIC_ALLOCATION == 1 )

	QueueHandle_t xQueueGenericCreate( const UBaseType_t uxQueueLength, const UBaseType_t uxItemSize, const uint8_t ucQueueType )
	{
 8006f82:	b580      	push	{r7, lr}
 8006f84:	b08a      	sub	sp, #40	; 0x28
 8006f86:	af02      	add	r7, sp, #8
 8006f88:	60f8      	str	r0, [r7, #12]
 8006f8a:	60b9      	str	r1, [r7, #8]
 8006f8c:	4613      	mov	r3, r2
 8006f8e:	71fb      	strb	r3, [r7, #7]
	size_t xQueueSizeInBytes;
	uint8_t *pucQueueStorage;

		configASSERT( uxQueueLength > ( UBaseType_t ) 0 );

		if( uxItemSize == ( UBaseType_t ) 0 )
 8006f90:	68bb      	ldr	r3, [r7, #8]
 8006f92:	2b00      	cmp	r3, #0
 8006f94:	d102      	bne.n	8006f9c <xQueueGenericCreate+0x1a>
		{
			/* There is not going to be a queue storage area. */
			xQueueSizeInBytes = ( size_t ) 0;
 8006f96:	2300      	movs	r3, #0
 8006f98:	61fb      	str	r3, [r7, #28]
 8006f9a:	e004      	b.n	8006fa6 <xQueueGenericCreate+0x24>
		}
		else
		{
			/* Allocate enough space to hold the maximum number of items that
			can be in the queue at any time. */
			xQueueSizeInBytes = ( size_t ) ( uxQueueLength * uxItemSize ); /*lint !e961 MISRA exception as the casts are only redundant for some ports. */
 8006f9c:	68fb      	ldr	r3, [r7, #12]
 8006f9e:	68ba      	ldr	r2, [r7, #8]
 8006fa0:	fb02 f303 	mul.w	r3, r2, r3
 8006fa4:	61fb      	str	r3, [r7, #28]
		}

		pxNewQueue = ( Queue_t * ) pvPortMalloc( sizeof( Queue_t ) + xQueueSizeInBytes );
 8006fa6:	69fb      	ldr	r3, [r7, #28]
 8006fa8:	3350      	adds	r3, #80	; 0x50
 8006faa:	4618      	mov	r0, r3
 8006fac:	f001 fff0 	bl	8008f90 <pvPortMalloc>
 8006fb0:	61b8      	str	r0, [r7, #24]

		if( pxNewQueue != NULL )
 8006fb2:	69bb      	ldr	r3, [r7, #24]
 8006fb4:	2b00      	cmp	r3, #0
 8006fb6:	d00f      	beq.n	8006fd8 <xQueueGenericCreate+0x56>
		{
			/* Jump past the queue structure to find the location of the queue
			storage area. */
			pucQueueStorage = ( ( uint8_t * ) pxNewQueue ) + sizeof( Queue_t );
 8006fb8:	69bb      	ldr	r3, [r7, #24]
 8006fba:	3350      	adds	r3, #80	; 0x50
 8006fbc:	617b      	str	r3, [r7, #20]
			#if( configSUPPORT_STATIC_ALLOCATION == 1 )
			{
				/* Queues can be created either statically or dynamically, so
				note this task was created dynamically in case it is later
				deleted. */
				pxNewQueue->ucStaticallyAllocated = pdFALSE;
 8006fbe:	69bb      	ldr	r3, [r7, #24]
 8006fc0:	2200      	movs	r2, #0
 8006fc2:	f883 2046 	strb.w	r2, [r3, #70]	; 0x46
			}
			#endif /* configSUPPORT_STATIC_ALLOCATION */

			prvInitialiseNewQueue( uxQueueLength, uxItemSize, pucQueueStorage, ucQueueType, pxNewQueue );
 8006fc6:	79fa      	ldrb	r2, [r7, #7]
 8006fc8:	69bb      	ldr	r3, [r7, #24]
 8006fca:	9300      	str	r3, [sp, #0]
 8006fcc:	4613      	mov	r3, r2
 8006fce:	697a      	ldr	r2, [r7, #20]
 8006fd0:	68b9      	ldr	r1, [r7, #8]
 8006fd2:	68f8      	ldr	r0, [r7, #12]
 8006fd4:	f000 f805 	bl	8006fe2 <prvInitialiseNewQueue>
		else
		{
			traceQUEUE_CREATE_FAILED( ucQueueType );
		}

		return pxNewQueue;
 8006fd8:	69bb      	ldr	r3, [r7, #24]
	}
 8006fda:	4618      	mov	r0, r3
 8006fdc:	3720      	adds	r7, #32
 8006fde:	46bd      	mov	sp, r7
 8006fe0:	bd80      	pop	{r7, pc}

08006fe2 <prvInitialiseNewQueue>:

#endif /* configSUPPORT_STATIC_ALLOCATION */
/*-----------------------------------------------------------*/

static void prvInitialiseNewQueue( const UBaseType_t uxQueueLength, const UBaseType_t uxItemSize, uint8_t *pucQueueStorage, const uint8_t ucQueueType, Queue_t *pxNewQueue )
{
 8006fe2:	b580      	push	{r7, lr}
 8006fe4:	b084      	sub	sp, #16
 8006fe6:	af00      	add	r7, sp, #0
 8006fe8:	60f8      	str	r0, [r7, #12]
 8006fea:	60b9      	str	r1, [r7, #8]
 8006fec:	607a      	str	r2, [r7, #4]
 8006fee:	70fb      	strb	r3, [r7, #3]
	/* Remove compiler warnings about unused parameters should
	configUSE_TRACE_FACILITY not be set to 1. */
	( void ) ucQueueType;

	if( uxItemSize == ( UBaseType_t ) 0 )
 8006ff0:	68bb      	ldr	r3, [r7, #8]
 8006ff2:	2b00      	cmp	r3, #0
 8006ff4:	d103      	bne.n	8006ffe <prvInitialiseNewQueue+0x1c>
	{
		/* No RAM was allocated for the queue storage area, but PC head cannot
		be set to NULL because NULL is used as a key to say the queue is used as
		a mutex.  Therefore just set pcHead to point to the queue as a benign
		value that is known to be within the memory map. */
		pxNewQueue->pcHead = ( int8_t * ) pxNewQueue;
 8006ff6:	69bb      	ldr	r3, [r7, #24]
 8006ff8:	69ba      	ldr	r2, [r7, #24]
 8006ffa:	601a      	str	r2, [r3, #0]
 8006ffc:	e002      	b.n	8007004 <prvInitialiseNewQueue+0x22>
	}
	else
	{
		/* Set the head to the start of the queue storage area. */
		pxNewQueue->pcHead = ( int8_t * ) pucQueueStorage;
 8006ffe:	69bb      	ldr	r3, [r7, #24]
 8007000:	687a      	ldr	r2, [r7, #4]
 8007002:	601a      	str	r2, [r3, #0]
	}

	/* Initialise the queue members as described where the queue type is
	defined. */
	pxNewQueue->uxLength = uxQueueLength;
 8007004:	69bb      	ldr	r3, [r7, #24]
 8007006:	68fa      	ldr	r2, [r7, #12]
 8007008:	63da      	str	r2, [r3, #60]	; 0x3c
	pxNewQueue->uxItemSize = uxItemSize;
 800700a:	69bb      	ldr	r3, [r7, #24]
 800700c:	68ba      	ldr	r2, [r7, #8]
 800700e:	641a      	str	r2, [r3, #64]	; 0x40
	( void ) xQueueGenericReset( pxNewQueue, pdTRUE );
 8007010:	2101      	movs	r1, #1
 8007012:	69b8      	ldr	r0, [r7, #24]
 8007014:	f7ff ff3c 	bl	8006e90 <xQueueGenericReset>

	#if ( configUSE_TRACE_FACILITY == 1 )
	{
		pxNewQueue->ucQueueType = ucQueueType;
 8007018:	69bb      	ldr	r3, [r7, #24]
 800701a:	78fa      	ldrb	r2, [r7, #3]
 800701c:	f883 204c 	strb.w	r2, [r3, #76]	; 0x4c
		pxNewQueue->pxQueueSetContainer = NULL;
	}
	#endif /* configUSE_QUEUE_SETS */

	traceQUEUE_CREATE( pxNewQueue );
}
 8007020:	bf00      	nop
 8007022:	3710      	adds	r7, #16
 8007024:	46bd      	mov	sp, r7
 8007026:	bd80      	pop	{r7, pc}

08007028 <xQueueCreateCountingSemaphore>:
/*-----------------------------------------------------------*/

#if( ( configUSE_COUNTING_SEMAPHORES == 1 ) && ( configSUPPORT_DYNAMIC_ALLOCATION == 1 ) )

	QueueHandle_t xQueueCreateCountingSemaphore( const UBaseType_t uxMaxCount, const UBaseType_t uxInitialCount )
	{
 8007028:	b580      	push	{r7, lr}
 800702a:	b084      	sub	sp, #16
 800702c:	af00      	add	r7, sp, #0
 800702e:	6078      	str	r0, [r7, #4]
 8007030:	6039      	str	r1, [r7, #0]
	QueueHandle_t xHandle;

		configASSERT( uxMaxCount != 0 );
		configASSERT( uxInitialCount <= uxMaxCount );

		xHandle = xQueueGenericCreate( uxMaxCount, queueSEMAPHORE_QUEUE_ITEM_LENGTH, queueQUEUE_TYPE_COUNTING_SEMAPHORE );
 8007032:	2202      	movs	r2, #2
 8007034:	2100      	movs	r1, #0
 8007036:	6878      	ldr	r0, [r7, #4]
 8007038:	f7ff ffa3 	bl	8006f82 <xQueueGenericCreate>
 800703c:	60f8      	str	r0, [r7, #12]

		if( xHandle != NULL )
 800703e:	68fb      	ldr	r3, [r7, #12]
 8007040:	2b00      	cmp	r3, #0
 8007042:	d002      	beq.n	800704a <xQueueCreateCountingSemaphore+0x22>
		{
			( ( Queue_t * ) xHandle )->uxMessagesWaiting = uxInitialCount;
 8007044:	68fb      	ldr	r3, [r7, #12]
 8007046:	683a      	ldr	r2, [r7, #0]
 8007048:	639a      	str	r2, [r3, #56]	; 0x38
		else
		{
			traceCREATE_COUNTING_SEMAPHORE_FAILED();
		}

		return xHandle;
 800704a:	68fb      	ldr	r3, [r7, #12]
	}
 800704c:	4618      	mov	r0, r3
 800704e:	3710      	adds	r7, #16
 8007050:	46bd      	mov	sp, r7
 8007052:	bd80      	pop	{r7, pc}

08007054 <xQueueGenericSend>:

#endif /* ( ( configUSE_COUNTING_SEMAPHORES == 1 ) && ( configSUPPORT_DYNAMIC_ALLOCATION == 1 ) ) */
/*-----------------------------------------------------------*/

BaseType_t xQueueGenericSend( QueueHandle_t xQueue, const void * const pvItemToQueue, TickType_t xTicksToWait, const BaseType_t xCopyPosition )
{
 8007054:	b580      	push	{r7, lr}
 8007056:	b08a      	sub	sp, #40	; 0x28
 8007058:	af00      	add	r7, sp, #0
 800705a:	60f8      	str	r0, [r7, #12]
 800705c:	60b9      	str	r1, [r7, #8]
 800705e:	607a      	str	r2, [r7, #4]
 8007060:	603b      	str	r3, [r7, #0]
BaseType_t xEntryTimeSet = pdFALSE, xYieldRequired;
 8007062:	2300      	movs	r3, #0
 8007064:	627b      	str	r3, [r7, #36]	; 0x24
TimeOut_t xTimeOut;
Queue_t * const pxQueue = ( Queue_t * ) xQueue;
 8007066:	68fb      	ldr	r3, [r7, #12]
 8007068:	623b      	str	r3, [r7, #32]
	/* This function relaxes the coding standard somewhat to allow return
	statements within the function itself.  This is done in the interest
	of execution time efficiency. */
	for( ;; )
	{
		taskENTER_CRITICAL();
 800706a:	f001 fef5 	bl	8008e58 <vPortEnterCritical>
		{
			/* Is there room on the queue now?  The running task must be the
			highest priority task wanting to access the queue.  If the head item
			in the queue is to be overwritten then it does not matter if the
			queue is full. */
			if( ( pxQueue->uxMessagesWaiting < pxQueue->uxLength ) || ( xCopyPosition == queueOVERWRITE ) )
 800706e:	6a3b      	ldr	r3, [r7, #32]
 8007070:	6b9a      	ldr	r2, [r3, #56]	; 0x38
 8007072:	6a3b      	ldr	r3, [r7, #32]
 8007074:	6bdb      	ldr	r3, [r3, #60]	; 0x3c
 8007076:	429a      	cmp	r2, r3
 8007078:	d302      	bcc.n	8007080 <xQueueGenericSend+0x2c>
 800707a:	683b      	ldr	r3, [r7, #0]
 800707c:	2b02      	cmp	r3, #2
 800707e:	d129      	bne.n	80070d4 <xQueueGenericSend+0x80>
			{
				traceQUEUE_SEND( pxQueue );
				xYieldRequired = prvCopyDataToQueue( pxQueue, pvItemToQueue, xCopyPosition );
 8007080:	683a      	ldr	r2, [r7, #0]
 8007082:	68b9      	ldr	r1, [r7, #8]
 8007084:	6a38      	ldr	r0, [r7, #32]
 8007086:	f000 fb62 	bl	800774e <prvCopyDataToQueue>
 800708a:	61f8      	str	r0, [r7, #28]
				}
				#else /* configUSE_QUEUE_SETS */
				{
					/* If there was a task waiting for data to arrive on the
					queue then unblock it now. */
					if( listLIST_IS_EMPTY( &( pxQueue->xTasksWaitingToReceive ) ) == pdFALSE )
 800708c:	6a3b      	ldr	r3, [r7, #32]
 800708e:	6a5b      	ldr	r3, [r3, #36]	; 0x24
 8007090:	2b00      	cmp	r3, #0
 8007092:	d010      	beq.n	80070b6 <xQueueGenericSend+0x62>
					{
						if( xTaskRemoveFromEventList( &( pxQueue->xTasksWaitingToReceive ) ) != pdFALSE )
 8007094:	6a3b      	ldr	r3, [r7, #32]
 8007096:	3324      	adds	r3, #36	; 0x24
 8007098:	4618      	mov	r0, r3
 800709a:	f001 f877 	bl	800818c <xTaskRemoveFromEventList>
 800709e:	4603      	mov	r3, r0
 80070a0:	2b00      	cmp	r3, #0
 80070a2:	d013      	beq.n	80070cc <xQueueGenericSend+0x78>
						{
							/* The unblocked task has a priority higher than
							our own so yield immediately.  Yes it is ok to do
							this from within the critical section - the kernel
							takes care of that. */
							queueYIELD_IF_USING_PREEMPTION();
 80070a4:	4b3f      	ldr	r3, [pc, #252]	; (80071a4 <xQueueGenericSend+0x150>)
 80070a6:	f04f 5280 	mov.w	r2, #268435456	; 0x10000000
 80070aa:	601a      	str	r2, [r3, #0]
 80070ac:	f3bf 8f4f 	dsb	sy
 80070b0:	f3bf 8f6f 	isb	sy
 80070b4:	e00a      	b.n	80070cc <xQueueGenericSend+0x78>
						else
						{
							mtCOVERAGE_TEST_MARKER();
						}
					}
					else if( xYieldRequired != pdFALSE )
 80070b6:	69fb      	ldr	r3, [r7, #28]
 80070b8:	2b00      	cmp	r3, #0
 80070ba:	d007      	beq.n	80070cc <xQueueGenericSend+0x78>
					{
						/* This path is a special case that will only get
						executed if the task was holding multiple mutexes and
						the mutexes were given back in an order that is
						different to that in which they were taken. */
						queueYIELD_IF_USING_PREEMPTION();
 80070bc:	4b39      	ldr	r3, [pc, #228]	; (80071a4 <xQueueGenericSend+0x150>)
 80070be:	f04f 5280 	mov.w	r2, #268435456	; 0x10000000
 80070c2:	601a      	str	r2, [r3, #0]
 80070c4:	f3bf 8f4f 	dsb	sy
 80070c8:	f3bf 8f6f 	isb	sy
						mtCOVERAGE_TEST_MARKER();
					}
				}
				#endif /* configUSE_QUEUE_SETS */

				taskEXIT_CRITICAL();
 80070cc:	f001 fede 	bl	8008e8c <vPortExitCritical>
				return pdPASS;
 80070d0:	2301      	movs	r3, #1
 80070d2:	e063      	b.n	800719c <xQueueGenericSend+0x148>
			}
			else
			{
				if( xTicksToWait == ( TickType_t ) 0 )
 80070d4:	687b      	ldr	r3, [r7, #4]
 80070d6:	2b00      	cmp	r3, #0
 80070d8:	d103      	bne.n	80070e2 <xQueueGenericSend+0x8e>
				{
					/* The queue was full and no block time is specified (or
					the block time has expired) so leave now. */
					taskEXIT_CRITICAL();
 80070da:	f001 fed7 	bl	8008e8c <vPortExitCritical>

					/* Return to the original privilege level before exiting
					the function. */
					traceQUEUE_SEND_FAILED( pxQueue );
					return errQUEUE_FULL;
 80070de:	2300      	movs	r3, #0
 80070e0:	e05c      	b.n	800719c <xQueueGenericSend+0x148>
				}
				else if( xEntryTimeSet == pdFALSE )
 80070e2:	6a7b      	ldr	r3, [r7, #36]	; 0x24
 80070e4:	2b00      	cmp	r3, #0
 80070e6:	d106      	bne.n	80070f6 <xQueueGenericSend+0xa2>
				{
					/* The queue was full and a block time was specified so
					configure the timeout structure. */
					vTaskInternalSetTimeOutState( &xTimeOut );
 80070e8:	f107 0314 	add.w	r3, r7, #20
 80070ec:	4618      	mov	r0, r3
 80070ee:	f001 f8a3 	bl	8008238 <vTaskInternalSetTimeOutState>
					xEntryTimeSet = pdTRUE;
 80070f2:	2301      	movs	r3, #1
 80070f4:	627b      	str	r3, [r7, #36]	; 0x24
					/* Entry time was already set. */
					mtCOVERAGE_TEST_MARKER();
				}
			}
		}
		taskEXIT_CRITICAL();
 80070f6:	f001 fec9 	bl	8008e8c <vPortExitCritical>

		/* Interrupts and other tasks can send to and receive from the queue
		now the critical section has been exited. */

		vTaskSuspendAll();
 80070fa:	f000 fe6d 	bl	8007dd8 <vTaskSuspendAll>
		prvLockQueue( pxQueue );
 80070fe:	f001 feab 	bl	8008e58 <vPortEnterCritical>
 8007102:	6a3b      	ldr	r3, [r7, #32]
 8007104:	f893 3044 	ldrb.w	r3, [r3, #68]	; 0x44
 8007108:	b25b      	sxtb	r3, r3
 800710a:	f1b3 3fff 	cmp.w	r3, #4294967295
 800710e:	d103      	bne.n	8007118 <xQueueGenericSend+0xc4>
 8007110:	6a3b      	ldr	r3, [r7, #32]
 8007112:	2200      	movs	r2, #0
 8007114:	f883 2044 	strb.w	r2, [r3, #68]	; 0x44
 8007118:	6a3b      	ldr	r3, [r7, #32]
 800711a:	f893 3045 	ldrb.w	r3, [r3, #69]	; 0x45
 800711e:	b25b      	sxtb	r3, r3
 8007120:	f1b3 3fff 	cmp.w	r3, #4294967295
 8007124:	d103      	bne.n	800712e <xQueueGenericSend+0xda>
 8007126:	6a3b      	ldr	r3, [r7, #32]
 8007128:	2200      	movs	r2, #0
 800712a:	f883 2045 	strb.w	r2, [r3, #69]	; 0x45
 800712e:	f001 fead 	bl	8008e8c <vPortExitCritical>

		/* Update the timeout state to see if it has expired yet. */
		if( xTaskCheckForTimeOut( &xTimeOut, &xTicksToWait ) == pdFALSE )
 8007132:	1d3a      	adds	r2, r7, #4
 8007134:	f107 0314 	add.w	r3, r7, #20
 8007138:	4611      	mov	r1, r2
 800713a:	4618      	mov	r0, r3
 800713c:	f001 f892 	bl	8008264 <xTaskCheckForTimeOut>
 8007140:	4603      	mov	r3, r0
 8007142:	2b00      	cmp	r3, #0
 8007144:	d124      	bne.n	8007190 <xQueueGenericSend+0x13c>
		{
			if( prvIsQueueFull( pxQueue ) != pdFALSE )
 8007146:	6a38      	ldr	r0, [r7, #32]
 8007148:	f000 fbf9 	bl	800793e <prvIsQueueFull>
 800714c:	4603      	mov	r3, r0
 800714e:	2b00      	cmp	r3, #0
 8007150:	d018      	beq.n	8007184 <xQueueGenericSend+0x130>
			{
				traceBLOCKING_ON_QUEUE_SEND( pxQueue );
				vTaskPlaceOnEventList( &( pxQueue->xTasksWaitingToSend ), xTicksToWait );
 8007152:	6a3b      	ldr	r3, [r7, #32]
 8007154:	3310      	adds	r3, #16
 8007156:	687a      	ldr	r2, [r7, #4]
 8007158:	4611      	mov	r1, r2
 800715a:	4618      	mov	r0, r3
 800715c:	f000 ffe2 	bl	8008124 <vTaskPlaceOnEventList>
				/* Unlocking the queue means queue events can effect the
				event list.  It is possible that interrupts occurring now
				remove this task from the event list again - but as the
				scheduler is suspended the task will go onto the pending
				ready last instead of the actual ready list. */
				prvUnlockQueue( pxQueue );
 8007160:	6a38      	ldr	r0, [r7, #32]
 8007162:	f000 fb84 	bl	800786e <prvUnlockQueue>
				/* Resuming the scheduler will move tasks from the pending
				ready list into the ready list - so it is feasible that this
				task is already in a ready list before it yields - in which
				case the yield will not cause a context switch unless there
				is also a higher priority task in the pending ready list. */
				if( xTaskResumeAll() == pdFALSE )
 8007166:	f000 fe45 	bl	8007df4 <xTaskResumeAll>
 800716a:	4603      	mov	r3, r0
 800716c:	2b00      	cmp	r3, #0
 800716e:	f47f af7c 	bne.w	800706a <xQueueGenericSend+0x16>
				{
					portYIELD_WITHIN_API();
 8007172:	4b0c      	ldr	r3, [pc, #48]	; (80071a4 <xQueueGenericSend+0x150>)
 8007174:	f04f 5280 	mov.w	r2, #268435456	; 0x10000000
 8007178:	601a      	str	r2, [r3, #0]
 800717a:	f3bf 8f4f 	dsb	sy
 800717e:	f3bf 8f6f 	isb	sy
 8007182:	e772      	b.n	800706a <xQueueGenericSend+0x16>
				}
			}
			else
			{
				/* Try again. */
				prvUnlockQueue( pxQueue );
 8007184:	6a38      	ldr	r0, [r7, #32]
 8007186:	f000 fb72 	bl	800786e <prvUnlockQueue>
				( void ) xTaskResumeAll();
 800718a:	f000 fe33 	bl	8007df4 <xTaskResumeAll>
 800718e:	e76c      	b.n	800706a <xQueueGenericSend+0x16>
			}
		}
		else
		{
			/* The timeout has expired. */
			prvUnlockQueue( pxQueue );
 8007190:	6a38      	ldr	r0, [r7, #32]
 8007192:	f000 fb6c 	bl	800786e <prvUnlockQueue>
			( void ) xTaskResumeAll();
 8007196:	f000 fe2d 	bl	8007df4 <xTaskResumeAll>

			traceQUEUE_SEND_FAILED( pxQueue );
			return errQUEUE_FULL;
 800719a:	2300      	movs	r3, #0
		}
	}
}
 800719c:	4618      	mov	r0, r3
 800719e:	3728      	adds	r7, #40	; 0x28
 80071a0:	46bd      	mov	sp, r7
 80071a2:	bd80      	pop	{r7, pc}
 80071a4:	e000ed04 	.word	0xe000ed04

080071a8 <xQueueGenericSendFromISR>:
/*-----------------------------------------------------------*/

BaseType_t xQueueGenericSendFromISR( QueueHandle_t xQueue, const void * const pvItemToQueue, BaseType_t * const pxHigherPriorityTaskWoken, const BaseType_t xCopyPosition )
{
 80071a8:	b580      	push	{r7, lr}
 80071aa:	b08c      	sub	sp, #48	; 0x30
 80071ac:	af00      	add	r7, sp, #0
 80071ae:	60f8      	str	r0, [r7, #12]
 80071b0:	60b9      	str	r1, [r7, #8]
 80071b2:	607a      	str	r2, [r7, #4]
 80071b4:	603b      	str	r3, [r7, #0]
BaseType_t xReturn;
UBaseType_t uxSavedInterruptStatus;
Queue_t * const pxQueue = ( Queue_t * ) xQueue;
 80071b6:	68fb      	ldr	r3, [r7, #12]
 80071b8:	62bb      	str	r3, [r7, #40]	; 0x28

portFORCE_INLINE static uint32_t ulPortRaiseBASEPRI( void )
{
uint32_t ulOriginalBASEPRI, ulNewBASEPRI;

	__asm volatile
 80071ba:	f3ef 8211 	mrs	r2, BASEPRI
 80071be:	f04f 0350 	mov.w	r3, #80	; 0x50
 80071c2:	f383 8811 	msr	BASEPRI, r3
 80071c6:	f3bf 8f6f 	isb	sy
 80071ca:	f3bf 8f4f 	dsb	sy
 80071ce:	61fa      	str	r2, [r7, #28]
 80071d0:	61bb      	str	r3, [r7, #24]
		:"=r" (ulOriginalBASEPRI), "=r" (ulNewBASEPRI) : "i" ( configMAX_SYSCALL_INTERRUPT_PRIORITY ) : "memory"
	);

	/* This return will not be reached but is necessary to prevent compiler
	warnings. */
	return ulOriginalBASEPRI;
 80071d2:	69fb      	ldr	r3, [r7, #28]
	/* Similar to xQueueGenericSend, except without blocking if there is no room
	in the queue.  Also don't directly wake a task that was blocked on a queue
	read, instead return a flag to say whether a context switch is required or
	not (i.e. has a task with a higher priority than us been woken by this
	post). */
	uxSavedInterruptStatus = portSET_INTERRUPT_MASK_FROM_ISR();
 80071d4:	627b      	str	r3, [r7, #36]	; 0x24
	{
		if( ( pxQueue->uxMessagesWaiting < pxQueue->uxLength ) || ( xCopyPosition == queueOVERWRITE ) )
 80071d6:	6abb      	ldr	r3, [r7, #40]	; 0x28
 80071d8:	6b9a      	ldr	r2, [r3, #56]	; 0x38
 80071da:	6abb      	ldr	r3, [r7, #40]	; 0x28
 80071dc:	6bdb      	ldr	r3, [r3, #60]	; 0x3c
 80071de:	429a      	cmp	r2, r3
 80071e0:	d302      	bcc.n	80071e8 <xQueueGenericSendFromISR+0x40>
 80071e2:	683b      	ldr	r3, [r7, #0]
 80071e4:	2b02      	cmp	r3, #2
 80071e6:	d12c      	bne.n	8007242 <xQueueGenericSendFromISR+0x9a>
		{
			const int8_t cTxLock = pxQueue->cTxLock;
 80071e8:	6abb      	ldr	r3, [r7, #40]	; 0x28
 80071ea:	f893 3045 	ldrb.w	r3, [r3, #69]	; 0x45
 80071ee:	f887 3023 	strb.w	r3, [r7, #35]	; 0x23
			/* Semaphores use xQueueGiveFromISR(), so pxQueue will not be a
			semaphore or mutex.  That means prvCopyDataToQueue() cannot result
			in a task disinheriting a priority and prvCopyDataToQueue() can be
			called here even though the disinherit function does not check if
			the scheduler is suspended before accessing the ready lists. */
			( void ) prvCopyDataToQueue( pxQueue, pvItemToQueue, xCopyPosition );
 80071f2:	683a      	ldr	r2, [r7, #0]
 80071f4:	68b9      	ldr	r1, [r7, #8]
 80071f6:	6ab8      	ldr	r0, [r7, #40]	; 0x28
 80071f8:	f000 faa9 	bl	800774e <prvCopyDataToQueue>

			/* The event list is not altered if the queue is locked.  This will
			be done when the queue is unlocked later. */
			if( cTxLock == queueUNLOCKED )
 80071fc:	f997 3023 	ldrsb.w	r3, [r7, #35]	; 0x23
 8007200:	f1b3 3fff 	cmp.w	r3, #4294967295
 8007204:	d112      	bne.n	800722c <xQueueGenericSendFromISR+0x84>
						}
					}
				}
				#else /* configUSE_QUEUE_SETS */
				{
					if( listLIST_IS_EMPTY( &( pxQueue->xTasksWaitingToReceive ) ) == pdFALSE )
 8007206:	6abb      	ldr	r3, [r7, #40]	; 0x28
 8007208:	6a5b      	ldr	r3, [r3, #36]	; 0x24
 800720a:	2b00      	cmp	r3, #0
 800720c:	d016      	beq.n	800723c <xQueueGenericSendFromISR+0x94>
					{
						if( xTaskRemoveFromEventList( &( pxQueue->xTasksWaitingToReceive ) ) != pdFALSE )
 800720e:	6abb      	ldr	r3, [r7, #40]	; 0x28
 8007210:	3324      	adds	r3, #36	; 0x24
 8007212:	4618      	mov	r0, r3
 8007214:	f000 ffba 	bl	800818c <xTaskRemoveFromEventList>
 8007218:	4603      	mov	r3, r0
 800721a:	2b00      	cmp	r3, #0
 800721c:	d00e      	beq.n	800723c <xQueueGenericSendFromISR+0x94>
						{
							/* The task waiting has a higher priority so record that a
							context	switch is required. */
							if( pxHigherPriorityTaskWoken != NULL )
 800721e:	687b      	ldr	r3, [r7, #4]
 8007220:	2b00      	cmp	r3, #0
 8007222:	d00b      	beq.n	800723c <xQueueGenericSendFromISR+0x94>
							{
								*pxHigherPriorityTaskWoken = pdTRUE;
 8007224:	687b      	ldr	r3, [r7, #4]
 8007226:	2201      	movs	r2, #1
 8007228:	601a      	str	r2, [r3, #0]
 800722a:	e007      	b.n	800723c <xQueueGenericSendFromISR+0x94>
			}
			else
			{
				/* Increment the lock count so the task that unlocks the queue
				knows that data was posted while it was locked. */
				pxQueue->cTxLock = ( int8_t ) ( cTxLock + 1 );
 800722c:	f897 3023 	ldrb.w	r3, [r7, #35]	; 0x23
 8007230:	3301      	adds	r3, #1
 8007232:	b2db      	uxtb	r3, r3
 8007234:	b25a      	sxtb	r2, r3
 8007236:	6abb      	ldr	r3, [r7, #40]	; 0x28
 8007238:	f883 2045 	strb.w	r2, [r3, #69]	; 0x45
			}

			xReturn = pdPASS;
 800723c:	2301      	movs	r3, #1
 800723e:	62fb      	str	r3, [r7, #44]	; 0x2c
		{
 8007240:	e001      	b.n	8007246 <xQueueGenericSendFromISR+0x9e>
		}
		else
		{
			traceQUEUE_SEND_FROM_ISR_FAILED( pxQueue );
			xReturn = errQUEUE_FULL;
 8007242:	2300      	movs	r3, #0
 8007244:	62fb      	str	r3, [r7, #44]	; 0x2c
 8007246:	6a7b      	ldr	r3, [r7, #36]	; 0x24
 8007248:	617b      	str	r3, [r7, #20]
}
/*-----------------------------------------------------------*/

portFORCE_INLINE static void vPortSetBASEPRI( uint32_t ulNewMaskValue )
{
	__asm volatile
 800724a:	697b      	ldr	r3, [r7, #20]
 800724c:	f383 8811 	msr	BASEPRI, r3
	(
		"	msr basepri, %0	" :: "r" ( ulNewMaskValue ) : "memory"
	);
}
 8007250:	bf00      	nop
		}
	}
	portCLEAR_INTERRUPT_MASK_FROM_ISR( uxSavedInterruptStatus );

	return xReturn;
 8007252:	6afb      	ldr	r3, [r7, #44]	; 0x2c
}
 8007254:	4618      	mov	r0, r3
 8007256:	3730      	adds	r7, #48	; 0x30
 8007258:	46bd      	mov	sp, r7
 800725a:	bd80      	pop	{r7, pc}

0800725c <xQueueGiveFromISR>:
/*-----------------------------------------------------------*/

BaseType_t xQueueGiveFromISR( QueueHandle_t xQueue, BaseType_t * const pxHigherPriorityTaskWoken )
{
 800725c:	b580      	push	{r7, lr}
 800725e:	b08a      	sub	sp, #40	; 0x28
 8007260:	af00      	add	r7, sp, #0
 8007262:	6078      	str	r0, [r7, #4]
 8007264:	6039      	str	r1, [r7, #0]
BaseType_t xReturn;
UBaseType_t uxSavedInterruptStatus;
Queue_t * const pxQueue = ( Queue_t * ) xQueue;
 8007266:	687b      	ldr	r3, [r7, #4]
 8007268:	623b      	str	r3, [r7, #32]
	__asm volatile
 800726a:	f3ef 8211 	mrs	r2, BASEPRI
 800726e:	f04f 0350 	mov.w	r3, #80	; 0x50
 8007272:	f383 8811 	msr	BASEPRI, r3
 8007276:	f3bf 8f6f 	isb	sy
 800727a:	f3bf 8f4f 	dsb	sy
 800727e:	613a      	str	r2, [r7, #16]
 8007280:	60fb      	str	r3, [r7, #12]
	return ulOriginalBASEPRI;
 8007282:	693b      	ldr	r3, [r7, #16]
	safe API to ensure interrupt entry is as fast and as simple as possible.
	More information (albeit Cortex-M specific) is provided on the following
	link: http://www.freertos.org/RTOS-Cortex-M3-M4.html */
	portASSERT_IF_INTERRUPT_PRIORITY_INVALID();

	uxSavedInterruptStatus = portSET_INTERRUPT_MASK_FROM_ISR();
 8007284:	61fb      	str	r3, [r7, #28]
	{
		const UBaseType_t uxMessagesWaiting = pxQueue->uxMessagesWaiting;
 8007286:	6a3b      	ldr	r3, [r7, #32]
 8007288:	6b9b      	ldr	r3, [r3, #56]	; 0x38
 800728a:	61bb      	str	r3, [r7, #24]

		/* When the queue is used to implement a semaphore no data is ever
		moved through the queue but it is still valid to see if the queue 'has
		space'. */
		if( uxMessagesWaiting < pxQueue->uxLength )
 800728c:	6a3b      	ldr	r3, [r7, #32]
 800728e:	6bdb      	ldr	r3, [r3, #60]	; 0x3c
 8007290:	69ba      	ldr	r2, [r7, #24]
 8007292:	429a      	cmp	r2, r3
 8007294:	d229      	bcs.n	80072ea <xQueueGiveFromISR+0x8e>
		{
			const int8_t cTxLock = pxQueue->cTxLock;
 8007296:	6a3b      	ldr	r3, [r7, #32]
 8007298:	f893 3045 	ldrb.w	r3, [r3, #69]	; 0x45
 800729c:	75fb      	strb	r3, [r7, #23]
			holder - and if there is a mutex holder then the mutex cannot be
			given from an ISR.  As this is the ISR version of the function it
			can be assumed there is no mutex holder and no need to determine if
			priority disinheritance is needed.  Simply increase the count of
			messages (semaphores) available. */
			pxQueue->uxMessagesWaiting = uxMessagesWaiting + ( UBaseType_t ) 1;
 800729e:	69bb      	ldr	r3, [r7, #24]
 80072a0:	1c5a      	adds	r2, r3, #1
 80072a2:	6a3b      	ldr	r3, [r7, #32]
 80072a4:	639a      	str	r2, [r3, #56]	; 0x38

			/* The event list is not altered if the queue is locked.  This will
			be done when the queue is unlocked later. */
			if( cTxLock == queueUNLOCKED )
 80072a6:	f997 3017 	ldrsb.w	r3, [r7, #23]
 80072aa:	f1b3 3fff 	cmp.w	r3, #4294967295
 80072ae:	d112      	bne.n	80072d6 <xQueueGiveFromISR+0x7a>
						}
					}
				}
				#else /* configUSE_QUEUE_SETS */
				{
					if( listLIST_IS_EMPTY( &( pxQueue->xTasksWaitingToReceive ) ) == pdFALSE )
 80072b0:	6a3b      	ldr	r3, [r7, #32]
 80072b2:	6a5b      	ldr	r3, [r3, #36]	; 0x24
 80072b4:	2b00      	cmp	r3, #0
 80072b6:	d015      	beq.n	80072e4 <xQueueGiveFromISR+0x88>
					{
						if( xTaskRemoveFromEventList( &( pxQueue->xTasksWaitingToReceive ) ) != pdFALSE )
 80072b8:	6a3b      	ldr	r3, [r7, #32]
 80072ba:	3324      	adds	r3, #36	; 0x24
 80072bc:	4618      	mov	r0, r3
 80072be:	f000 ff65 	bl	800818c <xTaskRemoveFromEventList>
 80072c2:	4603      	mov	r3, r0
 80072c4:	2b00      	cmp	r3, #0
 80072c6:	d00d      	beq.n	80072e4 <xQueueGiveFromISR+0x88>
						{
							/* The task waiting has a higher priority so record that a
							context	switch is required. */
							if( pxHigherPriorityTaskWoken != NULL )
 80072c8:	683b      	ldr	r3, [r7, #0]
 80072ca:	2b00      	cmp	r3, #0
 80072cc:	d00a      	beq.n	80072e4 <xQueueGiveFromISR+0x88>
							{
								*pxHigherPriorityTaskWoken = pdTRUE;
 80072ce:	683b      	ldr	r3, [r7, #0]
 80072d0:	2201      	movs	r2, #1
 80072d2:	601a      	str	r2, [r3, #0]
 80072d4:	e006      	b.n	80072e4 <xQueueGiveFromISR+0x88>
			}
			else
			{
				/* Increment the lock count so the task that unlocks the queue
				knows that data was posted while it was locked. */
				pxQueue->cTxLock = ( int8_t ) ( cTxLock + 1 );
 80072d6:	7dfb      	ldrb	r3, [r7, #23]
 80072d8:	3301      	adds	r3, #1
 80072da:	b2db      	uxtb	r3, r3
 80072dc:	b25a      	sxtb	r2, r3
 80072de:	6a3b      	ldr	r3, [r7, #32]
 80072e0:	f883 2045 	strb.w	r2, [r3, #69]	; 0x45
			}

			xReturn = pdPASS;
 80072e4:	2301      	movs	r3, #1
 80072e6:	627b      	str	r3, [r7, #36]	; 0x24
 80072e8:	e001      	b.n	80072ee <xQueueGiveFromISR+0x92>
		}
		else
		{
			traceQUEUE_SEND_FROM_ISR_FAILED( pxQueue );
			xReturn = errQUEUE_FULL;
 80072ea:	2300      	movs	r3, #0
 80072ec:	627b      	str	r3, [r7, #36]	; 0x24
 80072ee:	69fb      	ldr	r3, [r7, #28]
 80072f0:	60bb      	str	r3, [r7, #8]
	__asm volatile
 80072f2:	68bb      	ldr	r3, [r7, #8]
 80072f4:	f383 8811 	msr	BASEPRI, r3
}
 80072f8:	bf00      	nop
		}
	}
	portCLEAR_INTERRUPT_MASK_FROM_ISR( uxSavedInterruptStatus );

	return xReturn;
 80072fa:	6a7b      	ldr	r3, [r7, #36]	; 0x24
}
 80072fc:	4618      	mov	r0, r3
 80072fe:	3728      	adds	r7, #40	; 0x28
 8007300:	46bd      	mov	sp, r7
 8007302:	bd80      	pop	{r7, pc}

08007304 <xQueueReceive>:
/*-----------------------------------------------------------*/

BaseType_t xQueueReceive( QueueHandle_t xQueue, void * const pvBuffer, TickType_t xTicksToWait )
{
 8007304:	b580      	push	{r7, lr}
 8007306:	b08a      	sub	sp, #40	; 0x28
 8007308:	af00      	add	r7, sp, #0
 800730a:	60f8      	str	r0, [r7, #12]
 800730c:	60b9      	str	r1, [r7, #8]
 800730e:	607a      	str	r2, [r7, #4]
BaseType_t xEntryTimeSet = pdFALSE;
 8007310:	2300      	movs	r3, #0
 8007312:	627b      	str	r3, [r7, #36]	; 0x24
TimeOut_t xTimeOut;
Queue_t * const pxQueue = ( Queue_t * ) xQueue;
 8007314:	68fb      	ldr	r3, [r7, #12]
 8007316:	623b      	str	r3, [r7, #32]
	statements within the function itself.  This is done in the interest
	of execution time efficiency. */

	for( ;; )
	{
		taskENTER_CRITICAL();
 8007318:	f001 fd9e 	bl	8008e58 <vPortEnterCritical>
		{
			const UBaseType_t uxMessagesWaiting = pxQueue->uxMessagesWaiting;
 800731c:	6a3b      	ldr	r3, [r7, #32]
 800731e:	6b9b      	ldr	r3, [r3, #56]	; 0x38
 8007320:	61fb      	str	r3, [r7, #28]

			/* Is there data in the queue now?  To be running the calling task
			must be the highest priority task wanting to access the queue. */
			if( uxMessagesWaiting > ( UBaseType_t ) 0 )
 8007322:	69fb      	ldr	r3, [r7, #28]
 8007324:	2b00      	cmp	r3, #0
 8007326:	d01f      	beq.n	8007368 <xQueueReceive+0x64>
			{
				/* Data available, remove one item. */
				prvCopyDataFromQueue( pxQueue, pvBuffer );
 8007328:	68b9      	ldr	r1, [r7, #8]
 800732a:	6a38      	ldr	r0, [r7, #32]
 800732c:	f000 fa79 	bl	8007822 <prvCopyDataFromQueue>
				traceQUEUE_RECEIVE( pxQueue );
				pxQueue->uxMessagesWaiting = uxMessagesWaiting - ( UBaseType_t ) 1;
 8007330:	69fb      	ldr	r3, [r7, #28]
 8007332:	1e5a      	subs	r2, r3, #1
 8007334:	6a3b      	ldr	r3, [r7, #32]
 8007336:	639a      	str	r2, [r3, #56]	; 0x38

				/* There is now space in the queue, were any tasks waiting to
				post to the queue?  If so, unblock the highest priority waiting
				task. */
				if( listLIST_IS_EMPTY( &( pxQueue->xTasksWaitingToSend ) ) == pdFALSE )
 8007338:	6a3b      	ldr	r3, [r7, #32]
 800733a:	691b      	ldr	r3, [r3, #16]
 800733c:	2b00      	cmp	r3, #0
 800733e:	d00f      	beq.n	8007360 <xQueueReceive+0x5c>
				{
					if( xTaskRemoveFromEventList( &( pxQueue->xTasksWaitingToSend ) ) != pdFALSE )
 8007340:	6a3b      	ldr	r3, [r7, #32]
 8007342:	3310      	adds	r3, #16
 8007344:	4618      	mov	r0, r3
 8007346:	f000 ff21 	bl	800818c <xTaskRemoveFromEventList>
 800734a:	4603      	mov	r3, r0
 800734c:	2b00      	cmp	r3, #0
 800734e:	d007      	beq.n	8007360 <xQueueReceive+0x5c>
					{
						queueYIELD_IF_USING_PREEMPTION();
 8007350:	4b3c      	ldr	r3, [pc, #240]	; (8007444 <xQueueReceive+0x140>)
 8007352:	f04f 5280 	mov.w	r2, #268435456	; 0x10000000
 8007356:	601a      	str	r2, [r3, #0]
 8007358:	f3bf 8f4f 	dsb	sy
 800735c:	f3bf 8f6f 	isb	sy
				else
				{
					mtCOVERAGE_TEST_MARKER();
				}

				taskEXIT_CRITICAL();
 8007360:	f001 fd94 	bl	8008e8c <vPortExitCritical>
				return pdPASS;
 8007364:	2301      	movs	r3, #1
 8007366:	e069      	b.n	800743c <xQueueReceive+0x138>
			}
			else
			{
				if( xTicksToWait == ( TickType_t ) 0 )
 8007368:	687b      	ldr	r3, [r7, #4]
 800736a:	2b00      	cmp	r3, #0
 800736c:	d103      	bne.n	8007376 <xQueueReceive+0x72>
				{
					/* The queue was empty and no block time is specified (or
					the block time has expired) so leave now. */
					taskEXIT_CRITICAL();
 800736e:	f001 fd8d 	bl	8008e8c <vPortExitCritical>
					traceQUEUE_RECEIVE_FAILED( pxQueue );
					return errQUEUE_EMPTY;
 8007372:	2300      	movs	r3, #0
 8007374:	e062      	b.n	800743c <xQueueReceive+0x138>
				}
				else if( xEntryTimeSet == pdFALSE )
 8007376:	6a7b      	ldr	r3, [r7, #36]	; 0x24
 8007378:	2b00      	cmp	r3, #0
 800737a:	d106      	bne.n	800738a <xQueueReceive+0x86>
				{
					/* The queue was empty and a block time was specified so
					configure the timeout structure. */
					vTaskInternalSetTimeOutState( &xTimeOut );
 800737c:	f107 0314 	add.w	r3, r7, #20
 8007380:	4618      	mov	r0, r3
 8007382:	f000 ff59 	bl	8008238 <vTaskInternalSetTimeOutState>
					xEntryTimeSet = pdTRUE;
 8007386:	2301      	movs	r3, #1
 8007388:	627b      	str	r3, [r7, #36]	; 0x24
					/* Entry time was already set. */
					mtCOVERAGE_TEST_MARKER();
				}
			}
		}
		taskEXIT_CRITICAL();
 800738a:	f001 fd7f 	bl	8008e8c <vPortExitCritical>

		/* Interrupts and other tasks can send to and receive from the queue
		now the critical section has been exited. */

		vTaskSuspendAll();
 800738e:	f000 fd23 	bl	8007dd8 <vTaskSuspendAll>
		prvLockQueue( pxQueue );
 8007392:	f001 fd61 	bl	8008e58 <vPortEnterCritical>
 8007396:	6a3b      	ldr	r3, [r7, #32]
 8007398:	f893 3044 	ldrb.w	r3, [r3, #68]	; 0x44
 800739c:	b25b      	sxtb	r3, r3
 800739e:	f1b3 3fff 	cmp.w	r3, #4294967295
 80073a2:	d103      	bne.n	80073ac <xQueueReceive+0xa8>
 80073a4:	6a3b      	ldr	r3, [r7, #32]
 80073a6:	2200      	movs	r2, #0
 80073a8:	f883 2044 	strb.w	r2, [r3, #68]	; 0x44
 80073ac:	6a3b      	ldr	r3, [r7, #32]
 80073ae:	f893 3045 	ldrb.w	r3, [r3, #69]	; 0x45
 80073b2:	b25b      	sxtb	r3, r3
 80073b4:	f1b3 3fff 	cmp.w	r3, #4294967295
 80073b8:	d103      	bne.n	80073c2 <xQueueReceive+0xbe>
 80073ba:	6a3b      	ldr	r3, [r7, #32]
 80073bc:	2200      	movs	r2, #0
 80073be:	f883 2045 	strb.w	r2, [r3, #69]	; 0x45
 80073c2:	f001 fd63 	bl	8008e8c <vPortExitCritical>

		/* Update the timeout state to see if it has expired yet. */
		if( xTaskCheckForTimeOut( &xTimeOut, &xTicksToWait ) == pdFALSE )
 80073c6:	1d3a      	adds	r2, r7, #4
 80073c8:	f107 0314 	add.w	r3, r7, #20
 80073cc:	4611      	mov	r1, r2
 80073ce:	4618      	mov	r0, r3
 80073d0:	f000 ff48 	bl	8008264 <xTaskCheckForTimeOut>
 80073d4:	4603      	mov	r3, r0
 80073d6:	2b00      	cmp	r3, #0
 80073d8:	d123      	bne.n	8007422 <xQueueReceive+0x11e>
		{
			/* The timeout has not expired.  If the queue is still empty place
			the task on the list of tasks waiting to receive from the queue. */
			if( prvIsQueueEmpty( pxQueue ) != pdFALSE )
 80073da:	6a38      	ldr	r0, [r7, #32]
 80073dc:	f000 fa99 	bl	8007912 <prvIsQueueEmpty>
 80073e0:	4603      	mov	r3, r0
 80073e2:	2b00      	cmp	r3, #0
 80073e4:	d017      	beq.n	8007416 <xQueueReceive+0x112>
			{
				traceBLOCKING_ON_QUEUE_RECEIVE( pxQueue );
				vTaskPlaceOnEventList( &( pxQueue->xTasksWaitingToReceive ), xTicksToWait );
 80073e6:	6a3b      	ldr	r3, [r7, #32]
 80073e8:	3324      	adds	r3, #36	; 0x24
 80073ea:	687a      	ldr	r2, [r7, #4]
 80073ec:	4611      	mov	r1, r2
 80073ee:	4618      	mov	r0, r3
 80073f0:	f000 fe98 	bl	8008124 <vTaskPlaceOnEventList>
				prvUnlockQueue( pxQueue );
 80073f4:	6a38      	ldr	r0, [r7, #32]
 80073f6:	f000 fa3a 	bl	800786e <prvUnlockQueue>
				if( xTaskResumeAll() == pdFALSE )
 80073fa:	f000 fcfb 	bl	8007df4 <xTaskResumeAll>
 80073fe:	4603      	mov	r3, r0
 8007400:	2b00      	cmp	r3, #0
 8007402:	d189      	bne.n	8007318 <xQueueReceive+0x14>
				{
					portYIELD_WITHIN_API();
 8007404:	4b0f      	ldr	r3, [pc, #60]	; (8007444 <xQueueReceive+0x140>)
 8007406:	f04f 5280 	mov.w	r2, #268435456	; 0x10000000
 800740a:	601a      	str	r2, [r3, #0]
 800740c:	f3bf 8f4f 	dsb	sy
 8007410:	f3bf 8f6f 	isb	sy
 8007414:	e780      	b.n	8007318 <xQueueReceive+0x14>
			}
			else
			{
				/* The queue contains data again.  Loop back to try and read the
				data. */
				prvUnlockQueue( pxQueue );
 8007416:	6a38      	ldr	r0, [r7, #32]
 8007418:	f000 fa29 	bl	800786e <prvUnlockQueue>
				( void ) xTaskResumeAll();
 800741c:	f000 fcea 	bl	8007df4 <xTaskResumeAll>
 8007420:	e77a      	b.n	8007318 <xQueueReceive+0x14>
		}
		else
		{
			/* Timed out.  If there is no data in the queue exit, otherwise loop
			back and attempt to read the data. */
			prvUnlockQueue( pxQueue );
 8007422:	6a38      	ldr	r0, [r7, #32]
 8007424:	f000 fa23 	bl	800786e <prvUnlockQueue>
			( void ) xTaskResumeAll();
 8007428:	f000 fce4 	bl	8007df4 <xTaskResumeAll>

			if( prvIsQueueEmpty( pxQueue ) != pdFALSE )
 800742c:	6a38      	ldr	r0, [r7, #32]
 800742e:	f000 fa70 	bl	8007912 <prvIsQueueEmpty>
 8007432:	4603      	mov	r3, r0
 8007434:	2b00      	cmp	r3, #0
 8007436:	f43f af6f 	beq.w	8007318 <xQueueReceive+0x14>
			{
				traceQUEUE_RECEIVE_FAILED( pxQueue );
				return errQUEUE_EMPTY;
 800743a:	2300      	movs	r3, #0
			{
				mtCOVERAGE_TEST_MARKER();
			}
		}
	}
}
 800743c:	4618      	mov	r0, r3
 800743e:	3728      	adds	r7, #40	; 0x28
 8007440:	46bd      	mov	sp, r7
 8007442:	bd80      	pop	{r7, pc}
 8007444:	e000ed04 	.word	0xe000ed04

08007448 <xQueueSemaphoreTake>:
/*-----------------------------------------------------------*/

BaseType_t xQueueSemaphoreTake( QueueHandle_t xQueue, TickType_t xTicksToWait )
{
 8007448:	b580      	push	{r7, lr}
 800744a:	b08a      	sub	sp, #40	; 0x28
 800744c:	af00      	add	r7, sp, #0
 800744e:	6078      	str	r0, [r7, #4]
 8007450:	6039      	str	r1, [r7, #0]
BaseType_t xEntryTimeSet = pdFALSE;
 8007452:	2300      	movs	r3, #0
 8007454:	627b      	str	r3, [r7, #36]	; 0x24
TimeOut_t xTimeOut;
Queue_t * const pxQueue = ( Queue_t * ) xQueue;
 8007456:	687b      	ldr	r3, [r7, #4]
 8007458:	61fb      	str	r3, [r7, #28]

#if( configUSE_MUTEXES == 1 )
	BaseType_t xInheritanceOccurred = pdFALSE;
 800745a:	2300      	movs	r3, #0
 800745c:	623b      	str	r3, [r7, #32]
	statements within the function itself.  This is done in the interest
	of execution time efficiency. */

	for( ;; )
	{
		taskENTER_CRITICAL();
 800745e:	f001 fcfb 	bl	8008e58 <vPortEnterCritical>
		{
			/* Semaphores are queues with an item size of 0, and where the
			number of messages in the queue is the semaphore's count value. */
			const UBaseType_t uxSemaphoreCount = pxQueue->uxMessagesWaiting;
 8007462:	69fb      	ldr	r3, [r7, #28]
 8007464:	6b9b      	ldr	r3, [r3, #56]	; 0x38
 8007466:	61bb      	str	r3, [r7, #24]

			/* Is there data in the queue now?  To be running the calling task
			must be the highest priority task wanting to access the queue. */
			if( uxSemaphoreCount > ( UBaseType_t ) 0 )
 8007468:	69bb      	ldr	r3, [r7, #24]
 800746a:	2b00      	cmp	r3, #0
 800746c:	d024      	beq.n	80074b8 <xQueueSemaphoreTake+0x70>
			{
				traceQUEUE_RECEIVE( pxQueue );

				/* Semaphores are queues with a data size of zero and where the
				messages waiting is the semaphore's count.  Reduce the count. */
				pxQueue->uxMessagesWaiting = uxSemaphoreCount - ( UBaseType_t ) 1;
 800746e:	69bb      	ldr	r3, [r7, #24]
 8007470:	1e5a      	subs	r2, r3, #1
 8007472:	69fb      	ldr	r3, [r7, #28]
 8007474:	639a      	str	r2, [r3, #56]	; 0x38

				#if ( configUSE_MUTEXES == 1 )
				{
					if( pxQueue->uxQueueType == queueQUEUE_IS_MUTEX )
 8007476:	69fb      	ldr	r3, [r7, #28]
 8007478:	681b      	ldr	r3, [r3, #0]
 800747a:	2b00      	cmp	r3, #0
 800747c:	d104      	bne.n	8007488 <xQueueSemaphoreTake+0x40>
					{
						/* Record the information required to implement
						priority inheritance should it become necessary. */
						pxQueue->pxMutexHolder = ( int8_t * ) pvTaskIncrementMutexHeldCount(); /*lint !e961 Cast is not redundant as TaskHandle_t is a typedef. */
 800747e:	f001 f949 	bl	8008714 <pvTaskIncrementMutexHeldCount>
 8007482:	4602      	mov	r2, r0
 8007484:	69fb      	ldr	r3, [r7, #28]
 8007486:	605a      	str	r2, [r3, #4]
				}
				#endif /* configUSE_MUTEXES */

				/* Check to see if other tasks are blocked waiting to give the
				semaphore, and if so, unblock the highest priority such task. */
				if( listLIST_IS_EMPTY( &( pxQueue->xTasksWaitingToSend ) ) == pdFALSE )
 8007488:	69fb      	ldr	r3, [r7, #28]
 800748a:	691b      	ldr	r3, [r3, #16]
 800748c:	2b00      	cmp	r3, #0
 800748e:	d00f      	beq.n	80074b0 <xQueueSemaphoreTake+0x68>
				{
					if( xTaskRemoveFromEventList( &( pxQueue->xTasksWaitingToSend ) ) != pdFALSE )
 8007490:	69fb      	ldr	r3, [r7, #28]
 8007492:	3310      	adds	r3, #16
 8007494:	4618      	mov	r0, r3
 8007496:	f000 fe79 	bl	800818c <xTaskRemoveFromEventList>
 800749a:	4603      	mov	r3, r0
 800749c:	2b00      	cmp	r3, #0
 800749e:	d007      	beq.n	80074b0 <xQueueSemaphoreTake+0x68>
					{
						queueYIELD_IF_USING_PREEMPTION();
 80074a0:	4b4c      	ldr	r3, [pc, #304]	; (80075d4 <xQueueSemaphoreTake+0x18c>)
 80074a2:	f04f 5280 	mov.w	r2, #268435456	; 0x10000000
 80074a6:	601a      	str	r2, [r3, #0]
 80074a8:	f3bf 8f4f 	dsb	sy
 80074ac:	f3bf 8f6f 	isb	sy
				else
				{
					mtCOVERAGE_TEST_MARKER();
				}

				taskEXIT_CRITICAL();
 80074b0:	f001 fcec 	bl	8008e8c <vPortExitCritical>
				return pdPASS;
 80074b4:	2301      	movs	r3, #1
 80074b6:	e089      	b.n	80075cc <xQueueSemaphoreTake+0x184>
			}
			else
			{
				if( xTicksToWait == ( TickType_t ) 0 )
 80074b8:	683b      	ldr	r3, [r7, #0]
 80074ba:	2b00      	cmp	r3, #0
 80074bc:	d103      	bne.n	80074c6 <xQueueSemaphoreTake+0x7e>
					}
					#endif /* configUSE_MUTEXES */

					/* The semaphore count was 0 and no block time is specified
					(or the block time has expired) so exit now. */
					taskEXIT_CRITICAL();
 80074be:	f001 fce5 	bl	8008e8c <vPortExitCritical>
					traceQUEUE_RECEIVE_FAILED( pxQueue );
					return errQUEUE_EMPTY;
 80074c2:	2300      	movs	r3, #0
 80074c4:	e082      	b.n	80075cc <xQueueSemaphoreTake+0x184>
				}
				else if( xEntryTimeSet == pdFALSE )
 80074c6:	6a7b      	ldr	r3, [r7, #36]	; 0x24
 80074c8:	2b00      	cmp	r3, #0
 80074ca:	d106      	bne.n	80074da <xQueueSemaphoreTake+0x92>
				{
					/* The semaphore count was 0 and a block time was specified
					so configure the timeout structure ready to block. */
					vTaskInternalSetTimeOutState( &xTimeOut );
 80074cc:	f107 030c 	add.w	r3, r7, #12
 80074d0:	4618      	mov	r0, r3
 80074d2:	f000 feb1 	bl	8008238 <vTaskInternalSetTimeOutState>
					xEntryTimeSet = pdTRUE;
 80074d6:	2301      	movs	r3, #1
 80074d8:	627b      	str	r3, [r7, #36]	; 0x24
					/* Entry time was already set. */
					mtCOVERAGE_TEST_MARKER();
				}
			}
		}
		taskEXIT_CRITICAL();
 80074da:	f001 fcd7 	bl	8008e8c <vPortExitCritical>

		/* Interrupts and other tasks can give to and take from the semaphore
		now the critical section has been exited. */

		vTaskSuspendAll();
 80074de:	f000 fc7b 	bl	8007dd8 <vTaskSuspendAll>
		prvLockQueue( pxQueue );
 80074e2:	f001 fcb9 	bl	8008e58 <vPortEnterCritical>
 80074e6:	69fb      	ldr	r3, [r7, #28]
 80074e8:	f893 3044 	ldrb.w	r3, [r3, #68]	; 0x44
 80074ec:	b25b      	sxtb	r3, r3
 80074ee:	f1b3 3fff 	cmp.w	r3, #4294967295
 80074f2:	d103      	bne.n	80074fc <xQueueSemaphoreTake+0xb4>
 80074f4:	69fb      	ldr	r3, [r7, #28]
 80074f6:	2200      	movs	r2, #0
 80074f8:	f883 2044 	strb.w	r2, [r3, #68]	; 0x44
 80074fc:	69fb      	ldr	r3, [r7, #28]
 80074fe:	f893 3045 	ldrb.w	r3, [r3, #69]	; 0x45
 8007502:	b25b      	sxtb	r3, r3
 8007504:	f1b3 3fff 	cmp.w	r3, #4294967295
 8007508:	d103      	bne.n	8007512 <xQueueSemaphoreTake+0xca>
 800750a:	69fb      	ldr	r3, [r7, #28]
 800750c:	2200      	movs	r2, #0
 800750e:	f883 2045 	strb.w	r2, [r3, #69]	; 0x45
 8007512:	f001 fcbb 	bl	8008e8c <vPortExitCritical>

		/* Update the timeout state to see if it has expired yet. */
		if( xTaskCheckForTimeOut( &xTimeOut, &xTicksToWait ) == pdFALSE )
 8007516:	463a      	mov	r2, r7
 8007518:	f107 030c 	add.w	r3, r7, #12
 800751c:	4611      	mov	r1, r2
 800751e:	4618      	mov	r0, r3
 8007520:	f000 fea0 	bl	8008264 <xTaskCheckForTimeOut>
 8007524:	4603      	mov	r3, r0
 8007526:	2b00      	cmp	r3, #0
 8007528:	d132      	bne.n	8007590 <xQueueSemaphoreTake+0x148>
		{
			/* A block time is specified and not expired.  If the semaphore
			count is 0 then enter the Blocked state to wait for a semaphore to
			become available.  As semaphores are implemented with queues the
			queue being empty is equivalent to the semaphore count being 0. */
			if( prvIsQueueEmpty( pxQueue ) != pdFALSE )
 800752a:	69f8      	ldr	r0, [r7, #28]
 800752c:	f000 f9f1 	bl	8007912 <prvIsQueueEmpty>
 8007530:	4603      	mov	r3, r0
 8007532:	2b00      	cmp	r3, #0
 8007534:	d026      	beq.n	8007584 <xQueueSemaphoreTake+0x13c>
			{
				traceBLOCKING_ON_QUEUE_RECEIVE( pxQueue );

				#if ( configUSE_MUTEXES == 1 )
				{
					if( pxQueue->uxQueueType == queueQUEUE_IS_MUTEX )
 8007536:	69fb      	ldr	r3, [r7, #28]
 8007538:	681b      	ldr	r3, [r3, #0]
 800753a:	2b00      	cmp	r3, #0
 800753c:	d109      	bne.n	8007552 <xQueueSemaphoreTake+0x10a>
					{
						taskENTER_CRITICAL();
 800753e:	f001 fc8b 	bl	8008e58 <vPortEnterCritical>
						{
							xInheritanceOccurred = xTaskPriorityInherit( ( void * ) pxQueue->pxMutexHolder );
 8007542:	69fb      	ldr	r3, [r7, #28]
 8007544:	685b      	ldr	r3, [r3, #4]
 8007546:	4618      	mov	r0, r3
 8007548:	f000 ffc4 	bl	80084d4 <xTaskPriorityInherit>
 800754c:	6238      	str	r0, [r7, #32]
						}
						taskEXIT_CRITICAL();
 800754e:	f001 fc9d 	bl	8008e8c <vPortExitCritical>
						mtCOVERAGE_TEST_MARKER();
					}
				}
				#endif

				vTaskPlaceOnEventList( &( pxQueue->xTasksWaitingToReceive ), xTicksToWait );
 8007552:	69fb      	ldr	r3, [r7, #28]
 8007554:	3324      	adds	r3, #36	; 0x24
 8007556:	683a      	ldr	r2, [r7, #0]
 8007558:	4611      	mov	r1, r2
 800755a:	4618      	mov	r0, r3
 800755c:	f000 fde2 	bl	8008124 <vTaskPlaceOnEventList>
				prvUnlockQueue( pxQueue );
 8007560:	69f8      	ldr	r0, [r7, #28]
 8007562:	f000 f984 	bl	800786e <prvUnlockQueue>
				if( xTaskResumeAll() == pdFALSE )
 8007566:	f000 fc45 	bl	8007df4 <xTaskResumeAll>
 800756a:	4603      	mov	r3, r0
 800756c:	2b00      	cmp	r3, #0
 800756e:	f47f af76 	bne.w	800745e <xQueueSemaphoreTake+0x16>
				{
					portYIELD_WITHIN_API();
 8007572:	4b18      	ldr	r3, [pc, #96]	; (80075d4 <xQueueSemaphoreTake+0x18c>)
 8007574:	f04f 5280 	mov.w	r2, #268435456	; 0x10000000
 8007578:	601a      	str	r2, [r3, #0]
 800757a:	f3bf 8f4f 	dsb	sy
 800757e:	f3bf 8f6f 	isb	sy
 8007582:	e76c      	b.n	800745e <xQueueSemaphoreTake+0x16>
			}
			else
			{
				/* There was no timeout and the semaphore count was not 0, so
				attempt to take the semaphore again. */
				prvUnlockQueue( pxQueue );
 8007584:	69f8      	ldr	r0, [r7, #28]
 8007586:	f000 f972 	bl	800786e <prvUnlockQueue>
				( void ) xTaskResumeAll();
 800758a:	f000 fc33 	bl	8007df4 <xTaskResumeAll>
 800758e:	e766      	b.n	800745e <xQueueSemaphoreTake+0x16>
			}
		}
		else
		{
			/* Timed out. */
			prvUnlockQueue( pxQueue );
 8007590:	69f8      	ldr	r0, [r7, #28]
 8007592:	f000 f96c 	bl	800786e <prvUnlockQueue>
			( void ) xTaskResumeAll();
 8007596:	f000 fc2d 	bl	8007df4 <xTaskResumeAll>

			/* If the semaphore count is 0 exit now as the timeout has
			expired.  Otherwise return to attempt to take the semaphore that is
			known to be available.  As semaphores are implemented by queues the
			queue being empty is equivalent to the semaphore count being 0. */
			if( prvIsQueueEmpty( pxQueue ) != pdFALSE )
 800759a:	69f8      	ldr	r0, [r7, #28]
 800759c:	f000 f9b9 	bl	8007912 <prvIsQueueEmpty>
 80075a0:	4603      	mov	r3, r0
 80075a2:	2b00      	cmp	r3, #0
 80075a4:	f43f af5b 	beq.w	800745e <xQueueSemaphoreTake+0x16>
				#if ( configUSE_MUTEXES == 1 )
				{
					/* xInheritanceOccurred could only have be set if
					pxQueue->uxQueueType == queueQUEUE_IS_MUTEX so no need to
					test the mutex type again to check it is actually a mutex. */
					if( xInheritanceOccurred != pdFALSE )
 80075a8:	6a3b      	ldr	r3, [r7, #32]
 80075aa:	2b00      	cmp	r3, #0
 80075ac:	d00d      	beq.n	80075ca <xQueueSemaphoreTake+0x182>
					{
						taskENTER_CRITICAL();
 80075ae:	f001 fc53 	bl	8008e58 <vPortEnterCritical>
							/* This task blocking on the mutex caused another
							task to inherit this task's priority.  Now this task
							has timed out the priority should be disinherited
							again, but only as low as the next highest priority
							task that is waiting for the same mutex. */
							uxHighestWaitingPriority = prvGetDisinheritPriorityAfterTimeout( pxQueue );
 80075b2:	69f8      	ldr	r0, [r7, #28]
 80075b4:	f000 f8b4 	bl	8007720 <prvGetDisinheritPriorityAfterTimeout>
 80075b8:	6178      	str	r0, [r7, #20]
							vTaskPriorityDisinheritAfterTimeout( ( void * ) pxQueue->pxMutexHolder, uxHighestWaitingPriority );
 80075ba:	69fb      	ldr	r3, [r7, #28]
 80075bc:	685b      	ldr	r3, [r3, #4]
 80075be:	6979      	ldr	r1, [r7, #20]
 80075c0:	4618      	mov	r0, r3
 80075c2:	f001 f841 	bl	8008648 <vTaskPriorityDisinheritAfterTimeout>
						}
						taskEXIT_CRITICAL();
 80075c6:	f001 fc61 	bl	8008e8c <vPortExitCritical>
					}
				}
				#endif /* configUSE_MUTEXES */

				traceQUEUE_RECEIVE_FAILED( pxQueue );
				return errQUEUE_EMPTY;
 80075ca:	2300      	movs	r3, #0
			{
				mtCOVERAGE_TEST_MARKER();
			}
		}
	}
}
 80075cc:	4618      	mov	r0, r3
 80075ce:	3728      	adds	r7, #40	; 0x28
 80075d0:	46bd      	mov	sp, r7
 80075d2:	bd80      	pop	{r7, pc}
 80075d4:	e000ed04 	.word	0xe000ed04

080075d8 <xQueuePeek>:
/*-----------------------------------------------------------*/

BaseType_t xQueuePeek( QueueHandle_t xQueue, void * const pvBuffer, TickType_t xTicksToWait )
{
 80075d8:	b580      	push	{r7, lr}
 80075da:	b08a      	sub	sp, #40	; 0x28
 80075dc:	af00      	add	r7, sp, #0
 80075de:	60f8      	str	r0, [r7, #12]
 80075e0:	60b9      	str	r1, [r7, #8]
 80075e2:	607a      	str	r2, [r7, #4]
BaseType_t xEntryTimeSet = pdFALSE;
 80075e4:	2300      	movs	r3, #0
 80075e6:	627b      	str	r3, [r7, #36]	; 0x24
TimeOut_t xTimeOut;
int8_t *pcOriginalReadPosition;
Queue_t * const pxQueue = ( Queue_t * ) xQueue;
 80075e8:	68fb      	ldr	r3, [r7, #12]
 80075ea:	623b      	str	r3, [r7, #32]
	statements within the function itself.  This is done in the interest
	of execution time efficiency. */

	for( ;; )
	{
		taskENTER_CRITICAL();
 80075ec:	f001 fc34 	bl	8008e58 <vPortEnterCritical>
		{
			const UBaseType_t uxMessagesWaiting = pxQueue->uxMessagesWaiting;
 80075f0:	6a3b      	ldr	r3, [r7, #32]
 80075f2:	6b9b      	ldr	r3, [r3, #56]	; 0x38
 80075f4:	61fb      	str	r3, [r7, #28]

			/* Is there data in the queue now?  To be running the calling task
			must be the highest priority task wanting to access the queue. */
			if( uxMessagesWaiting > ( UBaseType_t ) 0 )
 80075f6:	69fb      	ldr	r3, [r7, #28]
 80075f8:	2b00      	cmp	r3, #0
 80075fa:	d021      	beq.n	8007640 <xQueuePeek+0x68>
			{
				/* Remember the read position so it can be reset after the data
				is read from the queue as this function is only peeking the
				data, not removing it. */
				pcOriginalReadPosition = pxQueue->u.pcReadFrom;
 80075fc:	6a3b      	ldr	r3, [r7, #32]
 80075fe:	68db      	ldr	r3, [r3, #12]
 8007600:	61bb      	str	r3, [r7, #24]

				prvCopyDataFromQueue( pxQueue, pvBuffer );
 8007602:	68b9      	ldr	r1, [r7, #8]
 8007604:	6a38      	ldr	r0, [r7, #32]
 8007606:	f000 f90c 	bl	8007822 <prvCopyDataFromQueue>
				traceQUEUE_PEEK( pxQueue );

				/* The data is not being removed, so reset the read pointer. */
				pxQueue->u.pcReadFrom = pcOriginalReadPosition;
 800760a:	6a3b      	ldr	r3, [r7, #32]
 800760c:	69ba      	ldr	r2, [r7, #24]
 800760e:	60da      	str	r2, [r3, #12]

				/* The data is being left in the queue, so see if there are
				any other tasks waiting for the data. */
				if( listLIST_IS_EMPTY( &( pxQueue->xTasksWaitingToReceive ) ) == pdFALSE )
 8007610:	6a3b      	ldr	r3, [r7, #32]
 8007612:	6a5b      	ldr	r3, [r3, #36]	; 0x24
 8007614:	2b00      	cmp	r3, #0
 8007616:	d00f      	beq.n	8007638 <xQueuePeek+0x60>
				{
					if( xTaskRemoveFromEventList( &( pxQueue->xTasksWaitingToReceive ) ) != pdFALSE )
 8007618:	6a3b      	ldr	r3, [r7, #32]
 800761a:	3324      	adds	r3, #36	; 0x24
 800761c:	4618      	mov	r0, r3
 800761e:	f000 fdb5 	bl	800818c <xTaskRemoveFromEventList>
 8007622:	4603      	mov	r3, r0
 8007624:	2b00      	cmp	r3, #0
 8007626:	d007      	beq.n	8007638 <xQueuePeek+0x60>
					{
						/* The task waiting has a higher priority than this task. */
						queueYIELD_IF_USING_PREEMPTION();
 8007628:	4b3c      	ldr	r3, [pc, #240]	; (800771c <xQueuePeek+0x144>)
 800762a:	f04f 5280 	mov.w	r2, #268435456	; 0x10000000
 800762e:	601a      	str	r2, [r3, #0]
 8007630:	f3bf 8f4f 	dsb	sy
 8007634:	f3bf 8f6f 	isb	sy
				else
				{
					mtCOVERAGE_TEST_MARKER();
				}

				taskEXIT_CRITICAL();
 8007638:	f001 fc28 	bl	8008e8c <vPortExitCritical>
				return pdPASS;
 800763c:	2301      	movs	r3, #1
 800763e:	e069      	b.n	8007714 <xQueuePeek+0x13c>
			}
			else
			{
				if( xTicksToWait == ( TickType_t ) 0 )
 8007640:	687b      	ldr	r3, [r7, #4]
 8007642:	2b00      	cmp	r3, #0
 8007644:	d103      	bne.n	800764e <xQueuePeek+0x76>
				{
					/* The queue was empty and no block time is specified (or
					the block time has expired) so leave now. */
					taskEXIT_CRITICAL();
 8007646:	f001 fc21 	bl	8008e8c <vPortExitCritical>
					traceQUEUE_PEEK_FAILED( pxQueue );
					return errQUEUE_EMPTY;
 800764a:	2300      	movs	r3, #0
 800764c:	e062      	b.n	8007714 <xQueuePeek+0x13c>
				}
				else if( xEntryTimeSet == pdFALSE )
 800764e:	6a7b      	ldr	r3, [r7, #36]	; 0x24
 8007650:	2b00      	cmp	r3, #0
 8007652:	d106      	bne.n	8007662 <xQueuePeek+0x8a>
				{
					/* The queue was empty and a block time was specified so
					configure the timeout structure ready to enter the blocked
					state. */
					vTaskInternalSetTimeOutState( &xTimeOut );
 8007654:	f107 0310 	add.w	r3, r7, #16
 8007658:	4618      	mov	r0, r3
 800765a:	f000 fded 	bl	8008238 <vTaskInternalSetTimeOutState>
					xEntryTimeSet = pdTRUE;
 800765e:	2301      	movs	r3, #1
 8007660:	627b      	str	r3, [r7, #36]	; 0x24
					/* Entry time was already set. */
					mtCOVERAGE_TEST_MARKER();
				}
			}
		}
		taskEXIT_CRITICAL();
 8007662:	f001 fc13 	bl	8008e8c <vPortExitCritical>

		/* Interrupts and other tasks can send to and receive from the queue
		now the critical section has been exited. */

		vTaskSuspendAll();
 8007666:	f000 fbb7 	bl	8007dd8 <vTaskSuspendAll>
		prvLockQueue( pxQueue );
 800766a:	f001 fbf5 	bl	8008e58 <vPortEnterCritical>
 800766e:	6a3b      	ldr	r3, [r7, #32]
 8007670:	f893 3044 	ldrb.w	r3, [r3, #68]	; 0x44
 8007674:	b25b      	sxtb	r3, r3
 8007676:	f1b3 3fff 	cmp.w	r3, #4294967295
 800767a:	d103      	bne.n	8007684 <xQueuePeek+0xac>
 800767c:	6a3b      	ldr	r3, [r7, #32]
 800767e:	2200      	movs	r2, #0
 8007680:	f883 2044 	strb.w	r2, [r3, #68]	; 0x44
 8007684:	6a3b      	ldr	r3, [r7, #32]
 8007686:	f893 3045 	ldrb.w	r3, [r3, #69]	; 0x45
 800768a:	b25b      	sxtb	r3, r3
 800768c:	f1b3 3fff 	cmp.w	r3, #4294967295
 8007690:	d103      	bne.n	800769a <xQueuePeek+0xc2>
 8007692:	6a3b      	ldr	r3, [r7, #32]
 8007694:	2200      	movs	r2, #0
 8007696:	f883 2045 	strb.w	r2, [r3, #69]	; 0x45
 800769a:	f001 fbf7 	bl	8008e8c <vPortExitCritical>

		/* Update the timeout state to see if it has expired yet. */
		if( xTaskCheckForTimeOut( &xTimeOut, &xTicksToWait ) == pdFALSE )
 800769e:	1d3a      	adds	r2, r7, #4
 80076a0:	f107 0310 	add.w	r3, r7, #16
 80076a4:	4611      	mov	r1, r2
 80076a6:	4618      	mov	r0, r3
 80076a8:	f000 fddc 	bl	8008264 <xTaskCheckForTimeOut>
 80076ac:	4603      	mov	r3, r0
 80076ae:	2b00      	cmp	r3, #0
 80076b0:	d123      	bne.n	80076fa <xQueuePeek+0x122>
		{
			/* Timeout has not expired yet, check to see if there is data in the
			queue now, and if not enter the Blocked state to wait for data. */
			if( prvIsQueueEmpty( pxQueue ) != pdFALSE )
 80076b2:	6a38      	ldr	r0, [r7, #32]
 80076b4:	f000 f92d 	bl	8007912 <prvIsQueueEmpty>
 80076b8:	4603      	mov	r3, r0
 80076ba:	2b00      	cmp	r3, #0
 80076bc:	d017      	beq.n	80076ee <xQueuePeek+0x116>
			{
				traceBLOCKING_ON_QUEUE_PEEK( pxQueue );
				vTaskPlaceOnEventList( &( pxQueue->xTasksWaitingToReceive ), xTicksToWait );
 80076be:	6a3b      	ldr	r3, [r7, #32]
 80076c0:	3324      	adds	r3, #36	; 0x24
 80076c2:	687a      	ldr	r2, [r7, #4]
 80076c4:	4611      	mov	r1, r2
 80076c6:	4618      	mov	r0, r3
 80076c8:	f000 fd2c 	bl	8008124 <vTaskPlaceOnEventList>
				prvUnlockQueue( pxQueue );
 80076cc:	6a38      	ldr	r0, [r7, #32]
 80076ce:	f000 f8ce 	bl	800786e <prvUnlockQueue>
				if( xTaskResumeAll() == pdFALSE )
 80076d2:	f000 fb8f 	bl	8007df4 <xTaskResumeAll>
 80076d6:	4603      	mov	r3, r0
 80076d8:	2b00      	cmp	r3, #0
 80076da:	d187      	bne.n	80075ec <xQueuePeek+0x14>
				{
					portYIELD_WITHIN_API();
 80076dc:	4b0f      	ldr	r3, [pc, #60]	; (800771c <xQueuePeek+0x144>)
 80076de:	f04f 5280 	mov.w	r2, #268435456	; 0x10000000
 80076e2:	601a      	str	r2, [r3, #0]
 80076e4:	f3bf 8f4f 	dsb	sy
 80076e8:	f3bf 8f6f 	isb	sy
 80076ec:	e77e      	b.n	80075ec <xQueuePeek+0x14>
			}
			else
			{
				/* There is data in the queue now, so don't enter the blocked
				state, instead return to try and obtain the data. */
				prvUnlockQueue( pxQueue );
 80076ee:	6a38      	ldr	r0, [r7, #32]
 80076f0:	f000 f8bd 	bl	800786e <prvUnlockQueue>
				( void ) xTaskResumeAll();
 80076f4:	f000 fb7e 	bl	8007df4 <xTaskResumeAll>
 80076f8:	e778      	b.n	80075ec <xQueuePeek+0x14>
		}
		else
		{
			/* The timeout has expired.  If there is still no data in the queue
			exit, otherwise go back and try to read the data again. */
			prvUnlockQueue( pxQueue );
 80076fa:	6a38      	ldr	r0, [r7, #32]
 80076fc:	f000 f8b7 	bl	800786e <prvUnlockQueue>
			( void ) xTaskResumeAll();
 8007700:	f000 fb78 	bl	8007df4 <xTaskResumeAll>

			if( prvIsQueueEmpty( pxQueue ) != pdFALSE )
 8007704:	6a38      	ldr	r0, [r7, #32]
 8007706:	f000 f904 	bl	8007912 <prvIsQueueEmpty>
 800770a:	4603      	mov	r3, r0
 800770c:	2b00      	cmp	r3, #0
 800770e:	f43f af6d 	beq.w	80075ec <xQueuePeek+0x14>
			{
				traceQUEUE_PEEK_FAILED( pxQueue );
				return errQUEUE_EMPTY;
 8007712:	2300      	movs	r3, #0
			{
				mtCOVERAGE_TEST_MARKER();
			}
		}
	}
}
 8007714:	4618      	mov	r0, r3
 8007716:	3728      	adds	r7, #40	; 0x28
 8007718:	46bd      	mov	sp, r7
 800771a:	bd80      	pop	{r7, pc}
 800771c:	e000ed04 	.word	0xe000ed04

08007720 <prvGetDisinheritPriorityAfterTimeout>:
/*-----------------------------------------------------------*/

#if( configUSE_MUTEXES == 1 )

	static UBaseType_t prvGetDisinheritPriorityAfterTimeout( const Queue_t * const pxQueue )
	{
 8007720:	b480      	push	{r7}
 8007722:	b085      	sub	sp, #20
 8007724:	af00      	add	r7, sp, #0
 8007726:	6078      	str	r0, [r7, #4]
		priority, but the waiting task times out, then the holder should
		disinherit the priority - but only down to the highest priority of any
		other tasks that are waiting for the same mutex.  For this purpose,
		return the priority of the highest priority task that is waiting for the
		mutex. */
		if( listCURRENT_LIST_LENGTH( &( pxQueue->xTasksWaitingToReceive ) ) > 0 )
 8007728:	687b      	ldr	r3, [r7, #4]
 800772a:	6a5b      	ldr	r3, [r3, #36]	; 0x24
 800772c:	2b00      	cmp	r3, #0
 800772e:	d006      	beq.n	800773e <prvGetDisinheritPriorityAfterTimeout+0x1e>
		{
			uxHighestPriorityOfWaitingTasks = configMAX_PRIORITIES - listGET_ITEM_VALUE_OF_HEAD_ENTRY( &( pxQueue->xTasksWaitingToReceive ) );
 8007730:	687b      	ldr	r3, [r7, #4]
 8007732:	6b1b      	ldr	r3, [r3, #48]	; 0x30
 8007734:	681b      	ldr	r3, [r3, #0]
 8007736:	f1c3 0338 	rsb	r3, r3, #56	; 0x38
 800773a:	60fb      	str	r3, [r7, #12]
 800773c:	e001      	b.n	8007742 <prvGetDisinheritPriorityAfterTimeout+0x22>
		}
		else
		{
			uxHighestPriorityOfWaitingTasks = tskIDLE_PRIORITY;
 800773e:	2300      	movs	r3, #0
 8007740:	60fb      	str	r3, [r7, #12]
		}

		return uxHighestPriorityOfWaitingTasks;
 8007742:	68fb      	ldr	r3, [r7, #12]
	}
 8007744:	4618      	mov	r0, r3
 8007746:	3714      	adds	r7, #20
 8007748:	46bd      	mov	sp, r7
 800774a:	bc80      	pop	{r7}
 800774c:	4770      	bx	lr

0800774e <prvCopyDataToQueue>:

#endif /* configUSE_MUTEXES */
/*-----------------------------------------------------------*/

static BaseType_t prvCopyDataToQueue( Queue_t * const pxQueue, const void *pvItemToQueue, const BaseType_t xPosition )
{
 800774e:	b580      	push	{r7, lr}
 8007750:	b086      	sub	sp, #24
 8007752:	af00      	add	r7, sp, #0
 8007754:	60f8      	str	r0, [r7, #12]
 8007756:	60b9      	str	r1, [r7, #8]
 8007758:	607a      	str	r2, [r7, #4]
BaseType_t xReturn = pdFALSE;
 800775a:	2300      	movs	r3, #0
 800775c:	617b      	str	r3, [r7, #20]
UBaseType_t uxMessagesWaiting;

	/* This function is called from a critical section. */

	uxMessagesWaiting = pxQueue->uxMessagesWaiting;
 800775e:	68fb      	ldr	r3, [r7, #12]
 8007760:	6b9b      	ldr	r3, [r3, #56]	; 0x38
 8007762:	613b      	str	r3, [r7, #16]

	if( pxQueue->uxItemSize == ( UBaseType_t ) 0 )
 8007764:	68fb      	ldr	r3, [r7, #12]
 8007766:	6c1b      	ldr	r3, [r3, #64]	; 0x40
 8007768:	2b00      	cmp	r3, #0
 800776a:	d10d      	bne.n	8007788 <prvCopyDataToQueue+0x3a>
	{
		#if ( configUSE_MUTEXES == 1 )
		{
			if( pxQueue->uxQueueType == queueQUEUE_IS_MUTEX )
 800776c:	68fb      	ldr	r3, [r7, #12]
 800776e:	681b      	ldr	r3, [r3, #0]
 8007770:	2b00      	cmp	r3, #0
 8007772:	d14d      	bne.n	8007810 <prvCopyDataToQueue+0xc2>
			{
				/* The mutex is no longer being held. */
				xReturn = xTaskPriorityDisinherit( ( void * ) pxQueue->pxMutexHolder );
 8007774:	68fb      	ldr	r3, [r7, #12]
 8007776:	685b      	ldr	r3, [r3, #4]
 8007778:	4618      	mov	r0, r3
 800777a:	f000 ff19 	bl	80085b0 <xTaskPriorityDisinherit>
 800777e:	6178      	str	r0, [r7, #20]
				pxQueue->pxMutexHolder = NULL;
 8007780:	68fb      	ldr	r3, [r7, #12]
 8007782:	2200      	movs	r2, #0
 8007784:	605a      	str	r2, [r3, #4]
 8007786:	e043      	b.n	8007810 <prvCopyDataToQueue+0xc2>
				mtCOVERAGE_TEST_MARKER();
			}
		}
		#endif /* configUSE_MUTEXES */
	}
	else if( xPosition == queueSEND_TO_BACK )
 8007788:	687b      	ldr	r3, [r7, #4]
 800778a:	2b00      	cmp	r3, #0
 800778c:	d119      	bne.n	80077c2 <prvCopyDataToQueue+0x74>
	{
		( void ) memcpy( ( void * ) pxQueue->pcWriteTo, pvItemToQueue, ( size_t ) pxQueue->uxItemSize ); /*lint !e961 !e418 MISRA exception as the casts are only redundant for some ports, plus previous logic ensures a null pointer can only be passed to memcpy() if the copy size is 0. */
 800778e:	68fb      	ldr	r3, [r7, #12]
 8007790:	6898      	ldr	r0, [r3, #8]
 8007792:	68fb      	ldr	r3, [r7, #12]
 8007794:	6c1b      	ldr	r3, [r3, #64]	; 0x40
 8007796:	461a      	mov	r2, r3
 8007798:	68b9      	ldr	r1, [r7, #8]
 800779a:	f001 fda5 	bl	80092e8 <memcpy>
		pxQueue->pcWriteTo += pxQueue->uxItemSize;
 800779e:	68fb      	ldr	r3, [r7, #12]
 80077a0:	689a      	ldr	r2, [r3, #8]
 80077a2:	68fb      	ldr	r3, [r7, #12]
 80077a4:	6c1b      	ldr	r3, [r3, #64]	; 0x40
 80077a6:	441a      	add	r2, r3
 80077a8:	68fb      	ldr	r3, [r7, #12]
 80077aa:	609a      	str	r2, [r3, #8]
		if( pxQueue->pcWriteTo >= pxQueue->pcTail ) /*lint !e946 MISRA exception justified as comparison of pointers is the cleanest solution. */
 80077ac:	68fb      	ldr	r3, [r7, #12]
 80077ae:	689a      	ldr	r2, [r3, #8]
 80077b0:	68fb      	ldr	r3, [r7, #12]
 80077b2:	685b      	ldr	r3, [r3, #4]
 80077b4:	429a      	cmp	r2, r3
 80077b6:	d32b      	bcc.n	8007810 <prvCopyDataToQueue+0xc2>
		{
			pxQueue->pcWriteTo = pxQueue->pcHead;
 80077b8:	68fb      	ldr	r3, [r7, #12]
 80077ba:	681a      	ldr	r2, [r3, #0]
 80077bc:	68fb      	ldr	r3, [r7, #12]
 80077be:	609a      	str	r2, [r3, #8]
 80077c0:	e026      	b.n	8007810 <prvCopyDataToQueue+0xc2>
			mtCOVERAGE_TEST_MARKER();
		}
	}
	else
	{
		( void ) memcpy( ( void * ) pxQueue->u.pcReadFrom, pvItemToQueue, ( size_t ) pxQueue->uxItemSize ); /*lint !e961 MISRA exception as the casts are only redundant for some ports. */
 80077c2:	68fb      	ldr	r3, [r7, #12]
 80077c4:	68d8      	ldr	r0, [r3, #12]
 80077c6:	68fb      	ldr	r3, [r7, #12]
 80077c8:	6c1b      	ldr	r3, [r3, #64]	; 0x40
 80077ca:	461a      	mov	r2, r3
 80077cc:	68b9      	ldr	r1, [r7, #8]
 80077ce:	f001 fd8b 	bl	80092e8 <memcpy>
		pxQueue->u.pcReadFrom -= pxQueue->uxItemSize;
 80077d2:	68fb      	ldr	r3, [r7, #12]
 80077d4:	68da      	ldr	r2, [r3, #12]
 80077d6:	68fb      	ldr	r3, [r7, #12]
 80077d8:	6c1b      	ldr	r3, [r3, #64]	; 0x40
 80077da:	425b      	negs	r3, r3
 80077dc:	441a      	add	r2, r3
 80077de:	68fb      	ldr	r3, [r7, #12]
 80077e0:	60da      	str	r2, [r3, #12]
		if( pxQueue->u.pcReadFrom < pxQueue->pcHead ) /*lint !e946 MISRA exception justified as comparison of pointers is the cleanest solution. */
 80077e2:	68fb      	ldr	r3, [r7, #12]
 80077e4:	68da      	ldr	r2, [r3, #12]
 80077e6:	68fb      	ldr	r3, [r7, #12]
 80077e8:	681b      	ldr	r3, [r3, #0]
 80077ea:	429a      	cmp	r2, r3
 80077ec:	d207      	bcs.n	80077fe <prvCopyDataToQueue+0xb0>
		{
			pxQueue->u.pcReadFrom = ( pxQueue->pcTail - pxQueue->uxItemSize );
 80077ee:	68fb      	ldr	r3, [r7, #12]
 80077f0:	685a      	ldr	r2, [r3, #4]
 80077f2:	68fb      	ldr	r3, [r7, #12]
 80077f4:	6c1b      	ldr	r3, [r3, #64]	; 0x40
 80077f6:	425b      	negs	r3, r3
 80077f8:	441a      	add	r2, r3
 80077fa:	68fb      	ldr	r3, [r7, #12]
 80077fc:	60da      	str	r2, [r3, #12]
		else
		{
			mtCOVERAGE_TEST_MARKER();
		}

		if( xPosition == queueOVERWRITE )
 80077fe:	687b      	ldr	r3, [r7, #4]
 8007800:	2b02      	cmp	r3, #2
 8007802:	d105      	bne.n	8007810 <prvCopyDataToQueue+0xc2>
		{
			if( uxMessagesWaiting > ( UBaseType_t ) 0 )
 8007804:	693b      	ldr	r3, [r7, #16]
 8007806:	2b00      	cmp	r3, #0
 8007808:	d002      	beq.n	8007810 <prvCopyDataToQueue+0xc2>
			{
				/* An item is not being added but overwritten, so subtract
				one from the recorded number of items in the queue so when
				one is added again below the number of recorded items remains
				correct. */
				--uxMessagesWaiting;
 800780a:	693b      	ldr	r3, [r7, #16]
 800780c:	3b01      	subs	r3, #1
 800780e:	613b      	str	r3, [r7, #16]
		{
			mtCOVERAGE_TEST_MARKER();
		}
	}

	pxQueue->uxMessagesWaiting = uxMessagesWaiting + ( UBaseType_t ) 1;
 8007810:	693b      	ldr	r3, [r7, #16]
 8007812:	1c5a      	adds	r2, r3, #1
 8007814:	68fb      	ldr	r3, [r7, #12]
 8007816:	639a      	str	r2, [r3, #56]	; 0x38

	return xReturn;
 8007818:	697b      	ldr	r3, [r7, #20]
}
 800781a:	4618      	mov	r0, r3
 800781c:	3718      	adds	r7, #24
 800781e:	46bd      	mov	sp, r7
 8007820:	bd80      	pop	{r7, pc}

08007822 <prvCopyDataFromQueue>:
/*-----------------------------------------------------------*/

static void prvCopyDataFromQueue( Queue_t * const pxQueue, void * const pvBuffer )
{
 8007822:	b580      	push	{r7, lr}
 8007824:	b082      	sub	sp, #8
 8007826:	af00      	add	r7, sp, #0
 8007828:	6078      	str	r0, [r7, #4]
 800782a:	6039      	str	r1, [r7, #0]
	if( pxQueue->uxItemSize != ( UBaseType_t ) 0 )
 800782c:	687b      	ldr	r3, [r7, #4]
 800782e:	6c1b      	ldr	r3, [r3, #64]	; 0x40
 8007830:	2b00      	cmp	r3, #0
 8007832:	d018      	beq.n	8007866 <prvCopyDataFromQueue+0x44>
	{
		pxQueue->u.pcReadFrom += pxQueue->uxItemSize;
 8007834:	687b      	ldr	r3, [r7, #4]
 8007836:	68da      	ldr	r2, [r3, #12]
 8007838:	687b      	ldr	r3, [r7, #4]
 800783a:	6c1b      	ldr	r3, [r3, #64]	; 0x40
 800783c:	441a      	add	r2, r3
 800783e:	687b      	ldr	r3, [r7, #4]
 8007840:	60da      	str	r2, [r3, #12]
		if( pxQueue->u.pcReadFrom >= pxQueue->pcTail ) /*lint !e946 MISRA exception justified as use of the relational operator is the cleanest solutions. */
 8007842:	687b      	ldr	r3, [r7, #4]
 8007844:	68da      	ldr	r2, [r3, #12]
 8007846:	687b      	ldr	r3, [r7, #4]
 8007848:	685b      	ldr	r3, [r3, #4]
 800784a:	429a      	cmp	r2, r3
 800784c:	d303      	bcc.n	8007856 <prvCopyDataFromQueue+0x34>
		{
			pxQueue->u.pcReadFrom = pxQueue->pcHead;
 800784e:	687b      	ldr	r3, [r7, #4]
 8007850:	681a      	ldr	r2, [r3, #0]
 8007852:	687b      	ldr	r3, [r7, #4]
 8007854:	60da      	str	r2, [r3, #12]
		}
		else
		{
			mtCOVERAGE_TEST_MARKER();
		}
		( void ) memcpy( ( void * ) pvBuffer, ( void * ) pxQueue->u.pcReadFrom, ( size_t ) pxQueue->uxItemSize ); /*lint !e961 !e418 MISRA exception as the casts are only redundant for some ports.  Also previous logic ensures a null pointer can only be passed to memcpy() when the count is 0. */
 8007856:	687b      	ldr	r3, [r7, #4]
 8007858:	68d9      	ldr	r1, [r3, #12]
 800785a:	687b      	ldr	r3, [r7, #4]
 800785c:	6c1b      	ldr	r3, [r3, #64]	; 0x40
 800785e:	461a      	mov	r2, r3
 8007860:	6838      	ldr	r0, [r7, #0]
 8007862:	f001 fd41 	bl	80092e8 <memcpy>
	}
}
 8007866:	bf00      	nop
 8007868:	3708      	adds	r7, #8
 800786a:	46bd      	mov	sp, r7
 800786c:	bd80      	pop	{r7, pc}

0800786e <prvUnlockQueue>:
/*-----------------------------------------------------------*/

static void prvUnlockQueue( Queue_t * const pxQueue )
{
 800786e:	b580      	push	{r7, lr}
 8007870:	b084      	sub	sp, #16
 8007872:	af00      	add	r7, sp, #0
 8007874:	6078      	str	r0, [r7, #4]

	/* The lock counts contains the number of extra data items placed or
	removed from the queue while the queue was locked.  When a queue is
	locked items can be added or removed, but the event lists cannot be
	updated. */
	taskENTER_CRITICAL();
 8007876:	f001 faef 	bl	8008e58 <vPortEnterCritical>
	{
		int8_t cTxLock = pxQueue->cTxLock;
 800787a:	687b      	ldr	r3, [r7, #4]
 800787c:	f893 3045 	ldrb.w	r3, [r3, #69]	; 0x45
 8007880:	73fb      	strb	r3, [r7, #15]

		/* See if data was added to the queue while it was locked. */
		while( cTxLock > queueLOCKED_UNMODIFIED )
 8007882:	e011      	b.n	80078a8 <prvUnlockQueue+0x3a>
			}
			#else /* configUSE_QUEUE_SETS */
			{
				/* Tasks that are removed from the event list will get added to
				the pending ready list as the scheduler is still suspended. */
				if( listLIST_IS_EMPTY( &( pxQueue->xTasksWaitingToReceive ) ) == pdFALSE )
 8007884:	687b      	ldr	r3, [r7, #4]
 8007886:	6a5b      	ldr	r3, [r3, #36]	; 0x24
 8007888:	2b00      	cmp	r3, #0
 800788a:	d012      	beq.n	80078b2 <prvUnlockQueue+0x44>
				{
					if( xTaskRemoveFromEventList( &( pxQueue->xTasksWaitingToReceive ) ) != pdFALSE )
 800788c:	687b      	ldr	r3, [r7, #4]
 800788e:	3324      	adds	r3, #36	; 0x24
 8007890:	4618      	mov	r0, r3
 8007892:	f000 fc7b 	bl	800818c <xTaskRemoveFromEventList>
 8007896:	4603      	mov	r3, r0
 8007898:	2b00      	cmp	r3, #0
 800789a:	d001      	beq.n	80078a0 <prvUnlockQueue+0x32>
					{
						/* The task waiting has a higher priority so record that
						a context switch is required. */
						vTaskMissedYield();
 800789c:	f000 fd28 	bl	80082f0 <vTaskMissedYield>
					break;
				}
			}
			#endif /* configUSE_QUEUE_SETS */

			--cTxLock;
 80078a0:	7bfb      	ldrb	r3, [r7, #15]
 80078a2:	3b01      	subs	r3, #1
 80078a4:	b2db      	uxtb	r3, r3
 80078a6:	73fb      	strb	r3, [r7, #15]
		while( cTxLock > queueLOCKED_UNMODIFIED )
 80078a8:	f997 300f 	ldrsb.w	r3, [r7, #15]
 80078ac:	2b00      	cmp	r3, #0
 80078ae:	dce9      	bgt.n	8007884 <prvUnlockQueue+0x16>
 80078b0:	e000      	b.n	80078b4 <prvUnlockQueue+0x46>
					break;
 80078b2:	bf00      	nop
		}

		pxQueue->cTxLock = queueUNLOCKED;
 80078b4:	687b      	ldr	r3, [r7, #4]
 80078b6:	22ff      	movs	r2, #255	; 0xff
 80078b8:	f883 2045 	strb.w	r2, [r3, #69]	; 0x45
	}
	taskEXIT_CRITICAL();
 80078bc:	f001 fae6 	bl	8008e8c <vPortExitCritical>

	/* Do the same for the Rx lock. */
	taskENTER_CRITICAL();
 80078c0:	f001 faca 	bl	8008e58 <vPortEnterCritical>
	{
		int8_t cRxLock = pxQueue->cRxLock;
 80078c4:	687b      	ldr	r3, [r7, #4]
 80078c6:	f893 3044 	ldrb.w	r3, [r3, #68]	; 0x44
 80078ca:	73bb      	strb	r3, [r7, #14]

		while( cRxLock > queueLOCKED_UNMODIFIED )
 80078cc:	e011      	b.n	80078f2 <prvUnlockQueue+0x84>
		{
			if( listLIST_IS_EMPTY( &( pxQueue->xTasksWaitingToSend ) ) == pdFALSE )
 80078ce:	687b      	ldr	r3, [r7, #4]
 80078d0:	691b      	ldr	r3, [r3, #16]
 80078d2:	2b00      	cmp	r3, #0
 80078d4:	d012      	beq.n	80078fc <prvUnlockQueue+0x8e>
			{
				if( xTaskRemoveFromEventList( &( pxQueue->xTasksWaitingToSend ) ) != pdFALSE )
 80078d6:	687b      	ldr	r3, [r7, #4]
 80078d8:	3310      	adds	r3, #16
 80078da:	4618      	mov	r0, r3
 80078dc:	f000 fc56 	bl	800818c <xTaskRemoveFromEventList>
 80078e0:	4603      	mov	r3, r0
 80078e2:	2b00      	cmp	r3, #0
 80078e4:	d001      	beq.n	80078ea <prvUnlockQueue+0x7c>
				{
					vTaskMissedYield();
 80078e6:	f000 fd03 	bl	80082f0 <vTaskMissedYield>
				else
				{
					mtCOVERAGE_TEST_MARKER();
				}

				--cRxLock;
 80078ea:	7bbb      	ldrb	r3, [r7, #14]
 80078ec:	3b01      	subs	r3, #1
 80078ee:	b2db      	uxtb	r3, r3
 80078f0:	73bb      	strb	r3, [r7, #14]
		while( cRxLock > queueLOCKED_UNMODIFIED )
 80078f2:	f997 300e 	ldrsb.w	r3, [r7, #14]
 80078f6:	2b00      	cmp	r3, #0
 80078f8:	dce9      	bgt.n	80078ce <prvUnlockQueue+0x60>
 80078fa:	e000      	b.n	80078fe <prvUnlockQueue+0x90>
			}
			else
			{
				break;
 80078fc:	bf00      	nop
			}
		}

		pxQueue->cRxLock = queueUNLOCKED;
 80078fe:	687b      	ldr	r3, [r7, #4]
 8007900:	22ff      	movs	r2, #255	; 0xff
 8007902:	f883 2044 	strb.w	r2, [r3, #68]	; 0x44
	}
	taskEXIT_CRITICAL();
 8007906:	f001 fac1 	bl	8008e8c <vPortExitCritical>
}
 800790a:	bf00      	nop
 800790c:	3710      	adds	r7, #16
 800790e:	46bd      	mov	sp, r7
 8007910:	bd80      	pop	{r7, pc}

08007912 <prvIsQueueEmpty>:
/*-----------------------------------------------------------*/

static BaseType_t prvIsQueueEmpty( const Queue_t *pxQueue )
{
 8007912:	b580      	push	{r7, lr}
 8007914:	b084      	sub	sp, #16
 8007916:	af00      	add	r7, sp, #0
 8007918:	6078      	str	r0, [r7, #4]
BaseType_t xReturn;

	taskENTER_CRITICAL();
 800791a:	f001 fa9d 	bl	8008e58 <vPortEnterCritical>
	{
		if( pxQueue->uxMessagesWaiting == ( UBaseType_t )  0 )
 800791e:	687b      	ldr	r3, [r7, #4]
 8007920:	6b9b      	ldr	r3, [r3, #56]	; 0x38
 8007922:	2b00      	cmp	r3, #0
 8007924:	d102      	bne.n	800792c <prvIsQueueEmpty+0x1a>
		{
			xReturn = pdTRUE;
 8007926:	2301      	movs	r3, #1
 8007928:	60fb      	str	r3, [r7, #12]
 800792a:	e001      	b.n	8007930 <prvIsQueueEmpty+0x1e>
		}
		else
		{
			xReturn = pdFALSE;
 800792c:	2300      	movs	r3, #0
 800792e:	60fb      	str	r3, [r7, #12]
		}
	}
	taskEXIT_CRITICAL();
 8007930:	f001 faac 	bl	8008e8c <vPortExitCritical>

	return xReturn;
 8007934:	68fb      	ldr	r3, [r7, #12]
}
 8007936:	4618      	mov	r0, r3
 8007938:	3710      	adds	r7, #16
 800793a:	46bd      	mov	sp, r7
 800793c:	bd80      	pop	{r7, pc}

0800793e <prvIsQueueFull>:
	return xReturn;
} /*lint !e818 xQueue could not be pointer to const because it is a typedef. */
/*-----------------------------------------------------------*/

static BaseType_t prvIsQueueFull( const Queue_t *pxQueue )
{
 800793e:	b580      	push	{r7, lr}
 8007940:	b084      	sub	sp, #16
 8007942:	af00      	add	r7, sp, #0
 8007944:	6078      	str	r0, [r7, #4]
BaseType_t xReturn;

	taskENTER_CRITICAL();
 8007946:	f001 fa87 	bl	8008e58 <vPortEnterCritical>
	{
		if( pxQueue->uxMessagesWaiting == pxQueue->uxLength )
 800794a:	687b      	ldr	r3, [r7, #4]
 800794c:	6b9a      	ldr	r2, [r3, #56]	; 0x38
 800794e:	687b      	ldr	r3, [r7, #4]
 8007950:	6bdb      	ldr	r3, [r3, #60]	; 0x3c
 8007952:	429a      	cmp	r2, r3
 8007954:	d102      	bne.n	800795c <prvIsQueueFull+0x1e>
		{
			xReturn = pdTRUE;
 8007956:	2301      	movs	r3, #1
 8007958:	60fb      	str	r3, [r7, #12]
 800795a:	e001      	b.n	8007960 <prvIsQueueFull+0x22>
		}
		else
		{
			xReturn = pdFALSE;
 800795c:	2300      	movs	r3, #0
 800795e:	60fb      	str	r3, [r7, #12]
		}
	}
	taskEXIT_CRITICAL();
 8007960:	f001 fa94 	bl	8008e8c <vPortExitCritical>

	return xReturn;
 8007964:	68fb      	ldr	r3, [r7, #12]
}
 8007966:	4618      	mov	r0, r3
 8007968:	3710      	adds	r7, #16
 800796a:	46bd      	mov	sp, r7
 800796c:	bd80      	pop	{r7, pc}
	...

08007970 <vQueueAddToRegistry>:
/*-----------------------------------------------------------*/

#if ( configQUEUE_REGISTRY_SIZE > 0 )

	void vQueueAddToRegistry( QueueHandle_t xQueue, const char *pcQueueName ) /*lint !e971 Unqualified char types are allowed for strings and single characters only. */
	{
 8007970:	b480      	push	{r7}
 8007972:	b085      	sub	sp, #20
 8007974:	af00      	add	r7, sp, #0
 8007976:	6078      	str	r0, [r7, #4]
 8007978:	6039      	str	r1, [r7, #0]
	UBaseType_t ux;

		/* See if there is an empty space in the registry.  A NULL name denotes
		a free slot. */
		for( ux = ( UBaseType_t ) 0U; ux < ( UBaseType_t ) configQUEUE_REGISTRY_SIZE; ux++ )
 800797a:	2300      	movs	r3, #0
 800797c:	60fb      	str	r3, [r7, #12]
 800797e:	e014      	b.n	80079aa <vQueueAddToRegistry+0x3a>
		{
			if( xQueueRegistry[ ux ].pcQueueName == NULL )
 8007980:	4a0e      	ldr	r2, [pc, #56]	; (80079bc <vQueueAddToRegistry+0x4c>)
 8007982:	68fb      	ldr	r3, [r7, #12]
 8007984:	f852 3033 	ldr.w	r3, [r2, r3, lsl #3]
 8007988:	2b00      	cmp	r3, #0
 800798a:	d10b      	bne.n	80079a4 <vQueueAddToRegistry+0x34>
			{
				/* Store the information on this queue. */
				xQueueRegistry[ ux ].pcQueueName = pcQueueName;
 800798c:	490b      	ldr	r1, [pc, #44]	; (80079bc <vQueueAddToRegistry+0x4c>)
 800798e:	68fb      	ldr	r3, [r7, #12]
 8007990:	683a      	ldr	r2, [r7, #0]
 8007992:	f841 2033 	str.w	r2, [r1, r3, lsl #3]
				xQueueRegistry[ ux ].xHandle = xQueue;
 8007996:	4a09      	ldr	r2, [pc, #36]	; (80079bc <vQueueAddToRegistry+0x4c>)
 8007998:	68fb      	ldr	r3, [r7, #12]
 800799a:	00db      	lsls	r3, r3, #3
 800799c:	4413      	add	r3, r2
 800799e:	687a      	ldr	r2, [r7, #4]
 80079a0:	605a      	str	r2, [r3, #4]

				traceQUEUE_REGISTRY_ADD( xQueue, pcQueueName );
				break;
 80079a2:	e006      	b.n	80079b2 <vQueueAddToRegistry+0x42>
		for( ux = ( UBaseType_t ) 0U; ux < ( UBaseType_t ) configQUEUE_REGISTRY_SIZE; ux++ )
 80079a4:	68fb      	ldr	r3, [r7, #12]
 80079a6:	3301      	adds	r3, #1
 80079a8:	60fb      	str	r3, [r7, #12]
 80079aa:	68fb      	ldr	r3, [r7, #12]
 80079ac:	2b07      	cmp	r3, #7
 80079ae:	d9e7      	bls.n	8007980 <vQueueAddToRegistry+0x10>
			else
			{
				mtCOVERAGE_TEST_MARKER();
			}
		}
	}
 80079b0:	bf00      	nop
 80079b2:	bf00      	nop
 80079b4:	3714      	adds	r7, #20
 80079b6:	46bd      	mov	sp, r7
 80079b8:	bc80      	pop	{r7}
 80079ba:	4770      	bx	lr
 80079bc:	20004e98 	.word	0x20004e98

080079c0 <vQueueWaitForMessageRestricted>:
/*-----------------------------------------------------------*/

#if ( configUSE_TIMERS == 1 )

	void vQueueWaitForMessageRestricted( QueueHandle_t xQueue, TickType_t xTicksToWait, const BaseType_t xWaitIndefinitely )
	{
 80079c0:	b580      	push	{r7, lr}
 80079c2:	b086      	sub	sp, #24
 80079c4:	af00      	add	r7, sp, #0
 80079c6:	60f8      	str	r0, [r7, #12]
 80079c8:	60b9      	str	r1, [r7, #8]
 80079ca:	607a      	str	r2, [r7, #4]
	Queue_t * const pxQueue = ( Queue_t * ) xQueue;
 80079cc:	68fb      	ldr	r3, [r7, #12]
 80079ce:	617b      	str	r3, [r7, #20]
		will not actually cause the task to block, just place it on a blocked
		list.  It will not block until the scheduler is unlocked - at which
		time a yield will be performed.  If an item is added to the queue while
		the queue is locked, and the calling task blocks on the queue, then the
		calling task will be immediately unblocked when the queue is unlocked. */
		prvLockQueue( pxQueue );
 80079d0:	f001 fa42 	bl	8008e58 <vPortEnterCritical>
 80079d4:	697b      	ldr	r3, [r7, #20]
 80079d6:	f893 3044 	ldrb.w	r3, [r3, #68]	; 0x44
 80079da:	b25b      	sxtb	r3, r3
 80079dc:	f1b3 3fff 	cmp.w	r3, #4294967295
 80079e0:	d103      	bne.n	80079ea <vQueueWaitForMessageRestricted+0x2a>
 80079e2:	697b      	ldr	r3, [r7, #20]
 80079e4:	2200      	movs	r2, #0
 80079e6:	f883 2044 	strb.w	r2, [r3, #68]	; 0x44
 80079ea:	697b      	ldr	r3, [r7, #20]
 80079ec:	f893 3045 	ldrb.w	r3, [r3, #69]	; 0x45
 80079f0:	b25b      	sxtb	r3, r3
 80079f2:	f1b3 3fff 	cmp.w	r3, #4294967295
 80079f6:	d103      	bne.n	8007a00 <vQueueWaitForMessageRestricted+0x40>
 80079f8:	697b      	ldr	r3, [r7, #20]
 80079fa:	2200      	movs	r2, #0
 80079fc:	f883 2045 	strb.w	r2, [r3, #69]	; 0x45
 8007a00:	f001 fa44 	bl	8008e8c <vPortExitCritical>
		if( pxQueue->uxMessagesWaiting == ( UBaseType_t ) 0U )
 8007a04:	697b      	ldr	r3, [r7, #20]
 8007a06:	6b9b      	ldr	r3, [r3, #56]	; 0x38
 8007a08:	2b00      	cmp	r3, #0
 8007a0a:	d106      	bne.n	8007a1a <vQueueWaitForMessageRestricted+0x5a>
		{
			/* There is nothing in the queue, block for the specified period. */
			vTaskPlaceOnEventListRestricted( &( pxQueue->xTasksWaitingToReceive ), xTicksToWait, xWaitIndefinitely );
 8007a0c:	697b      	ldr	r3, [r7, #20]
 8007a0e:	3324      	adds	r3, #36	; 0x24
 8007a10:	687a      	ldr	r2, [r7, #4]
 8007a12:	68b9      	ldr	r1, [r7, #8]
 8007a14:	4618      	mov	r0, r3
 8007a16:	f000 fb9b 	bl	8008150 <vTaskPlaceOnEventListRestricted>
		}
		else
		{
			mtCOVERAGE_TEST_MARKER();
		}
		prvUnlockQueue( pxQueue );
 8007a1a:	6978      	ldr	r0, [r7, #20]
 8007a1c:	f7ff ff27 	bl	800786e <prvUnlockQueue>
	}
 8007a20:	bf00      	nop
 8007a22:	3718      	adds	r7, #24
 8007a24:	46bd      	mov	sp, r7
 8007a26:	bd80      	pop	{r7, pc}

08007a28 <xTaskCreateStatic>:
									const uint32_t ulStackDepth,
									void * const pvParameters,
									UBaseType_t uxPriority,
									StackType_t * const puxStackBuffer,
									StaticTask_t * const pxTaskBuffer )
	{
 8007a28:	b580      	push	{r7, lr}
 8007a2a:	b08a      	sub	sp, #40	; 0x28
 8007a2c:	af04      	add	r7, sp, #16
 8007a2e:	60f8      	str	r0, [r7, #12]
 8007a30:	60b9      	str	r1, [r7, #8]
 8007a32:	607a      	str	r2, [r7, #4]
 8007a34:	603b      	str	r3, [r7, #0]
			configASSERT( xSize == sizeof( TCB_t ) );
		}
		#endif /* configASSERT_DEFINED */


		if( ( pxTaskBuffer != NULL ) && ( puxStackBuffer != NULL ) )
 8007a36:	6abb      	ldr	r3, [r7, #40]	; 0x28
 8007a38:	2b00      	cmp	r3, #0
 8007a3a:	d01e      	beq.n	8007a7a <xTaskCreateStatic+0x52>
 8007a3c:	6a7b      	ldr	r3, [r7, #36]	; 0x24
 8007a3e:	2b00      	cmp	r3, #0
 8007a40:	d01b      	beq.n	8007a7a <xTaskCreateStatic+0x52>
		{
			/* The memory used for the task's TCB and stack are passed into this
			function - use them. */
			pxNewTCB = ( TCB_t * ) pxTaskBuffer; /*lint !e740 Unusual cast is ok as the structures are designed to have the same alignment, and the size is checked by an assert. */
 8007a42:	6abb      	ldr	r3, [r7, #40]	; 0x28
 8007a44:	617b      	str	r3, [r7, #20]
			pxNewTCB->pxStack = ( StackType_t * ) puxStackBuffer;
 8007a46:	697b      	ldr	r3, [r7, #20]
 8007a48:	6a7a      	ldr	r2, [r7, #36]	; 0x24
 8007a4a:	631a      	str	r2, [r3, #48]	; 0x30

			#if( tskSTATIC_AND_DYNAMIC_ALLOCATION_POSSIBLE != 0 ) /*lint !e731 Macro has been consolidated for readability reasons. */
			{
				/* Tasks can be created statically or dynamically, so note this
				task was created statically in case the task is later deleted. */
				pxNewTCB->ucStaticallyAllocated = tskSTATICALLY_ALLOCATED_STACK_AND_TCB;
 8007a4c:	697b      	ldr	r3, [r7, #20]
 8007a4e:	2202      	movs	r2, #2
 8007a50:	f883 2059 	strb.w	r2, [r3, #89]	; 0x59
			}
			#endif /* configSUPPORT_DYNAMIC_ALLOCATION */

			prvInitialiseNewTask( pxTaskCode, pcName, ulStackDepth, pvParameters, uxPriority, &xReturn, pxNewTCB, NULL );
 8007a54:	2300      	movs	r3, #0
 8007a56:	9303      	str	r3, [sp, #12]
 8007a58:	697b      	ldr	r3, [r7, #20]
 8007a5a:	9302      	str	r3, [sp, #8]
 8007a5c:	f107 0310 	add.w	r3, r7, #16
 8007a60:	9301      	str	r3, [sp, #4]
 8007a62:	6a3b      	ldr	r3, [r7, #32]
 8007a64:	9300      	str	r3, [sp, #0]
 8007a66:	683b      	ldr	r3, [r7, #0]
 8007a68:	687a      	ldr	r2, [r7, #4]
 8007a6a:	68b9      	ldr	r1, [r7, #8]
 8007a6c:	68f8      	ldr	r0, [r7, #12]
 8007a6e:	f000 f850 	bl	8007b12 <prvInitialiseNewTask>
			prvAddNewTaskToReadyList( pxNewTCB );
 8007a72:	6978      	ldr	r0, [r7, #20]
 8007a74:	f000 f8c4 	bl	8007c00 <prvAddNewTaskToReadyList>
 8007a78:	e001      	b.n	8007a7e <xTaskCreateStatic+0x56>
		}
		else
		{
			xReturn = NULL;
 8007a7a:	2300      	movs	r3, #0
 8007a7c:	613b      	str	r3, [r7, #16]
		}

		return xReturn;
 8007a7e:	693b      	ldr	r3, [r7, #16]
	}
 8007a80:	4618      	mov	r0, r3
 8007a82:	3718      	adds	r7, #24
 8007a84:	46bd      	mov	sp, r7
 8007a86:	bd80      	pop	{r7, pc}

08007a88 <xTaskCreate>:
							const char * const pcName,		/*lint !e971 Unqualified char types are allowed for strings and single characters only. */
							const configSTACK_DEPTH_TYPE usStackDepth,
							void * const pvParameters,
							UBaseType_t uxPriority,
							TaskHandle_t * const pxCreatedTask )
	{
 8007a88:	b580      	push	{r7, lr}
 8007a8a:	b08c      	sub	sp, #48	; 0x30
 8007a8c:	af04      	add	r7, sp, #16
 8007a8e:	60f8      	str	r0, [r7, #12]
 8007a90:	60b9      	str	r1, [r7, #8]
 8007a92:	603b      	str	r3, [r7, #0]
 8007a94:	4613      	mov	r3, r2
 8007a96:	80fb      	strh	r3, [r7, #6]
		#else /* portSTACK_GROWTH */
		{
		StackType_t *pxStack;

			/* Allocate space for the stack used by the task being created. */
			pxStack = ( StackType_t * ) pvPortMalloc( ( ( ( size_t ) usStackDepth ) * sizeof( StackType_t ) ) ); /*lint !e961 MISRA exception as the casts are only redundant for some ports. */
 8007a98:	88fb      	ldrh	r3, [r7, #6]
 8007a9a:	009b      	lsls	r3, r3, #2
 8007a9c:	4618      	mov	r0, r3
 8007a9e:	f001 fa77 	bl	8008f90 <pvPortMalloc>
 8007aa2:	6178      	str	r0, [r7, #20]

			if( pxStack != NULL )
 8007aa4:	697b      	ldr	r3, [r7, #20]
 8007aa6:	2b00      	cmp	r3, #0
 8007aa8:	d00e      	beq.n	8007ac8 <xTaskCreate+0x40>
			{
				/* Allocate space for the TCB. */
				pxNewTCB = ( TCB_t * ) pvPortMalloc( sizeof( TCB_t ) ); /*lint !e961 MISRA exception as the casts are only redundant for some paths. */
 8007aaa:	205c      	movs	r0, #92	; 0x5c
 8007aac:	f001 fa70 	bl	8008f90 <pvPortMalloc>
 8007ab0:	61f8      	str	r0, [r7, #28]

				if( pxNewTCB != NULL )
 8007ab2:	69fb      	ldr	r3, [r7, #28]
 8007ab4:	2b00      	cmp	r3, #0
 8007ab6:	d003      	beq.n	8007ac0 <xTaskCreate+0x38>
				{
					/* Store the stack location in the TCB. */
					pxNewTCB->pxStack = pxStack;
 8007ab8:	69fb      	ldr	r3, [r7, #28]
 8007aba:	697a      	ldr	r2, [r7, #20]
 8007abc:	631a      	str	r2, [r3, #48]	; 0x30
 8007abe:	e005      	b.n	8007acc <xTaskCreate+0x44>
				}
				else
				{
					/* The stack cannot be used as the TCB was not created.  Free
					it again. */
					vPortFree( pxStack );
 8007ac0:	6978      	ldr	r0, [r7, #20]
 8007ac2:	f001 faf9 	bl	80090b8 <vPortFree>
 8007ac6:	e001      	b.n	8007acc <xTaskCreate+0x44>
				}
			}
			else
			{
				pxNewTCB = NULL;
 8007ac8:	2300      	movs	r3, #0
 8007aca:	61fb      	str	r3, [r7, #28]
			}
		}
		#endif /* portSTACK_GROWTH */

		if( pxNewTCB != NULL )
 8007acc:	69fb      	ldr	r3, [r7, #28]
 8007ace:	2b00      	cmp	r3, #0
 8007ad0:	d017      	beq.n	8007b02 <xTaskCreate+0x7a>
		{
			#if( tskSTATIC_AND_DYNAMIC_ALLOCATION_POSSIBLE != 0 ) /*lint !e731 Macro has been consolidated for readability reasons. */
			{
				/* Tasks can be created statically or dynamically, so note this
				task was created dynamically in case it is later deleted. */
				pxNewTCB->ucStaticallyAllocated = tskDYNAMICALLY_ALLOCATED_STACK_AND_TCB;
 8007ad2:	69fb      	ldr	r3, [r7, #28]
 8007ad4:	2200      	movs	r2, #0
 8007ad6:	f883 2059 	strb.w	r2, [r3, #89]	; 0x59
			}
			#endif /* configSUPPORT_STATIC_ALLOCATION */

			prvInitialiseNewTask( pxTaskCode, pcName, ( uint32_t ) usStackDepth, pvParameters, uxPriority, pxCreatedTask, pxNewTCB, NULL );
 8007ada:	88fa      	ldrh	r2, [r7, #6]
 8007adc:	2300      	movs	r3, #0
 8007ade:	9303      	str	r3, [sp, #12]
 8007ae0:	69fb      	ldr	r3, [r7, #28]
 8007ae2:	9302      	str	r3, [sp, #8]
 8007ae4:	6afb      	ldr	r3, [r7, #44]	; 0x2c
 8007ae6:	9301      	str	r3, [sp, #4]
 8007ae8:	6abb      	ldr	r3, [r7, #40]	; 0x28
 8007aea:	9300      	str	r3, [sp, #0]
 8007aec:	683b      	ldr	r3, [r7, #0]
 8007aee:	68b9      	ldr	r1, [r7, #8]
 8007af0:	68f8      	ldr	r0, [r7, #12]
 8007af2:	f000 f80e 	bl	8007b12 <prvInitialiseNewTask>
			prvAddNewTaskToReadyList( pxNewTCB );
 8007af6:	69f8      	ldr	r0, [r7, #28]
 8007af8:	f000 f882 	bl	8007c00 <prvAddNewTaskToReadyList>
			xReturn = pdPASS;
 8007afc:	2301      	movs	r3, #1
 8007afe:	61bb      	str	r3, [r7, #24]
 8007b00:	e002      	b.n	8007b08 <xTaskCreate+0x80>
		}
		else
		{
			xReturn = errCOULD_NOT_ALLOCATE_REQUIRED_MEMORY;
 8007b02:	f04f 33ff 	mov.w	r3, #4294967295
 8007b06:	61bb      	str	r3, [r7, #24]
		}

		return xReturn;
 8007b08:	69bb      	ldr	r3, [r7, #24]
	}
 8007b0a:	4618      	mov	r0, r3
 8007b0c:	3720      	adds	r7, #32
 8007b0e:	46bd      	mov	sp, r7
 8007b10:	bd80      	pop	{r7, pc}

08007b12 <prvInitialiseNewTask>:
									void * const pvParameters,
									UBaseType_t uxPriority,
									TaskHandle_t * const pxCreatedTask,
									TCB_t *pxNewTCB,
									const MemoryRegion_t * const xRegions )
{
 8007b12:	b580      	push	{r7, lr}
 8007b14:	b086      	sub	sp, #24
 8007b16:	af00      	add	r7, sp, #0
 8007b18:	60f8      	str	r0, [r7, #12]
 8007b1a:	60b9      	str	r1, [r7, #8]
 8007b1c:	607a      	str	r2, [r7, #4]
 8007b1e:	603b      	str	r3, [r7, #0]

	/* Avoid dependency on memset() if it is not required. */
	#if( tskSET_NEW_STACKS_TO_KNOWN_VALUE == 1 )
	{
		/* Fill the stack with a known value to assist debugging. */
		( void ) memset( pxNewTCB->pxStack, ( int ) tskSTACK_FILL_BYTE, ( size_t ) ulStackDepth * sizeof( StackType_t ) );
 8007b20:	6abb      	ldr	r3, [r7, #40]	; 0x28
 8007b22:	6b18      	ldr	r0, [r3, #48]	; 0x30
 8007b24:	687b      	ldr	r3, [r7, #4]
 8007b26:	009b      	lsls	r3, r3, #2
 8007b28:	461a      	mov	r2, r3
 8007b2a:	21a5      	movs	r1, #165	; 0xa5
 8007b2c:	f001 fbea 	bl	8009304 <memset>
	grows from high memory to low (as per the 80x86) or vice versa.
	portSTACK_GROWTH is used to make the result positive or negative as required
	by the port. */
	#if( portSTACK_GROWTH < 0 )
	{
		pxTopOfStack = pxNewTCB->pxStack + ( ulStackDepth - ( uint32_t ) 1 );
 8007b30:	6abb      	ldr	r3, [r7, #40]	; 0x28
 8007b32:	6b1a      	ldr	r2, [r3, #48]	; 0x30
 8007b34:	687b      	ldr	r3, [r7, #4]
 8007b36:	f103 4380 	add.w	r3, r3, #1073741824	; 0x40000000
 8007b3a:	3b01      	subs	r3, #1
 8007b3c:	009b      	lsls	r3, r3, #2
 8007b3e:	4413      	add	r3, r2
 8007b40:	613b      	str	r3, [r7, #16]
		pxTopOfStack = ( StackType_t * ) ( ( ( portPOINTER_SIZE_TYPE ) pxTopOfStack ) & ( ~( ( portPOINTER_SIZE_TYPE ) portBYTE_ALIGNMENT_MASK ) ) ); /*lint !e923 MISRA exception.  Avoiding casts between pointers and integers is not practical.  Size differences accounted for using portPOINTER_SIZE_TYPE type. */
 8007b42:	693b      	ldr	r3, [r7, #16]
 8007b44:	f023 0307 	bic.w	r3, r3, #7
 8007b48:	613b      	str	r3, [r7, #16]
		pxNewTCB->pxEndOfStack = pxNewTCB->pxStack + ( ulStackDepth - ( uint32_t ) 1 );
	}
	#endif /* portSTACK_GROWTH */

	/* Store the task name in the TCB. */
	for( x = ( UBaseType_t ) 0; x < ( UBaseType_t ) configMAX_TASK_NAME_LEN; x++ )
 8007b4a:	2300      	movs	r3, #0
 8007b4c:	617b      	str	r3, [r7, #20]
 8007b4e:	e012      	b.n	8007b76 <prvInitialiseNewTask+0x64>
	{
		pxNewTCB->pcTaskName[ x ] = pcName[ x ];
 8007b50:	68ba      	ldr	r2, [r7, #8]
 8007b52:	697b      	ldr	r3, [r7, #20]
 8007b54:	4413      	add	r3, r2
 8007b56:	7819      	ldrb	r1, [r3, #0]
 8007b58:	6aba      	ldr	r2, [r7, #40]	; 0x28
 8007b5a:	697b      	ldr	r3, [r7, #20]
 8007b5c:	4413      	add	r3, r2
 8007b5e:	3334      	adds	r3, #52	; 0x34
 8007b60:	460a      	mov	r2, r1
 8007b62:	701a      	strb	r2, [r3, #0]

		/* Don't copy all configMAX_TASK_NAME_LEN if the string is shorter than
		configMAX_TASK_NAME_LEN characters just in case the memory after the
		string is not accessible (extremely unlikely). */
		if( pcName[ x ] == 0x00 )
 8007b64:	68ba      	ldr	r2, [r7, #8]
 8007b66:	697b      	ldr	r3, [r7, #20]
 8007b68:	4413      	add	r3, r2
 8007b6a:	781b      	ldrb	r3, [r3, #0]
 8007b6c:	2b00      	cmp	r3, #0
 8007b6e:	d006      	beq.n	8007b7e <prvInitialiseNewTask+0x6c>
	for( x = ( UBaseType_t ) 0; x < ( UBaseType_t ) configMAX_TASK_NAME_LEN; x++ )
 8007b70:	697b      	ldr	r3, [r7, #20]
 8007b72:	3301      	adds	r3, #1
 8007b74:	617b      	str	r3, [r7, #20]
 8007b76:	697b      	ldr	r3, [r7, #20]
 8007b78:	2b0f      	cmp	r3, #15
 8007b7a:	d9e9      	bls.n	8007b50 <prvInitialiseNewTask+0x3e>
 8007b7c:	e000      	b.n	8007b80 <prvInitialiseNewTask+0x6e>
		{
			break;
 8007b7e:	bf00      	nop
		}
	}

	/* Ensure the name string is terminated in the case that the string length
	was greater or equal to configMAX_TASK_NAME_LEN. */
	pxNewTCB->pcTaskName[ configMAX_TASK_NAME_LEN - 1 ] = '\0';
 8007b80:	6abb      	ldr	r3, [r7, #40]	; 0x28
 8007b82:	2200      	movs	r2, #0
 8007b84:	f883 2043 	strb.w	r2, [r3, #67]	; 0x43

	/* This is used as an array index so must ensure it's not too large.  First
	remove the privilege bit if one is present. */
	if( uxPriority >= ( UBaseType_t ) configMAX_PRIORITIES )
 8007b88:	6a3b      	ldr	r3, [r7, #32]
 8007b8a:	2b37      	cmp	r3, #55	; 0x37
 8007b8c:	d901      	bls.n	8007b92 <prvInitialiseNewTask+0x80>
	{
		uxPriority = ( UBaseType_t ) configMAX_PRIORITIES - ( UBaseType_t ) 1U;
 8007b8e:	2337      	movs	r3, #55	; 0x37
 8007b90:	623b      	str	r3, [r7, #32]
	else
	{
		mtCOVERAGE_TEST_MARKER();
	}

	pxNewTCB->uxPriority = uxPriority;
 8007b92:	6abb      	ldr	r3, [r7, #40]	; 0x28
 8007b94:	6a3a      	ldr	r2, [r7, #32]
 8007b96:	62da      	str	r2, [r3, #44]	; 0x2c
	#if ( configUSE_MUTEXES == 1 )
	{
		pxNewTCB->uxBasePriority = uxPriority;
 8007b98:	6abb      	ldr	r3, [r7, #40]	; 0x28
 8007b9a:	6a3a      	ldr	r2, [r7, #32]
 8007b9c:	64da      	str	r2, [r3, #76]	; 0x4c
		pxNewTCB->uxMutexesHeld = 0;
 8007b9e:	6abb      	ldr	r3, [r7, #40]	; 0x28
 8007ba0:	2200      	movs	r2, #0
 8007ba2:	651a      	str	r2, [r3, #80]	; 0x50
	}
	#endif /* configUSE_MUTEXES */

	vListInitialiseItem( &( pxNewTCB->xStateListItem ) );
 8007ba4:	6abb      	ldr	r3, [r7, #40]	; 0x28
 8007ba6:	3304      	adds	r3, #4
 8007ba8:	4618      	mov	r0, r3
 8007baa:	f7ff f8e0 	bl	8006d6e <vListInitialiseItem>
	vListInitialiseItem( &( pxNewTCB->xEventListItem ) );
 8007bae:	6abb      	ldr	r3, [r7, #40]	; 0x28
 8007bb0:	3318      	adds	r3, #24
 8007bb2:	4618      	mov	r0, r3
 8007bb4:	f7ff f8db 	bl	8006d6e <vListInitialiseItem>

	/* Set the pxNewTCB as a link back from the ListItem_t.  This is so we can get
	back to	the containing TCB from a generic item in a list. */
	listSET_LIST_ITEM_OWNER( &( pxNewTCB->xStateListItem ), pxNewTCB );
 8007bb8:	6abb      	ldr	r3, [r7, #40]	; 0x28
 8007bba:	6aba      	ldr	r2, [r7, #40]	; 0x28
 8007bbc:	611a      	str	r2, [r3, #16]

	/* Event lists are always in priority order. */
	listSET_LIST_ITEM_VALUE( &( pxNewTCB->xEventListItem ), ( TickType_t ) configMAX_PRIORITIES - ( TickType_t ) uxPriority ); /*lint !e961 MISRA exception as the casts are only redundant for some ports. */
 8007bbe:	6a3b      	ldr	r3, [r7, #32]
 8007bc0:	f1c3 0238 	rsb	r2, r3, #56	; 0x38
 8007bc4:	6abb      	ldr	r3, [r7, #40]	; 0x28
 8007bc6:	619a      	str	r2, [r3, #24]
	listSET_LIST_ITEM_OWNER( &( pxNewTCB->xEventListItem ), pxNewTCB );
 8007bc8:	6abb      	ldr	r3, [r7, #40]	; 0x28
 8007bca:	6aba      	ldr	r2, [r7, #40]	; 0x28
 8007bcc:	625a      	str	r2, [r3, #36]	; 0x24
	}
	#endif

	#if ( configUSE_TASK_NOTIFICATIONS == 1 )
	{
		pxNewTCB->ulNotifiedValue = 0;
 8007bce:	6abb      	ldr	r3, [r7, #40]	; 0x28
 8007bd0:	2200      	movs	r2, #0
 8007bd2:	655a      	str	r2, [r3, #84]	; 0x54
		pxNewTCB->ucNotifyState = taskNOT_WAITING_NOTIFICATION;
 8007bd4:	6abb      	ldr	r3, [r7, #40]	; 0x28
 8007bd6:	2200      	movs	r2, #0
 8007bd8:	f883 2058 	strb.w	r2, [r3, #88]	; 0x58
	{
		pxNewTCB->pxTopOfStack = pxPortInitialiseStack( pxTopOfStack, pxTaskCode, pvParameters, xRunPrivileged );
	}
	#else /* portUSING_MPU_WRAPPERS */
	{
		pxNewTCB->pxTopOfStack = pxPortInitialiseStack( pxTopOfStack, pxTaskCode, pvParameters );
 8007bdc:	683a      	ldr	r2, [r7, #0]
 8007bde:	68f9      	ldr	r1, [r7, #12]
 8007be0:	6938      	ldr	r0, [r7, #16]
 8007be2:	f001 f8af 	bl	8008d44 <pxPortInitialiseStack>
 8007be6:	4602      	mov	r2, r0
 8007be8:	6abb      	ldr	r3, [r7, #40]	; 0x28
 8007bea:	601a      	str	r2, [r3, #0]
	}
	#endif /* portUSING_MPU_WRAPPERS */

	if( ( void * ) pxCreatedTask != NULL )
 8007bec:	6a7b      	ldr	r3, [r7, #36]	; 0x24
 8007bee:	2b00      	cmp	r3, #0
 8007bf0:	d002      	beq.n	8007bf8 <prvInitialiseNewTask+0xe6>
	{
		/* Pass the handle out in an anonymous way.  The handle can be used to
		change the created task's priority, delete the created task, etc.*/
		*pxCreatedTask = ( TaskHandle_t ) pxNewTCB;
 8007bf2:	6a7b      	ldr	r3, [r7, #36]	; 0x24
 8007bf4:	6aba      	ldr	r2, [r7, #40]	; 0x28
 8007bf6:	601a      	str	r2, [r3, #0]
	}
	else
	{
		mtCOVERAGE_TEST_MARKER();
	}
}
 8007bf8:	bf00      	nop
 8007bfa:	3718      	adds	r7, #24
 8007bfc:	46bd      	mov	sp, r7
 8007bfe:	bd80      	pop	{r7, pc}

08007c00 <prvAddNewTaskToReadyList>:
/*-----------------------------------------------------------*/

static void prvAddNewTaskToReadyList( TCB_t *pxNewTCB )
{
 8007c00:	b580      	push	{r7, lr}
 8007c02:	b082      	sub	sp, #8
 8007c04:	af00      	add	r7, sp, #0
 8007c06:	6078      	str	r0, [r7, #4]
	/* Ensure interrupts don't access the task lists while the lists are being
	updated. */
	taskENTER_CRITICAL();
 8007c08:	f001 f926 	bl	8008e58 <vPortEnterCritical>
	{
		uxCurrentNumberOfTasks++;
 8007c0c:	4b2d      	ldr	r3, [pc, #180]	; (8007cc4 <prvAddNewTaskToReadyList+0xc4>)
 8007c0e:	681b      	ldr	r3, [r3, #0]
 8007c10:	3301      	adds	r3, #1
 8007c12:	4a2c      	ldr	r2, [pc, #176]	; (8007cc4 <prvAddNewTaskToReadyList+0xc4>)
 8007c14:	6013      	str	r3, [r2, #0]
		if( pxCurrentTCB == NULL )
 8007c16:	4b2c      	ldr	r3, [pc, #176]	; (8007cc8 <prvAddNewTaskToReadyList+0xc8>)
 8007c18:	681b      	ldr	r3, [r3, #0]
 8007c1a:	2b00      	cmp	r3, #0
 8007c1c:	d109      	bne.n	8007c32 <prvAddNewTaskToReadyList+0x32>
		{
			/* There are no other tasks, or all the other tasks are in
			the suspended state - make this the current task. */
			pxCurrentTCB = pxNewTCB;
 8007c1e:	4a2a      	ldr	r2, [pc, #168]	; (8007cc8 <prvAddNewTaskToReadyList+0xc8>)
 8007c20:	687b      	ldr	r3, [r7, #4]
 8007c22:	6013      	str	r3, [r2, #0]

			if( uxCurrentNumberOfTasks == ( UBaseType_t ) 1 )
 8007c24:	4b27      	ldr	r3, [pc, #156]	; (8007cc4 <prvAddNewTaskToReadyList+0xc4>)
 8007c26:	681b      	ldr	r3, [r3, #0]
 8007c28:	2b01      	cmp	r3, #1
 8007c2a:	d110      	bne.n	8007c4e <prvAddNewTaskToReadyList+0x4e>
			{
				/* This is the first task to be created so do the preliminary
				initialisation required.  We will not recover if this call
				fails, but we will report the failure. */
				prvInitialiseTaskLists();
 8007c2c:	f000 fb84 	bl	8008338 <prvInitialiseTaskLists>
 8007c30:	e00d      	b.n	8007c4e <prvAddNewTaskToReadyList+0x4e>
		else
		{
			/* If the scheduler is not already running, make this task the
			current task if it is the highest priority task to be created
			so far. */
			if( xSchedulerRunning == pdFALSE )
 8007c32:	4b26      	ldr	r3, [pc, #152]	; (8007ccc <prvAddNewTaskToReadyList+0xcc>)
 8007c34:	681b      	ldr	r3, [r3, #0]
 8007c36:	2b00      	cmp	r3, #0
 8007c38:	d109      	bne.n	8007c4e <prvAddNewTaskToReadyList+0x4e>
			{
				if( pxCurrentTCB->uxPriority <= pxNewTCB->uxPriority )
 8007c3a:	4b23      	ldr	r3, [pc, #140]	; (8007cc8 <prvAddNewTaskToReadyList+0xc8>)
 8007c3c:	681b      	ldr	r3, [r3, #0]
 8007c3e:	6ada      	ldr	r2, [r3, #44]	; 0x2c
 8007c40:	687b      	ldr	r3, [r7, #4]
 8007c42:	6adb      	ldr	r3, [r3, #44]	; 0x2c
 8007c44:	429a      	cmp	r2, r3
 8007c46:	d802      	bhi.n	8007c4e <prvAddNewTaskToReadyList+0x4e>
				{
					pxCurrentTCB = pxNewTCB;
 8007c48:	4a1f      	ldr	r2, [pc, #124]	; (8007cc8 <prvAddNewTaskToReadyList+0xc8>)
 8007c4a:	687b      	ldr	r3, [r7, #4]
 8007c4c:	6013      	str	r3, [r2, #0]
			{
				mtCOVERAGE_TEST_MARKER();
			}
		}

		uxTaskNumber++;
 8007c4e:	4b20      	ldr	r3, [pc, #128]	; (8007cd0 <prvAddNewTaskToReadyList+0xd0>)
 8007c50:	681b      	ldr	r3, [r3, #0]
 8007c52:	3301      	adds	r3, #1
 8007c54:	4a1e      	ldr	r2, [pc, #120]	; (8007cd0 <prvAddNewTaskToReadyList+0xd0>)
 8007c56:	6013      	str	r3, [r2, #0]

		#if ( configUSE_TRACE_FACILITY == 1 )
		{
			/* Add a counter into the TCB for tracing only. */
			pxNewTCB->uxTCBNumber = uxTaskNumber;
 8007c58:	4b1d      	ldr	r3, [pc, #116]	; (8007cd0 <prvAddNewTaskToReadyList+0xd0>)
 8007c5a:	681a      	ldr	r2, [r3, #0]
 8007c5c:	687b      	ldr	r3, [r7, #4]
 8007c5e:	645a      	str	r2, [r3, #68]	; 0x44
		}
		#endif /* configUSE_TRACE_FACILITY */
		traceTASK_CREATE( pxNewTCB );

		prvAddTaskToReadyList( pxNewTCB );
 8007c60:	687b      	ldr	r3, [r7, #4]
 8007c62:	6ada      	ldr	r2, [r3, #44]	; 0x2c
 8007c64:	4b1b      	ldr	r3, [pc, #108]	; (8007cd4 <prvAddNewTaskToReadyList+0xd4>)
 8007c66:	681b      	ldr	r3, [r3, #0]
 8007c68:	429a      	cmp	r2, r3
 8007c6a:	d903      	bls.n	8007c74 <prvAddNewTaskToReadyList+0x74>
 8007c6c:	687b      	ldr	r3, [r7, #4]
 8007c6e:	6adb      	ldr	r3, [r3, #44]	; 0x2c
 8007c70:	4a18      	ldr	r2, [pc, #96]	; (8007cd4 <prvAddNewTaskToReadyList+0xd4>)
 8007c72:	6013      	str	r3, [r2, #0]
 8007c74:	687b      	ldr	r3, [r7, #4]
 8007c76:	6ada      	ldr	r2, [r3, #44]	; 0x2c
 8007c78:	4613      	mov	r3, r2
 8007c7a:	009b      	lsls	r3, r3, #2
 8007c7c:	4413      	add	r3, r2
 8007c7e:	009b      	lsls	r3, r3, #2
 8007c80:	4a15      	ldr	r2, [pc, #84]	; (8007cd8 <prvAddNewTaskToReadyList+0xd8>)
 8007c82:	441a      	add	r2, r3
 8007c84:	687b      	ldr	r3, [r7, #4]
 8007c86:	3304      	adds	r3, #4
 8007c88:	4619      	mov	r1, r3
 8007c8a:	4610      	mov	r0, r2
 8007c8c:	f7ff f87b 	bl	8006d86 <vListInsertEnd>

		portSETUP_TCB( pxNewTCB );
	}
	taskEXIT_CRITICAL();
 8007c90:	f001 f8fc 	bl	8008e8c <vPortExitCritical>

	if( xSchedulerRunning != pdFALSE )
 8007c94:	4b0d      	ldr	r3, [pc, #52]	; (8007ccc <prvAddNewTaskToReadyList+0xcc>)
 8007c96:	681b      	ldr	r3, [r3, #0]
 8007c98:	2b00      	cmp	r3, #0
 8007c9a:	d00e      	beq.n	8007cba <prvAddNewTaskToReadyList+0xba>
	{
		/* If the created task is of a higher priority than the current task
		then it should run now. */
		if( pxCurrentTCB->uxPriority < pxNewTCB->uxPriority )
 8007c9c:	4b0a      	ldr	r3, [pc, #40]	; (8007cc8 <prvAddNewTaskToReadyList+0xc8>)
 8007c9e:	681b      	ldr	r3, [r3, #0]
 8007ca0:	6ada      	ldr	r2, [r3, #44]	; 0x2c
 8007ca2:	687b      	ldr	r3, [r7, #4]
 8007ca4:	6adb      	ldr	r3, [r3, #44]	; 0x2c
 8007ca6:	429a      	cmp	r2, r3
 8007ca8:	d207      	bcs.n	8007cba <prvAddNewTaskToReadyList+0xba>
		{
			taskYIELD_IF_USING_PREEMPTION();
 8007caa:	4b0c      	ldr	r3, [pc, #48]	; (8007cdc <prvAddNewTaskToReadyList+0xdc>)
 8007cac:	f04f 5280 	mov.w	r2, #268435456	; 0x10000000
 8007cb0:	601a      	str	r2, [r3, #0]
 8007cb2:	f3bf 8f4f 	dsb	sy
 8007cb6:	f3bf 8f6f 	isb	sy
	}
	else
	{
		mtCOVERAGE_TEST_MARKER();
	}
}
 8007cba:	bf00      	nop
 8007cbc:	3708      	adds	r7, #8
 8007cbe:	46bd      	mov	sp, r7
 8007cc0:	bd80      	pop	{r7, pc}
 8007cc2:	bf00      	nop
 8007cc4:	20000bc4 	.word	0x20000bc4
 8007cc8:	200006f0 	.word	0x200006f0
 8007ccc:	20000bd0 	.word	0x20000bd0
 8007cd0:	20000be0 	.word	0x20000be0
 8007cd4:	20000bcc 	.word	0x20000bcc
 8007cd8:	200006f4 	.word	0x200006f4
 8007cdc:	e000ed04 	.word	0xe000ed04

08007ce0 <vTaskDelay>:
/*-----------------------------------------------------------*/

#if ( INCLUDE_vTaskDelay == 1 )

	void vTaskDelay( const TickType_t xTicksToDelay )
	{
 8007ce0:	b580      	push	{r7, lr}
 8007ce2:	b084      	sub	sp, #16
 8007ce4:	af00      	add	r7, sp, #0
 8007ce6:	6078      	str	r0, [r7, #4]
	BaseType_t xAlreadyYielded = pdFALSE;
 8007ce8:	2300      	movs	r3, #0
 8007cea:	60fb      	str	r3, [r7, #12]

		/* A delay time of zero just forces a reschedule. */
		if( xTicksToDelay > ( TickType_t ) 0U )
 8007cec:	687b      	ldr	r3, [r7, #4]
 8007cee:	2b00      	cmp	r3, #0
 8007cf0:	d008      	beq.n	8007d04 <vTaskDelay+0x24>
		{
			configASSERT( uxSchedulerSuspended == 0 );
			vTaskSuspendAll();
 8007cf2:	f000 f871 	bl	8007dd8 <vTaskSuspendAll>
				list or removed from the blocked list until the scheduler
				is resumed.

				This task cannot be in an event list as it is the currently
				executing task. */
				prvAddCurrentTaskToDelayedList( xTicksToDelay, pdFALSE );
 8007cf6:	2100      	movs	r1, #0
 8007cf8:	6878      	ldr	r0, [r7, #4]
 8007cfa:	f000 fd1f 	bl	800873c <prvAddCurrentTaskToDelayedList>
			}
			xAlreadyYielded = xTaskResumeAll();
 8007cfe:	f000 f879 	bl	8007df4 <xTaskResumeAll>
 8007d02:	60f8      	str	r0, [r7, #12]
			mtCOVERAGE_TEST_MARKER();
		}

		/* Force a reschedule if xTaskResumeAll has not already done so, we may
		have put ourselves to sleep. */
		if( xAlreadyYielded == pdFALSE )
 8007d04:	68fb      	ldr	r3, [r7, #12]
 8007d06:	2b00      	cmp	r3, #0
 8007d08:	d107      	bne.n	8007d1a <vTaskDelay+0x3a>
		{
			portYIELD_WITHIN_API();
 8007d0a:	4b06      	ldr	r3, [pc, #24]	; (8007d24 <vTaskDelay+0x44>)
 8007d0c:	f04f 5280 	mov.w	r2, #268435456	; 0x10000000
 8007d10:	601a      	str	r2, [r3, #0]
 8007d12:	f3bf 8f4f 	dsb	sy
 8007d16:	f3bf 8f6f 	isb	sy
		}
		else
		{
			mtCOVERAGE_TEST_MARKER();
		}
	}
 8007d1a:	bf00      	nop
 8007d1c:	3710      	adds	r7, #16
 8007d1e:	46bd      	mov	sp, r7
 8007d20:	bd80      	pop	{r7, pc}
 8007d22:	bf00      	nop
 8007d24:	e000ed04 	.word	0xe000ed04

08007d28 <vTaskStartScheduler>:

#endif /* ( ( INCLUDE_xTaskResumeFromISR == 1 ) && ( INCLUDE_vTaskSuspend == 1 ) ) */
/*-----------------------------------------------------------*/

void vTaskStartScheduler( void )
{
 8007d28:	b580      	push	{r7, lr}
 8007d2a:	b08a      	sub	sp, #40	; 0x28
 8007d2c:	af04      	add	r7, sp, #16
BaseType_t xReturn;

	/* Add the idle task at the lowest priority. */
	#if( configSUPPORT_STATIC_ALLOCATION == 1 )
	{
		StaticTask_t *pxIdleTaskTCBBuffer = NULL;
 8007d2e:	2300      	movs	r3, #0
 8007d30:	60fb      	str	r3, [r7, #12]
		StackType_t *pxIdleTaskStackBuffer = NULL;
 8007d32:	2300      	movs	r3, #0
 8007d34:	60bb      	str	r3, [r7, #8]
		uint32_t ulIdleTaskStackSize;

		/* The Idle task is created using user provided RAM - obtain the
		address of the RAM then create the idle task. */
		vApplicationGetIdleTaskMemory( &pxIdleTaskTCBBuffer, &pxIdleTaskStackBuffer, &ulIdleTaskStackSize );
 8007d36:	1d3a      	adds	r2, r7, #4
 8007d38:	f107 0108 	add.w	r1, r7, #8
 8007d3c:	f107 030c 	add.w	r3, r7, #12
 8007d40:	4618      	mov	r0, r3
 8007d42:	f7fe ffc3 	bl	8006ccc <vApplicationGetIdleTaskMemory>
		xIdleTaskHandle = xTaskCreateStatic(	prvIdleTask,
 8007d46:	6879      	ldr	r1, [r7, #4]
 8007d48:	68bb      	ldr	r3, [r7, #8]
 8007d4a:	68fa      	ldr	r2, [r7, #12]
 8007d4c:	9202      	str	r2, [sp, #8]
 8007d4e:	9301      	str	r3, [sp, #4]
 8007d50:	2300      	movs	r3, #0
 8007d52:	9300      	str	r3, [sp, #0]
 8007d54:	2300      	movs	r3, #0
 8007d56:	460a      	mov	r2, r1
 8007d58:	4919      	ldr	r1, [pc, #100]	; (8007dc0 <vTaskStartScheduler+0x98>)
 8007d5a:	481a      	ldr	r0, [pc, #104]	; (8007dc4 <vTaskStartScheduler+0x9c>)
 8007d5c:	f7ff fe64 	bl	8007a28 <xTaskCreateStatic>
 8007d60:	4603      	mov	r3, r0
 8007d62:	4a19      	ldr	r2, [pc, #100]	; (8007dc8 <vTaskStartScheduler+0xa0>)
 8007d64:	6013      	str	r3, [r2, #0]
												( void * ) NULL, /*lint !e961.  The cast is not redundant for all compilers. */
												( tskIDLE_PRIORITY | portPRIVILEGE_BIT ),
												pxIdleTaskStackBuffer,
												pxIdleTaskTCBBuffer ); /*lint !e961 MISRA exception, justified as it is not a redundant explicit cast to all supported compilers. */

		if( xIdleTaskHandle != NULL )
 8007d66:	4b18      	ldr	r3, [pc, #96]	; (8007dc8 <vTaskStartScheduler+0xa0>)
 8007d68:	681b      	ldr	r3, [r3, #0]
 8007d6a:	2b00      	cmp	r3, #0
 8007d6c:	d002      	beq.n	8007d74 <vTaskStartScheduler+0x4c>
		{
			xReturn = pdPASS;
 8007d6e:	2301      	movs	r3, #1
 8007d70:	617b      	str	r3, [r7, #20]
 8007d72:	e001      	b.n	8007d78 <vTaskStartScheduler+0x50>
		}
		else
		{
			xReturn = pdFAIL;
 8007d74:	2300      	movs	r3, #0
 8007d76:	617b      	str	r3, [r7, #20]
	}
	#endif /* configSUPPORT_STATIC_ALLOCATION */

	#if ( configUSE_TIMERS == 1 )
	{
		if( xReturn == pdPASS )
 8007d78:	697b      	ldr	r3, [r7, #20]
 8007d7a:	2b01      	cmp	r3, #1
 8007d7c:	d102      	bne.n	8007d84 <vTaskStartScheduler+0x5c>
		{
			xReturn = xTimerCreateTimerTask();
 8007d7e:	f000 fd31 	bl	80087e4 <xTimerCreateTimerTask>
 8007d82:	6178      	str	r0, [r7, #20]
			mtCOVERAGE_TEST_MARKER();
		}
	}
	#endif /* configUSE_TIMERS */

	if( xReturn == pdPASS )
 8007d84:	697b      	ldr	r3, [r7, #20]
 8007d86:	2b01      	cmp	r3, #1
 8007d88:	d115      	bne.n	8007db6 <vTaskStartScheduler+0x8e>
	__asm volatile
 8007d8a:	f04f 0350 	mov.w	r3, #80	; 0x50
 8007d8e:	f383 8811 	msr	BASEPRI, r3
 8007d92:	f3bf 8f6f 	isb	sy
 8007d96:	f3bf 8f4f 	dsb	sy
 8007d9a:	613b      	str	r3, [r7, #16]
}
 8007d9c:	bf00      	nop
			structure specific to the task that will run first. */
			_impure_ptr = &( pxCurrentTCB->xNewLib_reent );
		}
		#endif /* configUSE_NEWLIB_REENTRANT */

		xNextTaskUnblockTime = portMAX_DELAY;
 8007d9e:	4b0b      	ldr	r3, [pc, #44]	; (8007dcc <vTaskStartScheduler+0xa4>)
 8007da0:	f04f 32ff 	mov.w	r2, #4294967295
 8007da4:	601a      	str	r2, [r3, #0]
		xSchedulerRunning = pdTRUE;
 8007da6:	4b0a      	ldr	r3, [pc, #40]	; (8007dd0 <vTaskStartScheduler+0xa8>)
 8007da8:	2201      	movs	r2, #1
 8007daa:	601a      	str	r2, [r3, #0]
		xTickCount = ( TickType_t ) 0U;
 8007dac:	4b09      	ldr	r3, [pc, #36]	; (8007dd4 <vTaskStartScheduler+0xac>)
 8007dae:	2200      	movs	r2, #0
 8007db0:	601a      	str	r2, [r3, #0]
		FreeRTOSConfig.h file. */
		portCONFIGURE_TIMER_FOR_RUN_TIME_STATS();

		/* Setting up the timer tick is hardware specific and thus in the
		portable interface. */
		if( xPortStartScheduler() != pdFALSE )
 8007db2:	f001 f831 	bl	8008e18 <xPortStartScheduler>
	}

	/* Prevent compiler warnings if INCLUDE_xTaskGetIdleTaskHandle is set to 0,
	meaning xIdleTaskHandle is not used anywhere else. */
	( void ) xIdleTaskHandle;
}
 8007db6:	bf00      	nop
 8007db8:	3718      	adds	r7, #24
 8007dba:	46bd      	mov	sp, r7
 8007dbc:	bd80      	pop	{r7, pc}
 8007dbe:	bf00      	nop
 8007dc0:	080093b0 	.word	0x080093b0
 8007dc4:	08008309 	.word	0x08008309
 8007dc8:	20000be8 	.word	0x20000be8
 8007dcc:	20000be4 	.word	0x20000be4
 8007dd0:	20000bd0 	.word	0x20000bd0
 8007dd4:	20000bc8 	.word	0x20000bc8

08007dd8 <vTaskSuspendAll>:
	vPortEndScheduler();
}
/*----------------------------------------------------------*/

void vTaskSuspendAll( void )
{
 8007dd8:	b480      	push	{r7}
 8007dda:	af00      	add	r7, sp, #0
	/* A critical section is not required as the variable is of type
	BaseType_t.  Please read Richard Barry's reply in the following link to a
	post in the FreeRTOS support forum before reporting this as a bug! -
	http://goo.gl/wu4acr */
	++uxSchedulerSuspended;
 8007ddc:	4b04      	ldr	r3, [pc, #16]	; (8007df0 <vTaskSuspendAll+0x18>)
 8007dde:	681b      	ldr	r3, [r3, #0]
 8007de0:	3301      	adds	r3, #1
 8007de2:	4a03      	ldr	r2, [pc, #12]	; (8007df0 <vTaskSuspendAll+0x18>)
 8007de4:	6013      	str	r3, [r2, #0]
}
 8007de6:	bf00      	nop
 8007de8:	46bd      	mov	sp, r7
 8007dea:	bc80      	pop	{r7}
 8007dec:	4770      	bx	lr
 8007dee:	bf00      	nop
 8007df0:	20000bec 	.word	0x20000bec

08007df4 <xTaskResumeAll>:

#endif /* configUSE_TICKLESS_IDLE */
/*----------------------------------------------------------*/

BaseType_t xTaskResumeAll( void )
{
 8007df4:	b580      	push	{r7, lr}
 8007df6:	b084      	sub	sp, #16
 8007df8:	af00      	add	r7, sp, #0
TCB_t *pxTCB = NULL;
 8007dfa:	2300      	movs	r3, #0
 8007dfc:	60fb      	str	r3, [r7, #12]
BaseType_t xAlreadyYielded = pdFALSE;
 8007dfe:	2300      	movs	r3, #0
 8007e00:	60bb      	str	r3, [r7, #8]
	/* It is possible that an ISR caused a task to be removed from an event
	list while the scheduler was suspended.  If this was the case then the
	removed task will have been added to the xPendingReadyList.  Once the
	scheduler has been resumed it is safe to move all the pending ready
	tasks from this list into their appropriate ready list. */
	taskENTER_CRITICAL();
 8007e02:	f001 f829 	bl	8008e58 <vPortEnterCritical>
	{
		--uxSchedulerSuspended;
 8007e06:	4b39      	ldr	r3, [pc, #228]	; (8007eec <xTaskResumeAll+0xf8>)
 8007e08:	681b      	ldr	r3, [r3, #0]
 8007e0a:	3b01      	subs	r3, #1
 8007e0c:	4a37      	ldr	r2, [pc, #220]	; (8007eec <xTaskResumeAll+0xf8>)
 8007e0e:	6013      	str	r3, [r2, #0]

		if( uxSchedulerSuspended == ( UBaseType_t ) pdFALSE )
 8007e10:	4b36      	ldr	r3, [pc, #216]	; (8007eec <xTaskResumeAll+0xf8>)
 8007e12:	681b      	ldr	r3, [r3, #0]
 8007e14:	2b00      	cmp	r3, #0
 8007e16:	d162      	bne.n	8007ede <xTaskResumeAll+0xea>
		{
			if( uxCurrentNumberOfTasks > ( UBaseType_t ) 0U )
 8007e18:	4b35      	ldr	r3, [pc, #212]	; (8007ef0 <xTaskResumeAll+0xfc>)
 8007e1a:	681b      	ldr	r3, [r3, #0]
 8007e1c:	2b00      	cmp	r3, #0
 8007e1e:	d05e      	beq.n	8007ede <xTaskResumeAll+0xea>
			{
				/* Move any readied tasks from the pending list into the
				appropriate ready list. */
				while( listLIST_IS_EMPTY( &xPendingReadyList ) == pdFALSE )
 8007e20:	e02f      	b.n	8007e82 <xTaskResumeAll+0x8e>
				{
					pxTCB = ( TCB_t * ) listGET_OWNER_OF_HEAD_ENTRY( ( &xPendingReadyList ) );
 8007e22:	4b34      	ldr	r3, [pc, #208]	; (8007ef4 <xTaskResumeAll+0x100>)
 8007e24:	68db      	ldr	r3, [r3, #12]
 8007e26:	68db      	ldr	r3, [r3, #12]
 8007e28:	60fb      	str	r3, [r7, #12]
					( void ) uxListRemove( &( pxTCB->xEventListItem ) );
 8007e2a:	68fb      	ldr	r3, [r7, #12]
 8007e2c:	3318      	adds	r3, #24
 8007e2e:	4618      	mov	r0, r3
 8007e30:	f7ff f804 	bl	8006e3c <uxListRemove>
					( void ) uxListRemove( &( pxTCB->xStateListItem ) );
 8007e34:	68fb      	ldr	r3, [r7, #12]
 8007e36:	3304      	adds	r3, #4
 8007e38:	4618      	mov	r0, r3
 8007e3a:	f7fe ffff 	bl	8006e3c <uxListRemove>
					prvAddTaskToReadyList( pxTCB );
 8007e3e:	68fb      	ldr	r3, [r7, #12]
 8007e40:	6ada      	ldr	r2, [r3, #44]	; 0x2c
 8007e42:	4b2d      	ldr	r3, [pc, #180]	; (8007ef8 <xTaskResumeAll+0x104>)
 8007e44:	681b      	ldr	r3, [r3, #0]
 8007e46:	429a      	cmp	r2, r3
 8007e48:	d903      	bls.n	8007e52 <xTaskResumeAll+0x5e>
 8007e4a:	68fb      	ldr	r3, [r7, #12]
 8007e4c:	6adb      	ldr	r3, [r3, #44]	; 0x2c
 8007e4e:	4a2a      	ldr	r2, [pc, #168]	; (8007ef8 <xTaskResumeAll+0x104>)
 8007e50:	6013      	str	r3, [r2, #0]
 8007e52:	68fb      	ldr	r3, [r7, #12]
 8007e54:	6ada      	ldr	r2, [r3, #44]	; 0x2c
 8007e56:	4613      	mov	r3, r2
 8007e58:	009b      	lsls	r3, r3, #2
 8007e5a:	4413      	add	r3, r2
 8007e5c:	009b      	lsls	r3, r3, #2
 8007e5e:	4a27      	ldr	r2, [pc, #156]	; (8007efc <xTaskResumeAll+0x108>)
 8007e60:	441a      	add	r2, r3
 8007e62:	68fb      	ldr	r3, [r7, #12]
 8007e64:	3304      	adds	r3, #4
 8007e66:	4619      	mov	r1, r3
 8007e68:	4610      	mov	r0, r2
 8007e6a:	f7fe ff8c 	bl	8006d86 <vListInsertEnd>

					/* If the moved task has a priority higher than the current
					task then a yield must be performed. */
					if( pxTCB->uxPriority >= pxCurrentTCB->uxPriority )
 8007e6e:	68fb      	ldr	r3, [r7, #12]
 8007e70:	6ada      	ldr	r2, [r3, #44]	; 0x2c
 8007e72:	4b23      	ldr	r3, [pc, #140]	; (8007f00 <xTaskResumeAll+0x10c>)
 8007e74:	681b      	ldr	r3, [r3, #0]
 8007e76:	6adb      	ldr	r3, [r3, #44]	; 0x2c
 8007e78:	429a      	cmp	r2, r3
 8007e7a:	d302      	bcc.n	8007e82 <xTaskResumeAll+0x8e>
					{
						xYieldPending = pdTRUE;
 8007e7c:	4b21      	ldr	r3, [pc, #132]	; (8007f04 <xTaskResumeAll+0x110>)
 8007e7e:	2201      	movs	r2, #1
 8007e80:	601a      	str	r2, [r3, #0]
				while( listLIST_IS_EMPTY( &xPendingReadyList ) == pdFALSE )
 8007e82:	4b1c      	ldr	r3, [pc, #112]	; (8007ef4 <xTaskResumeAll+0x100>)
 8007e84:	681b      	ldr	r3, [r3, #0]
 8007e86:	2b00      	cmp	r3, #0
 8007e88:	d1cb      	bne.n	8007e22 <xTaskResumeAll+0x2e>
					{
						mtCOVERAGE_TEST_MARKER();
					}
				}

				if( pxTCB != NULL )
 8007e8a:	68fb      	ldr	r3, [r7, #12]
 8007e8c:	2b00      	cmp	r3, #0
 8007e8e:	d001      	beq.n	8007e94 <xTaskResumeAll+0xa0>
					which may have prevented the next unblock time from being
					re-calculated, in which case re-calculate it now.  Mainly
					important for low power tickless implementations, where
					this can prevent an unnecessary exit from low power
					state. */
					prvResetNextTaskUnblockTime();
 8007e90:	f000 fade 	bl	8008450 <prvResetNextTaskUnblockTime>
				/* If any ticks occurred while the scheduler was suspended then
				they should be processed now.  This ensures the tick count does
				not	slip, and that any delayed tasks are resumed at the correct
				time. */
				{
					UBaseType_t uxPendedCounts = uxPendedTicks; /* Non-volatile copy. */
 8007e94:	4b1c      	ldr	r3, [pc, #112]	; (8007f08 <xTaskResumeAll+0x114>)
 8007e96:	681b      	ldr	r3, [r3, #0]
 8007e98:	607b      	str	r3, [r7, #4]

					if( uxPendedCounts > ( UBaseType_t ) 0U )
 8007e9a:	687b      	ldr	r3, [r7, #4]
 8007e9c:	2b00      	cmp	r3, #0
 8007e9e:	d010      	beq.n	8007ec2 <xTaskResumeAll+0xce>
					{
						do
						{
							if( xTaskIncrementTick() != pdFALSE )
 8007ea0:	f000 f844 	bl	8007f2c <xTaskIncrementTick>
 8007ea4:	4603      	mov	r3, r0
 8007ea6:	2b00      	cmp	r3, #0
 8007ea8:	d002      	beq.n	8007eb0 <xTaskResumeAll+0xbc>
							{
								xYieldPending = pdTRUE;
 8007eaa:	4b16      	ldr	r3, [pc, #88]	; (8007f04 <xTaskResumeAll+0x110>)
 8007eac:	2201      	movs	r2, #1
 8007eae:	601a      	str	r2, [r3, #0]
							}
							else
							{
								mtCOVERAGE_TEST_MARKER();
							}
							--uxPendedCounts;
 8007eb0:	687b      	ldr	r3, [r7, #4]
 8007eb2:	3b01      	subs	r3, #1
 8007eb4:	607b      	str	r3, [r7, #4]
						} while( uxPendedCounts > ( UBaseType_t ) 0U );
 8007eb6:	687b      	ldr	r3, [r7, #4]
 8007eb8:	2b00      	cmp	r3, #0
 8007eba:	d1f1      	bne.n	8007ea0 <xTaskResumeAll+0xac>

						uxPendedTicks = 0;
 8007ebc:	4b12      	ldr	r3, [pc, #72]	; (8007f08 <xTaskResumeAll+0x114>)
 8007ebe:	2200      	movs	r2, #0
 8007ec0:	601a      	str	r2, [r3, #0]
					{
						mtCOVERAGE_TEST_MARKER();
					}
				}

				if( xYieldPending != pdFALSE )
 8007ec2:	4b10      	ldr	r3, [pc, #64]	; (8007f04 <xTaskResumeAll+0x110>)
 8007ec4:	681b      	ldr	r3, [r3, #0]
 8007ec6:	2b00      	cmp	r3, #0
 8007ec8:	d009      	beq.n	8007ede <xTaskResumeAll+0xea>
				{
					#if( configUSE_PREEMPTION != 0 )
					{
						xAlreadyYielded = pdTRUE;
 8007eca:	2301      	movs	r3, #1
 8007ecc:	60bb      	str	r3, [r7, #8]
					}
					#endif
					taskYIELD_IF_USING_PREEMPTION();
 8007ece:	4b0f      	ldr	r3, [pc, #60]	; (8007f0c <xTaskResumeAll+0x118>)
 8007ed0:	f04f 5280 	mov.w	r2, #268435456	; 0x10000000
 8007ed4:	601a      	str	r2, [r3, #0]
 8007ed6:	f3bf 8f4f 	dsb	sy
 8007eda:	f3bf 8f6f 	isb	sy
		else
		{
			mtCOVERAGE_TEST_MARKER();
		}
	}
	taskEXIT_CRITICAL();
 8007ede:	f000 ffd5 	bl	8008e8c <vPortExitCritical>

	return xAlreadyYielded;
 8007ee2:	68bb      	ldr	r3, [r7, #8]
}
 8007ee4:	4618      	mov	r0, r3
 8007ee6:	3710      	adds	r7, #16
 8007ee8:	46bd      	mov	sp, r7
 8007eea:	bd80      	pop	{r7, pc}
 8007eec:	20000bec 	.word	0x20000bec
 8007ef0:	20000bc4 	.word	0x20000bc4
 8007ef4:	20000b84 	.word	0x20000b84
 8007ef8:	20000bcc 	.word	0x20000bcc
 8007efc:	200006f4 	.word	0x200006f4
 8007f00:	200006f0 	.word	0x200006f0
 8007f04:	20000bd8 	.word	0x20000bd8
 8007f08:	20000bd4 	.word	0x20000bd4
 8007f0c:	e000ed04 	.word	0xe000ed04

08007f10 <xTaskGetTickCount>:
/*-----------------------------------------------------------*/

TickType_t xTaskGetTickCount( void )
{
 8007f10:	b480      	push	{r7}
 8007f12:	b083      	sub	sp, #12
 8007f14:	af00      	add	r7, sp, #0
TickType_t xTicks;

	/* Critical section required if running on a 16 bit processor. */
	portTICK_TYPE_ENTER_CRITICAL();
	{
		xTicks = xTickCount;
 8007f16:	4b04      	ldr	r3, [pc, #16]	; (8007f28 <xTaskGetTickCount+0x18>)
 8007f18:	681b      	ldr	r3, [r3, #0]
 8007f1a:	607b      	str	r3, [r7, #4]
	}
	portTICK_TYPE_EXIT_CRITICAL();

	return xTicks;
 8007f1c:	687b      	ldr	r3, [r7, #4]
}
 8007f1e:	4618      	mov	r0, r3
 8007f20:	370c      	adds	r7, #12
 8007f22:	46bd      	mov	sp, r7
 8007f24:	bc80      	pop	{r7}
 8007f26:	4770      	bx	lr
 8007f28:	20000bc8 	.word	0x20000bc8

08007f2c <xTaskIncrementTick>:

#endif /* INCLUDE_xTaskAbortDelay */
/*----------------------------------------------------------*/

BaseType_t xTaskIncrementTick( void )
{
 8007f2c:	b580      	push	{r7, lr}
 8007f2e:	b086      	sub	sp, #24
 8007f30:	af00      	add	r7, sp, #0
TCB_t * pxTCB;
TickType_t xItemValue;
BaseType_t xSwitchRequired = pdFALSE;
 8007f32:	2300      	movs	r3, #0
 8007f34:	617b      	str	r3, [r7, #20]

	/* Called by the portable layer each time a tick interrupt occurs.
	Increments the tick then checks to see if the new tick value will cause any
	tasks to be unblocked. */
	traceTASK_INCREMENT_TICK( xTickCount );
	if( uxSchedulerSuspended == ( UBaseType_t ) pdFALSE )
 8007f36:	4b49      	ldr	r3, [pc, #292]	; (800805c <xTaskIncrementTick+0x130>)
 8007f38:	681b      	ldr	r3, [r3, #0]
 8007f3a:	2b00      	cmp	r3, #0
 8007f3c:	d17d      	bne.n	800803a <xTaskIncrementTick+0x10e>
	{
		/* Minor optimisation.  The tick count cannot change in this
		block. */
		const TickType_t xConstTickCount = xTickCount + ( TickType_t ) 1;
 8007f3e:	4b48      	ldr	r3, [pc, #288]	; (8008060 <xTaskIncrementTick+0x134>)
 8007f40:	681b      	ldr	r3, [r3, #0]
 8007f42:	3301      	adds	r3, #1
 8007f44:	613b      	str	r3, [r7, #16]

		/* Increment the RTOS tick, switching the delayed and overflowed
		delayed lists if it wraps to 0. */
		xTickCount = xConstTickCount;
 8007f46:	4a46      	ldr	r2, [pc, #280]	; (8008060 <xTaskIncrementTick+0x134>)
 8007f48:	693b      	ldr	r3, [r7, #16]
 8007f4a:	6013      	str	r3, [r2, #0]

		if( xConstTickCount == ( TickType_t ) 0U ) /*lint !e774 'if' does not always evaluate to false as it is looking for an overflow. */
 8007f4c:	693b      	ldr	r3, [r7, #16]
 8007f4e:	2b00      	cmp	r3, #0
 8007f50:	d110      	bne.n	8007f74 <xTaskIncrementTick+0x48>
		{
			taskSWITCH_DELAYED_LISTS();
 8007f52:	4b44      	ldr	r3, [pc, #272]	; (8008064 <xTaskIncrementTick+0x138>)
 8007f54:	681b      	ldr	r3, [r3, #0]
 8007f56:	60fb      	str	r3, [r7, #12]
 8007f58:	4b43      	ldr	r3, [pc, #268]	; (8008068 <xTaskIncrementTick+0x13c>)
 8007f5a:	681b      	ldr	r3, [r3, #0]
 8007f5c:	4a41      	ldr	r2, [pc, #260]	; (8008064 <xTaskIncrementTick+0x138>)
 8007f5e:	6013      	str	r3, [r2, #0]
 8007f60:	4a41      	ldr	r2, [pc, #260]	; (8008068 <xTaskIncrementTick+0x13c>)
 8007f62:	68fb      	ldr	r3, [r7, #12]
 8007f64:	6013      	str	r3, [r2, #0]
 8007f66:	4b41      	ldr	r3, [pc, #260]	; (800806c <xTaskIncrementTick+0x140>)
 8007f68:	681b      	ldr	r3, [r3, #0]
 8007f6a:	3301      	adds	r3, #1
 8007f6c:	4a3f      	ldr	r2, [pc, #252]	; (800806c <xTaskIncrementTick+0x140>)
 8007f6e:	6013      	str	r3, [r2, #0]
 8007f70:	f000 fa6e 	bl	8008450 <prvResetNextTaskUnblockTime>

		/* See if this tick has made a timeout expire.  Tasks are stored in
		the	queue in the order of their wake time - meaning once one task
		has been found whose block time has not expired there is no need to
		look any further down the list. */
		if( xConstTickCount >= xNextTaskUnblockTime )
 8007f74:	4b3e      	ldr	r3, [pc, #248]	; (8008070 <xTaskIncrementTick+0x144>)
 8007f76:	681b      	ldr	r3, [r3, #0]
 8007f78:	693a      	ldr	r2, [r7, #16]
 8007f7a:	429a      	cmp	r2, r3
 8007f7c:	d34e      	bcc.n	800801c <xTaskIncrementTick+0xf0>
		{
			for( ;; )
			{
				if( listLIST_IS_EMPTY( pxDelayedTaskList ) != pdFALSE )
 8007f7e:	4b39      	ldr	r3, [pc, #228]	; (8008064 <xTaskIncrementTick+0x138>)
 8007f80:	681b      	ldr	r3, [r3, #0]
 8007f82:	681b      	ldr	r3, [r3, #0]
 8007f84:	2b00      	cmp	r3, #0
 8007f86:	d101      	bne.n	8007f8c <xTaskIncrementTick+0x60>
 8007f88:	2301      	movs	r3, #1
 8007f8a:	e000      	b.n	8007f8e <xTaskIncrementTick+0x62>
 8007f8c:	2300      	movs	r3, #0
 8007f8e:	2b00      	cmp	r3, #0
 8007f90:	d004      	beq.n	8007f9c <xTaskIncrementTick+0x70>
					/* The delayed list is empty.  Set xNextTaskUnblockTime
					to the maximum possible value so it is extremely
					unlikely that the
					if( xTickCount >= xNextTaskUnblockTime ) test will pass
					next time through. */
					xNextTaskUnblockTime = portMAX_DELAY; /*lint !e961 MISRA exception as the casts are only redundant for some ports. */
 8007f92:	4b37      	ldr	r3, [pc, #220]	; (8008070 <xTaskIncrementTick+0x144>)
 8007f94:	f04f 32ff 	mov.w	r2, #4294967295
 8007f98:	601a      	str	r2, [r3, #0]
					break;
 8007f9a:	e03f      	b.n	800801c <xTaskIncrementTick+0xf0>
				{
					/* The delayed list is not empty, get the value of the
					item at the head of the delayed list.  This is the time
					at which the task at the head of the delayed list must
					be removed from the Blocked state. */
					pxTCB = ( TCB_t * ) listGET_OWNER_OF_HEAD_ENTRY( pxDelayedTaskList );
 8007f9c:	4b31      	ldr	r3, [pc, #196]	; (8008064 <xTaskIncrementTick+0x138>)
 8007f9e:	681b      	ldr	r3, [r3, #0]
 8007fa0:	68db      	ldr	r3, [r3, #12]
 8007fa2:	68db      	ldr	r3, [r3, #12]
 8007fa4:	60bb      	str	r3, [r7, #8]
					xItemValue = listGET_LIST_ITEM_VALUE( &( pxTCB->xStateListItem ) );
 8007fa6:	68bb      	ldr	r3, [r7, #8]
 8007fa8:	685b      	ldr	r3, [r3, #4]
 8007faa:	607b      	str	r3, [r7, #4]

					if( xConstTickCount < xItemValue )
 8007fac:	693a      	ldr	r2, [r7, #16]
 8007fae:	687b      	ldr	r3, [r7, #4]
 8007fb0:	429a      	cmp	r2, r3
 8007fb2:	d203      	bcs.n	8007fbc <xTaskIncrementTick+0x90>
						/* It is not time to unblock this item yet, but the
						item value is the time at which the task at the head
						of the blocked list must be removed from the Blocked
						state -	so record the item value in
						xNextTaskUnblockTime. */
						xNextTaskUnblockTime = xItemValue;
 8007fb4:	4a2e      	ldr	r2, [pc, #184]	; (8008070 <xTaskIncrementTick+0x144>)
 8007fb6:	687b      	ldr	r3, [r7, #4]
 8007fb8:	6013      	str	r3, [r2, #0]
						break;
 8007fba:	e02f      	b.n	800801c <xTaskIncrementTick+0xf0>
					{
						mtCOVERAGE_TEST_MARKER();
					}

					/* It is time to remove the item from the Blocked state. */
					( void ) uxListRemove( &( pxTCB->xStateListItem ) );
 8007fbc:	68bb      	ldr	r3, [r7, #8]
 8007fbe:	3304      	adds	r3, #4
 8007fc0:	4618      	mov	r0, r3
 8007fc2:	f7fe ff3b 	bl	8006e3c <uxListRemove>

					/* Is the task waiting on an event also?  If so remove
					it from the event list. */
					if( listLIST_ITEM_CONTAINER( &( pxTCB->xEventListItem ) ) != NULL )
 8007fc6:	68bb      	ldr	r3, [r7, #8]
 8007fc8:	6a9b      	ldr	r3, [r3, #40]	; 0x28
 8007fca:	2b00      	cmp	r3, #0
 8007fcc:	d004      	beq.n	8007fd8 <xTaskIncrementTick+0xac>
					{
						( void ) uxListRemove( &( pxTCB->xEventListItem ) );
 8007fce:	68bb      	ldr	r3, [r7, #8]
 8007fd0:	3318      	adds	r3, #24
 8007fd2:	4618      	mov	r0, r3
 8007fd4:	f7fe ff32 	bl	8006e3c <uxListRemove>
						mtCOVERAGE_TEST_MARKER();
					}

					/* Place the unblocked task into the appropriate ready
					list. */
					prvAddTaskToReadyList( pxTCB );
 8007fd8:	68bb      	ldr	r3, [r7, #8]
 8007fda:	6ada      	ldr	r2, [r3, #44]	; 0x2c
 8007fdc:	4b25      	ldr	r3, [pc, #148]	; (8008074 <xTaskIncrementTick+0x148>)
 8007fde:	681b      	ldr	r3, [r3, #0]
 8007fe0:	429a      	cmp	r2, r3
 8007fe2:	d903      	bls.n	8007fec <xTaskIncrementTick+0xc0>
 8007fe4:	68bb      	ldr	r3, [r7, #8]
 8007fe6:	6adb      	ldr	r3, [r3, #44]	; 0x2c
 8007fe8:	4a22      	ldr	r2, [pc, #136]	; (8008074 <xTaskIncrementTick+0x148>)
 8007fea:	6013      	str	r3, [r2, #0]
 8007fec:	68bb      	ldr	r3, [r7, #8]
 8007fee:	6ada      	ldr	r2, [r3, #44]	; 0x2c
 8007ff0:	4613      	mov	r3, r2
 8007ff2:	009b      	lsls	r3, r3, #2
 8007ff4:	4413      	add	r3, r2
 8007ff6:	009b      	lsls	r3, r3, #2
 8007ff8:	4a1f      	ldr	r2, [pc, #124]	; (8008078 <xTaskIncrementTick+0x14c>)
 8007ffa:	441a      	add	r2, r3
 8007ffc:	68bb      	ldr	r3, [r7, #8]
 8007ffe:	3304      	adds	r3, #4
 8008000:	4619      	mov	r1, r3
 8008002:	4610      	mov	r0, r2
 8008004:	f7fe febf 	bl	8006d86 <vListInsertEnd>
					{
						/* Preemption is on, but a context switch should
						only be performed if the unblocked task has a
						priority that is equal to or higher than the
						currently executing task. */
						if( pxTCB->uxPriority >= pxCurrentTCB->uxPriority )
 8008008:	68bb      	ldr	r3, [r7, #8]
 800800a:	6ada      	ldr	r2, [r3, #44]	; 0x2c
 800800c:	4b1b      	ldr	r3, [pc, #108]	; (800807c <xTaskIncrementTick+0x150>)
 800800e:	681b      	ldr	r3, [r3, #0]
 8008010:	6adb      	ldr	r3, [r3, #44]	; 0x2c
 8008012:	429a      	cmp	r2, r3
 8008014:	d3b3      	bcc.n	8007f7e <xTaskIncrementTick+0x52>
						{
							xSwitchRequired = pdTRUE;
 8008016:	2301      	movs	r3, #1
 8008018:	617b      	str	r3, [r7, #20]
				if( listLIST_IS_EMPTY( pxDelayedTaskList ) != pdFALSE )
 800801a:	e7b0      	b.n	8007f7e <xTaskIncrementTick+0x52>
		/* Tasks of equal priority to the currently running task will share
		processing time (time slice) if preemption is on, and the application
		writer has not explicitly turned time slicing off. */
		#if ( ( configUSE_PREEMPTION == 1 ) && ( configUSE_TIME_SLICING == 1 ) )
		{
			if( listCURRENT_LIST_LENGTH( &( pxReadyTasksLists[ pxCurrentTCB->uxPriority ] ) ) > ( UBaseType_t ) 1 )
 800801c:	4b17      	ldr	r3, [pc, #92]	; (800807c <xTaskIncrementTick+0x150>)
 800801e:	681b      	ldr	r3, [r3, #0]
 8008020:	6ada      	ldr	r2, [r3, #44]	; 0x2c
 8008022:	4915      	ldr	r1, [pc, #84]	; (8008078 <xTaskIncrementTick+0x14c>)
 8008024:	4613      	mov	r3, r2
 8008026:	009b      	lsls	r3, r3, #2
 8008028:	4413      	add	r3, r2
 800802a:	009b      	lsls	r3, r3, #2
 800802c:	440b      	add	r3, r1
 800802e:	681b      	ldr	r3, [r3, #0]
 8008030:	2b01      	cmp	r3, #1
 8008032:	d907      	bls.n	8008044 <xTaskIncrementTick+0x118>
			{
				xSwitchRequired = pdTRUE;
 8008034:	2301      	movs	r3, #1
 8008036:	617b      	str	r3, [r7, #20]
 8008038:	e004      	b.n	8008044 <xTaskIncrementTick+0x118>
		}
		#endif /* configUSE_TICK_HOOK */
	}
	else
	{
		++uxPendedTicks;
 800803a:	4b11      	ldr	r3, [pc, #68]	; (8008080 <xTaskIncrementTick+0x154>)
 800803c:	681b      	ldr	r3, [r3, #0]
 800803e:	3301      	adds	r3, #1
 8008040:	4a0f      	ldr	r2, [pc, #60]	; (8008080 <xTaskIncrementTick+0x154>)
 8008042:	6013      	str	r3, [r2, #0]
		#endif
	}

	#if ( configUSE_PREEMPTION == 1 )
	{
		if( xYieldPending != pdFALSE )
 8008044:	4b0f      	ldr	r3, [pc, #60]	; (8008084 <xTaskIncrementTick+0x158>)
 8008046:	681b      	ldr	r3, [r3, #0]
 8008048:	2b00      	cmp	r3, #0
 800804a:	d001      	beq.n	8008050 <xTaskIncrementTick+0x124>
		{
			xSwitchRequired = pdTRUE;
 800804c:	2301      	movs	r3, #1
 800804e:	617b      	str	r3, [r7, #20]
			mtCOVERAGE_TEST_MARKER();
		}
	}
	#endif /* configUSE_PREEMPTION */

	return xSwitchRequired;
 8008050:	697b      	ldr	r3, [r7, #20]
}
 8008052:	4618      	mov	r0, r3
 8008054:	3718      	adds	r7, #24
 8008056:	46bd      	mov	sp, r7
 8008058:	bd80      	pop	{r7, pc}
 800805a:	bf00      	nop
 800805c:	20000bec 	.word	0x20000bec
 8008060:	20000bc8 	.word	0x20000bc8
 8008064:	20000b7c 	.word	0x20000b7c
 8008068:	20000b80 	.word	0x20000b80
 800806c:	20000bdc 	.word	0x20000bdc
 8008070:	20000be4 	.word	0x20000be4
 8008074:	20000bcc 	.word	0x20000bcc
 8008078:	200006f4 	.word	0x200006f4
 800807c:	200006f0 	.word	0x200006f0
 8008080:	20000bd4 	.word	0x20000bd4
 8008084:	20000bd8 	.word	0x20000bd8

08008088 <vTaskSwitchContext>:

#endif /* configUSE_APPLICATION_TASK_TAG */
/*-----------------------------------------------------------*/

void vTaskSwitchContext( void )
{
 8008088:	b480      	push	{r7}
 800808a:	b083      	sub	sp, #12
 800808c:	af00      	add	r7, sp, #0
	if( uxSchedulerSuspended != ( UBaseType_t ) pdFALSE )
 800808e:	4b20      	ldr	r3, [pc, #128]	; (8008110 <vTaskSwitchContext+0x88>)
 8008090:	681b      	ldr	r3, [r3, #0]
 8008092:	2b00      	cmp	r3, #0
 8008094:	d003      	beq.n	800809e <vTaskSwitchContext+0x16>
	{
		/* The scheduler is currently suspended - do not allow a context
		switch. */
		xYieldPending = pdTRUE;
 8008096:	4b1f      	ldr	r3, [pc, #124]	; (8008114 <vTaskSwitchContext+0x8c>)
 8008098:	2201      	movs	r2, #1
 800809a:	601a      	str	r2, [r3, #0]
			structure specific to this task. */
			_impure_ptr = &( pxCurrentTCB->xNewLib_reent );
		}
		#endif /* configUSE_NEWLIB_REENTRANT */
	}
}
 800809c:	e033      	b.n	8008106 <vTaskSwitchContext+0x7e>
		xYieldPending = pdFALSE;
 800809e:	4b1d      	ldr	r3, [pc, #116]	; (8008114 <vTaskSwitchContext+0x8c>)
 80080a0:	2200      	movs	r2, #0
 80080a2:	601a      	str	r2, [r3, #0]
		taskSELECT_HIGHEST_PRIORITY_TASK();
 80080a4:	4b1c      	ldr	r3, [pc, #112]	; (8008118 <vTaskSwitchContext+0x90>)
 80080a6:	681b      	ldr	r3, [r3, #0]
 80080a8:	607b      	str	r3, [r7, #4]
 80080aa:	e002      	b.n	80080b2 <vTaskSwitchContext+0x2a>
 80080ac:	687b      	ldr	r3, [r7, #4]
 80080ae:	3b01      	subs	r3, #1
 80080b0:	607b      	str	r3, [r7, #4]
 80080b2:	491a      	ldr	r1, [pc, #104]	; (800811c <vTaskSwitchContext+0x94>)
 80080b4:	687a      	ldr	r2, [r7, #4]
 80080b6:	4613      	mov	r3, r2
 80080b8:	009b      	lsls	r3, r3, #2
 80080ba:	4413      	add	r3, r2
 80080bc:	009b      	lsls	r3, r3, #2
 80080be:	440b      	add	r3, r1
 80080c0:	681b      	ldr	r3, [r3, #0]
 80080c2:	2b00      	cmp	r3, #0
 80080c4:	d0f2      	beq.n	80080ac <vTaskSwitchContext+0x24>
 80080c6:	687a      	ldr	r2, [r7, #4]
 80080c8:	4613      	mov	r3, r2
 80080ca:	009b      	lsls	r3, r3, #2
 80080cc:	4413      	add	r3, r2
 80080ce:	009b      	lsls	r3, r3, #2
 80080d0:	4a12      	ldr	r2, [pc, #72]	; (800811c <vTaskSwitchContext+0x94>)
 80080d2:	4413      	add	r3, r2
 80080d4:	603b      	str	r3, [r7, #0]
 80080d6:	683b      	ldr	r3, [r7, #0]
 80080d8:	685b      	ldr	r3, [r3, #4]
 80080da:	685a      	ldr	r2, [r3, #4]
 80080dc:	683b      	ldr	r3, [r7, #0]
 80080de:	605a      	str	r2, [r3, #4]
 80080e0:	683b      	ldr	r3, [r7, #0]
 80080e2:	685a      	ldr	r2, [r3, #4]
 80080e4:	683b      	ldr	r3, [r7, #0]
 80080e6:	3308      	adds	r3, #8
 80080e8:	429a      	cmp	r2, r3
 80080ea:	d104      	bne.n	80080f6 <vTaskSwitchContext+0x6e>
 80080ec:	683b      	ldr	r3, [r7, #0]
 80080ee:	685b      	ldr	r3, [r3, #4]
 80080f0:	685a      	ldr	r2, [r3, #4]
 80080f2:	683b      	ldr	r3, [r7, #0]
 80080f4:	605a      	str	r2, [r3, #4]
 80080f6:	683b      	ldr	r3, [r7, #0]
 80080f8:	685b      	ldr	r3, [r3, #4]
 80080fa:	68db      	ldr	r3, [r3, #12]
 80080fc:	4a08      	ldr	r2, [pc, #32]	; (8008120 <vTaskSwitchContext+0x98>)
 80080fe:	6013      	str	r3, [r2, #0]
 8008100:	4a05      	ldr	r2, [pc, #20]	; (8008118 <vTaskSwitchContext+0x90>)
 8008102:	687b      	ldr	r3, [r7, #4]
 8008104:	6013      	str	r3, [r2, #0]
}
 8008106:	bf00      	nop
 8008108:	370c      	adds	r7, #12
 800810a:	46bd      	mov	sp, r7
 800810c:	bc80      	pop	{r7}
 800810e:	4770      	bx	lr
 8008110:	20000bec 	.word	0x20000bec
 8008114:	20000bd8 	.word	0x20000bd8
 8008118:	20000bcc 	.word	0x20000bcc
 800811c:	200006f4 	.word	0x200006f4
 8008120:	200006f0 	.word	0x200006f0

08008124 <vTaskPlaceOnEventList>:
/*-----------------------------------------------------------*/

void vTaskPlaceOnEventList( List_t * const pxEventList, const TickType_t xTicksToWait )
{
 8008124:	b580      	push	{r7, lr}
 8008126:	b082      	sub	sp, #8
 8008128:	af00      	add	r7, sp, #0
 800812a:	6078      	str	r0, [r7, #4]
 800812c:	6039      	str	r1, [r7, #0]

	/* Place the event list item of the TCB in the appropriate event list.
	This is placed in the list in priority order so the highest priority task
	is the first to be woken by the event.  The queue that contains the event
	list is locked, preventing simultaneous access from interrupts. */
	vListInsert( pxEventList, &( pxCurrentTCB->xEventListItem ) );
 800812e:	4b07      	ldr	r3, [pc, #28]	; (800814c <vTaskPlaceOnEventList+0x28>)
 8008130:	681b      	ldr	r3, [r3, #0]
 8008132:	3318      	adds	r3, #24
 8008134:	4619      	mov	r1, r3
 8008136:	6878      	ldr	r0, [r7, #4]
 8008138:	f7fe fe48 	bl	8006dcc <vListInsert>

	prvAddCurrentTaskToDelayedList( xTicksToWait, pdTRUE );
 800813c:	2101      	movs	r1, #1
 800813e:	6838      	ldr	r0, [r7, #0]
 8008140:	f000 fafc 	bl	800873c <prvAddCurrentTaskToDelayedList>
}
 8008144:	bf00      	nop
 8008146:	3708      	adds	r7, #8
 8008148:	46bd      	mov	sp, r7
 800814a:	bd80      	pop	{r7, pc}
 800814c:	200006f0 	.word	0x200006f0

08008150 <vTaskPlaceOnEventListRestricted>:
/*-----------------------------------------------------------*/

#if( configUSE_TIMERS == 1 )

	void vTaskPlaceOnEventListRestricted( List_t * const pxEventList, TickType_t xTicksToWait, const BaseType_t xWaitIndefinitely )
	{
 8008150:	b580      	push	{r7, lr}
 8008152:	b084      	sub	sp, #16
 8008154:	af00      	add	r7, sp, #0
 8008156:	60f8      	str	r0, [r7, #12]
 8008158:	60b9      	str	r1, [r7, #8]
 800815a:	607a      	str	r2, [r7, #4]

		/* Place the event list item of the TCB in the appropriate event list.
		In this case it is assume that this is the only task that is going to
		be waiting on this event list, so the faster vListInsertEnd() function
		can be used in place of vListInsert. */
		vListInsertEnd( pxEventList, &( pxCurrentTCB->xEventListItem ) );
 800815c:	4b0a      	ldr	r3, [pc, #40]	; (8008188 <vTaskPlaceOnEventListRestricted+0x38>)
 800815e:	681b      	ldr	r3, [r3, #0]
 8008160:	3318      	adds	r3, #24
 8008162:	4619      	mov	r1, r3
 8008164:	68f8      	ldr	r0, [r7, #12]
 8008166:	f7fe fe0e 	bl	8006d86 <vListInsertEnd>

		/* If the task should block indefinitely then set the block time to a
		value that will be recognised as an indefinite delay inside the
		prvAddCurrentTaskToDelayedList() function. */
		if( xWaitIndefinitely != pdFALSE )
 800816a:	687b      	ldr	r3, [r7, #4]
 800816c:	2b00      	cmp	r3, #0
 800816e:	d002      	beq.n	8008176 <vTaskPlaceOnEventListRestricted+0x26>
		{
			xTicksToWait = portMAX_DELAY;
 8008170:	f04f 33ff 	mov.w	r3, #4294967295
 8008174:	60bb      	str	r3, [r7, #8]
		}

		traceTASK_DELAY_UNTIL( ( xTickCount + xTicksToWait ) );
		prvAddCurrentTaskToDelayedList( xTicksToWait, xWaitIndefinitely );
 8008176:	6879      	ldr	r1, [r7, #4]
 8008178:	68b8      	ldr	r0, [r7, #8]
 800817a:	f000 fadf 	bl	800873c <prvAddCurrentTaskToDelayedList>
	}
 800817e:	bf00      	nop
 8008180:	3710      	adds	r7, #16
 8008182:	46bd      	mov	sp, r7
 8008184:	bd80      	pop	{r7, pc}
 8008186:	bf00      	nop
 8008188:	200006f0 	.word	0x200006f0

0800818c <xTaskRemoveFromEventList>:

#endif /* configUSE_TIMERS */
/*-----------------------------------------------------------*/

BaseType_t xTaskRemoveFromEventList( const List_t * const pxEventList )
{
 800818c:	b580      	push	{r7, lr}
 800818e:	b084      	sub	sp, #16
 8008190:	af00      	add	r7, sp, #0
 8008192:	6078      	str	r0, [r7, #4]
	get called - the lock count on the queue will get modified instead.  This
	means exclusive access to the event list is guaranteed here.

	This function assumes that a check has already been made to ensure that
	pxEventList is not empty. */
	pxUnblockedTCB = ( TCB_t * ) listGET_OWNER_OF_HEAD_ENTRY( pxEventList );
 8008194:	687b      	ldr	r3, [r7, #4]
 8008196:	68db      	ldr	r3, [r3, #12]
 8008198:	68db      	ldr	r3, [r3, #12]
 800819a:	60bb      	str	r3, [r7, #8]
	configASSERT( pxUnblockedTCB );
	( void ) uxListRemove( &( pxUnblockedTCB->xEventListItem ) );
 800819c:	68bb      	ldr	r3, [r7, #8]
 800819e:	3318      	adds	r3, #24
 80081a0:	4618      	mov	r0, r3
 80081a2:	f7fe fe4b 	bl	8006e3c <uxListRemove>

	if( uxSchedulerSuspended == ( UBaseType_t ) pdFALSE )
 80081a6:	4b1e      	ldr	r3, [pc, #120]	; (8008220 <xTaskRemoveFromEventList+0x94>)
 80081a8:	681b      	ldr	r3, [r3, #0]
 80081aa:	2b00      	cmp	r3, #0
 80081ac:	d11d      	bne.n	80081ea <xTaskRemoveFromEventList+0x5e>
	{
		( void ) uxListRemove( &( pxUnblockedTCB->xStateListItem ) );
 80081ae:	68bb      	ldr	r3, [r7, #8]
 80081b0:	3304      	adds	r3, #4
 80081b2:	4618      	mov	r0, r3
 80081b4:	f7fe fe42 	bl	8006e3c <uxListRemove>
		prvAddTaskToReadyList( pxUnblockedTCB );
 80081b8:	68bb      	ldr	r3, [r7, #8]
 80081ba:	6ada      	ldr	r2, [r3, #44]	; 0x2c
 80081bc:	4b19      	ldr	r3, [pc, #100]	; (8008224 <xTaskRemoveFromEventList+0x98>)
 80081be:	681b      	ldr	r3, [r3, #0]
 80081c0:	429a      	cmp	r2, r3
 80081c2:	d903      	bls.n	80081cc <xTaskRemoveFromEventList+0x40>
 80081c4:	68bb      	ldr	r3, [r7, #8]
 80081c6:	6adb      	ldr	r3, [r3, #44]	; 0x2c
 80081c8:	4a16      	ldr	r2, [pc, #88]	; (8008224 <xTaskRemoveFromEventList+0x98>)
 80081ca:	6013      	str	r3, [r2, #0]
 80081cc:	68bb      	ldr	r3, [r7, #8]
 80081ce:	6ada      	ldr	r2, [r3, #44]	; 0x2c
 80081d0:	4613      	mov	r3, r2
 80081d2:	009b      	lsls	r3, r3, #2
 80081d4:	4413      	add	r3, r2
 80081d6:	009b      	lsls	r3, r3, #2
 80081d8:	4a13      	ldr	r2, [pc, #76]	; (8008228 <xTaskRemoveFromEventList+0x9c>)
 80081da:	441a      	add	r2, r3
 80081dc:	68bb      	ldr	r3, [r7, #8]
 80081de:	3304      	adds	r3, #4
 80081e0:	4619      	mov	r1, r3
 80081e2:	4610      	mov	r0, r2
 80081e4:	f7fe fdcf 	bl	8006d86 <vListInsertEnd>
 80081e8:	e005      	b.n	80081f6 <xTaskRemoveFromEventList+0x6a>
	}
	else
	{
		/* The delayed and ready lists cannot be accessed, so hold this task
		pending until the scheduler is resumed. */
		vListInsertEnd( &( xPendingReadyList ), &( pxUnblockedTCB->xEventListItem ) );
 80081ea:	68bb      	ldr	r3, [r7, #8]
 80081ec:	3318      	adds	r3, #24
 80081ee:	4619      	mov	r1, r3
 80081f0:	480e      	ldr	r0, [pc, #56]	; (800822c <xTaskRemoveFromEventList+0xa0>)
 80081f2:	f7fe fdc8 	bl	8006d86 <vListInsertEnd>
	}

	if( pxUnblockedTCB->uxPriority > pxCurrentTCB->uxPriority )
 80081f6:	68bb      	ldr	r3, [r7, #8]
 80081f8:	6ada      	ldr	r2, [r3, #44]	; 0x2c
 80081fa:	4b0d      	ldr	r3, [pc, #52]	; (8008230 <xTaskRemoveFromEventList+0xa4>)
 80081fc:	681b      	ldr	r3, [r3, #0]
 80081fe:	6adb      	ldr	r3, [r3, #44]	; 0x2c
 8008200:	429a      	cmp	r2, r3
 8008202:	d905      	bls.n	8008210 <xTaskRemoveFromEventList+0x84>
	{
		/* Return true if the task removed from the event list has a higher
		priority than the calling task.  This allows the calling task to know if
		it should force a context switch now. */
		xReturn = pdTRUE;
 8008204:	2301      	movs	r3, #1
 8008206:	60fb      	str	r3, [r7, #12]

		/* Mark that a yield is pending in case the user is not using the
		"xHigherPriorityTaskWoken" parameter to an ISR safe FreeRTOS function. */
		xYieldPending = pdTRUE;
 8008208:	4b0a      	ldr	r3, [pc, #40]	; (8008234 <xTaskRemoveFromEventList+0xa8>)
 800820a:	2201      	movs	r2, #1
 800820c:	601a      	str	r2, [r3, #0]
 800820e:	e001      	b.n	8008214 <xTaskRemoveFromEventList+0x88>
	}
	else
	{
		xReturn = pdFALSE;
 8008210:	2300      	movs	r3, #0
 8008212:	60fb      	str	r3, [r7, #12]
		ensure it is updated at the earliest possible time. */
		prvResetNextTaskUnblockTime();
	}
	#endif

	return xReturn;
 8008214:	68fb      	ldr	r3, [r7, #12]
}
 8008216:	4618      	mov	r0, r3
 8008218:	3710      	adds	r7, #16
 800821a:	46bd      	mov	sp, r7
 800821c:	bd80      	pop	{r7, pc}
 800821e:	bf00      	nop
 8008220:	20000bec 	.word	0x20000bec
 8008224:	20000bcc 	.word	0x20000bcc
 8008228:	200006f4 	.word	0x200006f4
 800822c:	20000b84 	.word	0x20000b84
 8008230:	200006f0 	.word	0x200006f0
 8008234:	20000bd8 	.word	0x20000bd8

08008238 <vTaskInternalSetTimeOutState>:
	taskEXIT_CRITICAL();
}
/*-----------------------------------------------------------*/

void vTaskInternalSetTimeOutState( TimeOut_t * const pxTimeOut )
{
 8008238:	b480      	push	{r7}
 800823a:	b083      	sub	sp, #12
 800823c:	af00      	add	r7, sp, #0
 800823e:	6078      	str	r0, [r7, #4]
	/* For internal use only as it does not use a critical section. */
	pxTimeOut->xOverflowCount = xNumOfOverflows;
 8008240:	4b06      	ldr	r3, [pc, #24]	; (800825c <vTaskInternalSetTimeOutState+0x24>)
 8008242:	681a      	ldr	r2, [r3, #0]
 8008244:	687b      	ldr	r3, [r7, #4]
 8008246:	601a      	str	r2, [r3, #0]
	pxTimeOut->xTimeOnEntering = xTickCount;
 8008248:	4b05      	ldr	r3, [pc, #20]	; (8008260 <vTaskInternalSetTimeOutState+0x28>)
 800824a:	681a      	ldr	r2, [r3, #0]
 800824c:	687b      	ldr	r3, [r7, #4]
 800824e:	605a      	str	r2, [r3, #4]
}
 8008250:	bf00      	nop
 8008252:	370c      	adds	r7, #12
 8008254:	46bd      	mov	sp, r7
 8008256:	bc80      	pop	{r7}
 8008258:	4770      	bx	lr
 800825a:	bf00      	nop
 800825c:	20000bdc 	.word	0x20000bdc
 8008260:	20000bc8 	.word	0x20000bc8

08008264 <xTaskCheckForTimeOut>:
/*-----------------------------------------------------------*/

BaseType_t xTaskCheckForTimeOut( TimeOut_t * const pxTimeOut, TickType_t * const pxTicksToWait )
{
 8008264:	b580      	push	{r7, lr}
 8008266:	b086      	sub	sp, #24
 8008268:	af00      	add	r7, sp, #0
 800826a:	6078      	str	r0, [r7, #4]
 800826c:	6039      	str	r1, [r7, #0]
BaseType_t xReturn;

	configASSERT( pxTimeOut );
	configASSERT( pxTicksToWait );

	taskENTER_CRITICAL();
 800826e:	f000 fdf3 	bl	8008e58 <vPortEnterCritical>
	{
		/* Minor optimisation.  The tick count cannot change in this block. */
		const TickType_t xConstTickCount = xTickCount;
 8008272:	4b1d      	ldr	r3, [pc, #116]	; (80082e8 <xTaskCheckForTimeOut+0x84>)
 8008274:	681b      	ldr	r3, [r3, #0]
 8008276:	613b      	str	r3, [r7, #16]
		const TickType_t xElapsedTime = xConstTickCount - pxTimeOut->xTimeOnEntering;
 8008278:	687b      	ldr	r3, [r7, #4]
 800827a:	685b      	ldr	r3, [r3, #4]
 800827c:	693a      	ldr	r2, [r7, #16]
 800827e:	1ad3      	subs	r3, r2, r3
 8008280:	60fb      	str	r3, [r7, #12]
			}
			else
		#endif

		#if ( INCLUDE_vTaskSuspend == 1 )
			if( *pxTicksToWait == portMAX_DELAY )
 8008282:	683b      	ldr	r3, [r7, #0]
 8008284:	681b      	ldr	r3, [r3, #0]
 8008286:	f1b3 3fff 	cmp.w	r3, #4294967295
 800828a:	d102      	bne.n	8008292 <xTaskCheckForTimeOut+0x2e>
			{
				/* If INCLUDE_vTaskSuspend is set to 1 and the block time
				specified is the maximum block time then the task should block
				indefinitely, and therefore never time out. */
				xReturn = pdFALSE;
 800828c:	2300      	movs	r3, #0
 800828e:	617b      	str	r3, [r7, #20]
 8008290:	e023      	b.n	80082da <xTaskCheckForTimeOut+0x76>
			}
			else
		#endif

		if( ( xNumOfOverflows != pxTimeOut->xOverflowCount ) && ( xConstTickCount >= pxTimeOut->xTimeOnEntering ) ) /*lint !e525 Indentation preferred as is to make code within pre-processor directives clearer. */
 8008292:	687b      	ldr	r3, [r7, #4]
 8008294:	681a      	ldr	r2, [r3, #0]
 8008296:	4b15      	ldr	r3, [pc, #84]	; (80082ec <xTaskCheckForTimeOut+0x88>)
 8008298:	681b      	ldr	r3, [r3, #0]
 800829a:	429a      	cmp	r2, r3
 800829c:	d007      	beq.n	80082ae <xTaskCheckForTimeOut+0x4a>
 800829e:	687b      	ldr	r3, [r7, #4]
 80082a0:	685b      	ldr	r3, [r3, #4]
 80082a2:	693a      	ldr	r2, [r7, #16]
 80082a4:	429a      	cmp	r2, r3
 80082a6:	d302      	bcc.n	80082ae <xTaskCheckForTimeOut+0x4a>
			/* The tick count is greater than the time at which
			vTaskSetTimeout() was called, but has also overflowed since
			vTaskSetTimeOut() was called.  It must have wrapped all the way
			around and gone past again. This passed since vTaskSetTimeout()
			was called. */
			xReturn = pdTRUE;
 80082a8:	2301      	movs	r3, #1
 80082aa:	617b      	str	r3, [r7, #20]
 80082ac:	e015      	b.n	80082da <xTaskCheckForTimeOut+0x76>
		}
		else if( xElapsedTime < *pxTicksToWait ) /*lint !e961 Explicit casting is only redundant with some compilers, whereas others require it to prevent integer conversion errors. */
 80082ae:	683b      	ldr	r3, [r7, #0]
 80082b0:	681b      	ldr	r3, [r3, #0]
 80082b2:	68fa      	ldr	r2, [r7, #12]
 80082b4:	429a      	cmp	r2, r3
 80082b6:	d20b      	bcs.n	80082d0 <xTaskCheckForTimeOut+0x6c>
		{
			/* Not a genuine timeout. Adjust parameters for time remaining. */
			*pxTicksToWait -= xElapsedTime;
 80082b8:	683b      	ldr	r3, [r7, #0]
 80082ba:	681a      	ldr	r2, [r3, #0]
 80082bc:	68fb      	ldr	r3, [r7, #12]
 80082be:	1ad2      	subs	r2, r2, r3
 80082c0:	683b      	ldr	r3, [r7, #0]
 80082c2:	601a      	str	r2, [r3, #0]
			vTaskInternalSetTimeOutState( pxTimeOut );
 80082c4:	6878      	ldr	r0, [r7, #4]
 80082c6:	f7ff ffb7 	bl	8008238 <vTaskInternalSetTimeOutState>
			xReturn = pdFALSE;
 80082ca:	2300      	movs	r3, #0
 80082cc:	617b      	str	r3, [r7, #20]
 80082ce:	e004      	b.n	80082da <xTaskCheckForTimeOut+0x76>
		}
		else
		{
			*pxTicksToWait = 0;
 80082d0:	683b      	ldr	r3, [r7, #0]
 80082d2:	2200      	movs	r2, #0
 80082d4:	601a      	str	r2, [r3, #0]
			xReturn = pdTRUE;
 80082d6:	2301      	movs	r3, #1
 80082d8:	617b      	str	r3, [r7, #20]
		}
	}
	taskEXIT_CRITICAL();
 80082da:	f000 fdd7 	bl	8008e8c <vPortExitCritical>

	return xReturn;
 80082de:	697b      	ldr	r3, [r7, #20]
}
 80082e0:	4618      	mov	r0, r3
 80082e2:	3718      	adds	r7, #24
 80082e4:	46bd      	mov	sp, r7
 80082e6:	bd80      	pop	{r7, pc}
 80082e8:	20000bc8 	.word	0x20000bc8
 80082ec:	20000bdc 	.word	0x20000bdc

080082f0 <vTaskMissedYield>:
/*-----------------------------------------------------------*/

void vTaskMissedYield( void )
{
 80082f0:	b480      	push	{r7}
 80082f2:	af00      	add	r7, sp, #0
	xYieldPending = pdTRUE;
 80082f4:	4b03      	ldr	r3, [pc, #12]	; (8008304 <vTaskMissedYield+0x14>)
 80082f6:	2201      	movs	r2, #1
 80082f8:	601a      	str	r2, [r3, #0]
}
 80082fa:	bf00      	nop
 80082fc:	46bd      	mov	sp, r7
 80082fe:	bc80      	pop	{r7}
 8008300:	4770      	bx	lr
 8008302:	bf00      	nop
 8008304:	20000bd8 	.word	0x20000bd8

08008308 <prvIdleTask>:
 *
 * void prvIdleTask( void *pvParameters );
 *
 */
static portTASK_FUNCTION( prvIdleTask, pvParameters )
{
 8008308:	b580      	push	{r7, lr}
 800830a:	b082      	sub	sp, #8
 800830c:	af00      	add	r7, sp, #0
 800830e:	6078      	str	r0, [r7, #4]

	for( ;; )
	{
		/* See if any tasks have deleted themselves - if so then the idle task
		is responsible for freeing the deleted task's TCB and stack. */
		prvCheckTasksWaitingTermination();
 8008310:	f000 f852 	bl	80083b8 <prvCheckTasksWaitingTermination>

			A critical region is not required here as we are just reading from
			the list, and an occasional incorrect value will not matter.  If
			the ready list at the idle priority contains more than one task
			then a task other than the idle task is ready to execute. */
			if( listCURRENT_LIST_LENGTH( &( pxReadyTasksLists[ tskIDLE_PRIORITY ] ) ) > ( UBaseType_t ) 1 )
 8008314:	4b06      	ldr	r3, [pc, #24]	; (8008330 <prvIdleTask+0x28>)
 8008316:	681b      	ldr	r3, [r3, #0]
 8008318:	2b01      	cmp	r3, #1
 800831a:	d9f9      	bls.n	8008310 <prvIdleTask+0x8>
			{
				taskYIELD();
 800831c:	4b05      	ldr	r3, [pc, #20]	; (8008334 <prvIdleTask+0x2c>)
 800831e:	f04f 5280 	mov.w	r2, #268435456	; 0x10000000
 8008322:	601a      	str	r2, [r3, #0]
 8008324:	f3bf 8f4f 	dsb	sy
 8008328:	f3bf 8f6f 	isb	sy
		prvCheckTasksWaitingTermination();
 800832c:	e7f0      	b.n	8008310 <prvIdleTask+0x8>
 800832e:	bf00      	nop
 8008330:	200006f4 	.word	0x200006f4
 8008334:	e000ed04 	.word	0xe000ed04

08008338 <prvInitialiseTaskLists>:

#endif /* portUSING_MPU_WRAPPERS */
/*-----------------------------------------------------------*/

static void prvInitialiseTaskLists( void )
{
 8008338:	b580      	push	{r7, lr}
 800833a:	b082      	sub	sp, #8
 800833c:	af00      	add	r7, sp, #0
UBaseType_t uxPriority;

	for( uxPriority = ( UBaseType_t ) 0U; uxPriority < ( UBaseType_t ) configMAX_PRIORITIES; uxPriority++ )
 800833e:	2300      	movs	r3, #0
 8008340:	607b      	str	r3, [r7, #4]
 8008342:	e00c      	b.n	800835e <prvInitialiseTaskLists+0x26>
	{
		vListInitialise( &( pxReadyTasksLists[ uxPriority ] ) );
 8008344:	687a      	ldr	r2, [r7, #4]
 8008346:	4613      	mov	r3, r2
 8008348:	009b      	lsls	r3, r3, #2
 800834a:	4413      	add	r3, r2
 800834c:	009b      	lsls	r3, r3, #2
 800834e:	4a12      	ldr	r2, [pc, #72]	; (8008398 <prvInitialiseTaskLists+0x60>)
 8008350:	4413      	add	r3, r2
 8008352:	4618      	mov	r0, r3
 8008354:	f7fe fcec 	bl	8006d30 <vListInitialise>
	for( uxPriority = ( UBaseType_t ) 0U; uxPriority < ( UBaseType_t ) configMAX_PRIORITIES; uxPriority++ )
 8008358:	687b      	ldr	r3, [r7, #4]
 800835a:	3301      	adds	r3, #1
 800835c:	607b      	str	r3, [r7, #4]
 800835e:	687b      	ldr	r3, [r7, #4]
 8008360:	2b37      	cmp	r3, #55	; 0x37
 8008362:	d9ef      	bls.n	8008344 <prvInitialiseTaskLists+0xc>
	}

	vListInitialise( &xDelayedTaskList1 );
 8008364:	480d      	ldr	r0, [pc, #52]	; (800839c <prvInitialiseTaskLists+0x64>)
 8008366:	f7fe fce3 	bl	8006d30 <vListInitialise>
	vListInitialise( &xDelayedTaskList2 );
 800836a:	480d      	ldr	r0, [pc, #52]	; (80083a0 <prvInitialiseTaskLists+0x68>)
 800836c:	f7fe fce0 	bl	8006d30 <vListInitialise>
	vListInitialise( &xPendingReadyList );
 8008370:	480c      	ldr	r0, [pc, #48]	; (80083a4 <prvInitialiseTaskLists+0x6c>)
 8008372:	f7fe fcdd 	bl	8006d30 <vListInitialise>

	#if ( INCLUDE_vTaskDelete == 1 )
	{
		vListInitialise( &xTasksWaitingTermination );
 8008376:	480c      	ldr	r0, [pc, #48]	; (80083a8 <prvInitialiseTaskLists+0x70>)
 8008378:	f7fe fcda 	bl	8006d30 <vListInitialise>
	}
	#endif /* INCLUDE_vTaskDelete */

	#if ( INCLUDE_vTaskSuspend == 1 )
	{
		vListInitialise( &xSuspendedTaskList );
 800837c:	480b      	ldr	r0, [pc, #44]	; (80083ac <prvInitialiseTaskLists+0x74>)
 800837e:	f7fe fcd7 	bl	8006d30 <vListInitialise>
	}
	#endif /* INCLUDE_vTaskSuspend */

	/* Start with pxDelayedTaskList using list1 and the pxOverflowDelayedTaskList
	using list2. */
	pxDelayedTaskList = &xDelayedTaskList1;
 8008382:	4b0b      	ldr	r3, [pc, #44]	; (80083b0 <prvInitialiseTaskLists+0x78>)
 8008384:	4a05      	ldr	r2, [pc, #20]	; (800839c <prvInitialiseTaskLists+0x64>)
 8008386:	601a      	str	r2, [r3, #0]
	pxOverflowDelayedTaskList = &xDelayedTaskList2;
 8008388:	4b0a      	ldr	r3, [pc, #40]	; (80083b4 <prvInitialiseTaskLists+0x7c>)
 800838a:	4a05      	ldr	r2, [pc, #20]	; (80083a0 <prvInitialiseTaskLists+0x68>)
 800838c:	601a      	str	r2, [r3, #0]
}
 800838e:	bf00      	nop
 8008390:	3708      	adds	r7, #8
 8008392:	46bd      	mov	sp, r7
 8008394:	bd80      	pop	{r7, pc}
 8008396:	bf00      	nop
 8008398:	200006f4 	.word	0x200006f4
 800839c:	20000b54 	.word	0x20000b54
 80083a0:	20000b68 	.word	0x20000b68
 80083a4:	20000b84 	.word	0x20000b84
 80083a8:	20000b98 	.word	0x20000b98
 80083ac:	20000bb0 	.word	0x20000bb0
 80083b0:	20000b7c 	.word	0x20000b7c
 80083b4:	20000b80 	.word	0x20000b80

080083b8 <prvCheckTasksWaitingTermination>:
/*-----------------------------------------------------------*/

static void prvCheckTasksWaitingTermination( void )
{
 80083b8:	b580      	push	{r7, lr}
 80083ba:	b082      	sub	sp, #8
 80083bc:	af00      	add	r7, sp, #0
	{
		TCB_t *pxTCB;

		/* uxDeletedTasksWaitingCleanUp is used to prevent vTaskSuspendAll()
		being called too often in the idle task. */
		while( uxDeletedTasksWaitingCleanUp > ( UBaseType_t ) 0U )
 80083be:	e019      	b.n	80083f4 <prvCheckTasksWaitingTermination+0x3c>
		{
			taskENTER_CRITICAL();
 80083c0:	f000 fd4a 	bl	8008e58 <vPortEnterCritical>
			{
				pxTCB = ( TCB_t * ) listGET_OWNER_OF_HEAD_ENTRY( ( &xTasksWaitingTermination ) );
 80083c4:	4b10      	ldr	r3, [pc, #64]	; (8008408 <prvCheckTasksWaitingTermination+0x50>)
 80083c6:	68db      	ldr	r3, [r3, #12]
 80083c8:	68db      	ldr	r3, [r3, #12]
 80083ca:	607b      	str	r3, [r7, #4]
				( void ) uxListRemove( &( pxTCB->xStateListItem ) );
 80083cc:	687b      	ldr	r3, [r7, #4]
 80083ce:	3304      	adds	r3, #4
 80083d0:	4618      	mov	r0, r3
 80083d2:	f7fe fd33 	bl	8006e3c <uxListRemove>
				--uxCurrentNumberOfTasks;
 80083d6:	4b0d      	ldr	r3, [pc, #52]	; (800840c <prvCheckTasksWaitingTermination+0x54>)
 80083d8:	681b      	ldr	r3, [r3, #0]
 80083da:	3b01      	subs	r3, #1
 80083dc:	4a0b      	ldr	r2, [pc, #44]	; (800840c <prvCheckTasksWaitingTermination+0x54>)
 80083de:	6013      	str	r3, [r2, #0]
				--uxDeletedTasksWaitingCleanUp;
 80083e0:	4b0b      	ldr	r3, [pc, #44]	; (8008410 <prvCheckTasksWaitingTermination+0x58>)
 80083e2:	681b      	ldr	r3, [r3, #0]
 80083e4:	3b01      	subs	r3, #1
 80083e6:	4a0a      	ldr	r2, [pc, #40]	; (8008410 <prvCheckTasksWaitingTermination+0x58>)
 80083e8:	6013      	str	r3, [r2, #0]
			}
			taskEXIT_CRITICAL();
 80083ea:	f000 fd4f 	bl	8008e8c <vPortExitCritical>

			prvDeleteTCB( pxTCB );
 80083ee:	6878      	ldr	r0, [r7, #4]
 80083f0:	f000 f810 	bl	8008414 <prvDeleteTCB>
		while( uxDeletedTasksWaitingCleanUp > ( UBaseType_t ) 0U )
 80083f4:	4b06      	ldr	r3, [pc, #24]	; (8008410 <prvCheckTasksWaitingTermination+0x58>)
 80083f6:	681b      	ldr	r3, [r3, #0]
 80083f8:	2b00      	cmp	r3, #0
 80083fa:	d1e1      	bne.n	80083c0 <prvCheckTasksWaitingTermination+0x8>
		}
	}
	#endif /* INCLUDE_vTaskDelete */
}
 80083fc:	bf00      	nop
 80083fe:	bf00      	nop
 8008400:	3708      	adds	r7, #8
 8008402:	46bd      	mov	sp, r7
 8008404:	bd80      	pop	{r7, pc}
 8008406:	bf00      	nop
 8008408:	20000b98 	.word	0x20000b98
 800840c:	20000bc4 	.word	0x20000bc4
 8008410:	20000bac 	.word	0x20000bac

08008414 <prvDeleteTCB>:
/*-----------------------------------------------------------*/

#if ( INCLUDE_vTaskDelete == 1 )

	static void prvDeleteTCB( TCB_t *pxTCB )
	{
 8008414:	b580      	push	{r7, lr}
 8008416:	b082      	sub	sp, #8
 8008418:	af00      	add	r7, sp, #0
 800841a:	6078      	str	r0, [r7, #4]
		#elif( tskSTATIC_AND_DYNAMIC_ALLOCATION_POSSIBLE != 0 ) /*lint !e731 Macro has been consolidated for readability reasons. */
		{
			/* The task could have been allocated statically or dynamically, so
			check what was statically allocated before trying to free the
			memory. */
			if( pxTCB->ucStaticallyAllocated == tskDYNAMICALLY_ALLOCATED_STACK_AND_TCB )
 800841c:	687b      	ldr	r3, [r7, #4]
 800841e:	f893 3059 	ldrb.w	r3, [r3, #89]	; 0x59
 8008422:	2b00      	cmp	r3, #0
 8008424:	d108      	bne.n	8008438 <prvDeleteTCB+0x24>
			{
				/* Both the stack and TCB were allocated dynamically, so both
				must be freed. */
				vPortFree( pxTCB->pxStack );
 8008426:	687b      	ldr	r3, [r7, #4]
 8008428:	6b1b      	ldr	r3, [r3, #48]	; 0x30
 800842a:	4618      	mov	r0, r3
 800842c:	f000 fe44 	bl	80090b8 <vPortFree>
				vPortFree( pxTCB );
 8008430:	6878      	ldr	r0, [r7, #4]
 8008432:	f000 fe41 	bl	80090b8 <vPortFree>
				configASSERT( pxTCB->ucStaticallyAllocated == tskSTATICALLY_ALLOCATED_STACK_AND_TCB	);
				mtCOVERAGE_TEST_MARKER();
			}
		}
		#endif /* configSUPPORT_DYNAMIC_ALLOCATION */
	}
 8008436:	e007      	b.n	8008448 <prvDeleteTCB+0x34>
			else if( pxTCB->ucStaticallyAllocated == tskSTATICALLY_ALLOCATED_STACK_ONLY )
 8008438:	687b      	ldr	r3, [r7, #4]
 800843a:	f893 3059 	ldrb.w	r3, [r3, #89]	; 0x59
 800843e:	2b01      	cmp	r3, #1
 8008440:	d102      	bne.n	8008448 <prvDeleteTCB+0x34>
				vPortFree( pxTCB );
 8008442:	6878      	ldr	r0, [r7, #4]
 8008444:	f000 fe38 	bl	80090b8 <vPortFree>
	}
 8008448:	bf00      	nop
 800844a:	3708      	adds	r7, #8
 800844c:	46bd      	mov	sp, r7
 800844e:	bd80      	pop	{r7, pc}

08008450 <prvResetNextTaskUnblockTime>:

#endif /* INCLUDE_vTaskDelete */
/*-----------------------------------------------------------*/

static void prvResetNextTaskUnblockTime( void )
{
 8008450:	b480      	push	{r7}
 8008452:	b083      	sub	sp, #12
 8008454:	af00      	add	r7, sp, #0
TCB_t *pxTCB;

	if( listLIST_IS_EMPTY( pxDelayedTaskList ) != pdFALSE )
 8008456:	4b0e      	ldr	r3, [pc, #56]	; (8008490 <prvResetNextTaskUnblockTime+0x40>)
 8008458:	681b      	ldr	r3, [r3, #0]
 800845a:	681b      	ldr	r3, [r3, #0]
 800845c:	2b00      	cmp	r3, #0
 800845e:	d101      	bne.n	8008464 <prvResetNextTaskUnblockTime+0x14>
 8008460:	2301      	movs	r3, #1
 8008462:	e000      	b.n	8008466 <prvResetNextTaskUnblockTime+0x16>
 8008464:	2300      	movs	r3, #0
 8008466:	2b00      	cmp	r3, #0
 8008468:	d004      	beq.n	8008474 <prvResetNextTaskUnblockTime+0x24>
	{
		/* The new current delayed list is empty.  Set xNextTaskUnblockTime to
		the maximum possible value so it is	extremely unlikely that the
		if( xTickCount >= xNextTaskUnblockTime ) test will pass until
		there is an item in the delayed list. */
		xNextTaskUnblockTime = portMAX_DELAY;
 800846a:	4b0a      	ldr	r3, [pc, #40]	; (8008494 <prvResetNextTaskUnblockTime+0x44>)
 800846c:	f04f 32ff 	mov.w	r2, #4294967295
 8008470:	601a      	str	r2, [r3, #0]
		which the task at the head of the delayed list should be removed
		from the Blocked state. */
		( pxTCB ) = ( TCB_t * ) listGET_OWNER_OF_HEAD_ENTRY( pxDelayedTaskList );
		xNextTaskUnblockTime = listGET_LIST_ITEM_VALUE( &( ( pxTCB )->xStateListItem ) );
	}
}
 8008472:	e008      	b.n	8008486 <prvResetNextTaskUnblockTime+0x36>
		( pxTCB ) = ( TCB_t * ) listGET_OWNER_OF_HEAD_ENTRY( pxDelayedTaskList );
 8008474:	4b06      	ldr	r3, [pc, #24]	; (8008490 <prvResetNextTaskUnblockTime+0x40>)
 8008476:	681b      	ldr	r3, [r3, #0]
 8008478:	68db      	ldr	r3, [r3, #12]
 800847a:	68db      	ldr	r3, [r3, #12]
 800847c:	607b      	str	r3, [r7, #4]
		xNextTaskUnblockTime = listGET_LIST_ITEM_VALUE( &( ( pxTCB )->xStateListItem ) );
 800847e:	687b      	ldr	r3, [r7, #4]
 8008480:	685b      	ldr	r3, [r3, #4]
 8008482:	4a04      	ldr	r2, [pc, #16]	; (8008494 <prvResetNextTaskUnblockTime+0x44>)
 8008484:	6013      	str	r3, [r2, #0]
}
 8008486:	bf00      	nop
 8008488:	370c      	adds	r7, #12
 800848a:	46bd      	mov	sp, r7
 800848c:	bc80      	pop	{r7}
 800848e:	4770      	bx	lr
 8008490:	20000b7c 	.word	0x20000b7c
 8008494:	20000be4 	.word	0x20000be4

08008498 <xTaskGetSchedulerState>:
/*-----------------------------------------------------------*/

#if ( ( INCLUDE_xTaskGetSchedulerState == 1 ) || ( configUSE_TIMERS == 1 ) )

	BaseType_t xTaskGetSchedulerState( void )
	{
 8008498:	b480      	push	{r7}
 800849a:	b083      	sub	sp, #12
 800849c:	af00      	add	r7, sp, #0
	BaseType_t xReturn;

		if( xSchedulerRunning == pdFALSE )
 800849e:	4b0b      	ldr	r3, [pc, #44]	; (80084cc <xTaskGetSchedulerState+0x34>)
 80084a0:	681b      	ldr	r3, [r3, #0]
 80084a2:	2b00      	cmp	r3, #0
 80084a4:	d102      	bne.n	80084ac <xTaskGetSchedulerState+0x14>
		{
			xReturn = taskSCHEDULER_NOT_STARTED;
 80084a6:	2301      	movs	r3, #1
 80084a8:	607b      	str	r3, [r7, #4]
 80084aa:	e008      	b.n	80084be <xTaskGetSchedulerState+0x26>
		}
		else
		{
			if( uxSchedulerSuspended == ( UBaseType_t ) pdFALSE )
 80084ac:	4b08      	ldr	r3, [pc, #32]	; (80084d0 <xTaskGetSchedulerState+0x38>)
 80084ae:	681b      	ldr	r3, [r3, #0]
 80084b0:	2b00      	cmp	r3, #0
 80084b2:	d102      	bne.n	80084ba <xTaskGetSchedulerState+0x22>
			{
				xReturn = taskSCHEDULER_RUNNING;
 80084b4:	2302      	movs	r3, #2
 80084b6:	607b      	str	r3, [r7, #4]
 80084b8:	e001      	b.n	80084be <xTaskGetSchedulerState+0x26>
			}
			else
			{
				xReturn = taskSCHEDULER_SUSPENDED;
 80084ba:	2300      	movs	r3, #0
 80084bc:	607b      	str	r3, [r7, #4]
			}
		}

		return xReturn;
 80084be:	687b      	ldr	r3, [r7, #4]
	}
 80084c0:	4618      	mov	r0, r3
 80084c2:	370c      	adds	r7, #12
 80084c4:	46bd      	mov	sp, r7
 80084c6:	bc80      	pop	{r7}
 80084c8:	4770      	bx	lr
 80084ca:	bf00      	nop
 80084cc:	20000bd0 	.word	0x20000bd0
 80084d0:	20000bec 	.word	0x20000bec

080084d4 <xTaskPriorityInherit>:
/*-----------------------------------------------------------*/

#if ( configUSE_MUTEXES == 1 )

	BaseType_t xTaskPriorityInherit( TaskHandle_t const pxMutexHolder )
	{
 80084d4:	b580      	push	{r7, lr}
 80084d6:	b084      	sub	sp, #16
 80084d8:	af00      	add	r7, sp, #0
 80084da:	6078      	str	r0, [r7, #4]
	TCB_t * const pxMutexHolderTCB = ( TCB_t * ) pxMutexHolder;
 80084dc:	687b      	ldr	r3, [r7, #4]
 80084de:	60bb      	str	r3, [r7, #8]
	BaseType_t xReturn = pdFALSE;
 80084e0:	2300      	movs	r3, #0
 80084e2:	60fb      	str	r3, [r7, #12]

		/* If the mutex was given back by an interrupt while the queue was
		locked then the mutex holder might now be NULL.  _RB_ Is this still
		needed as interrupts can no longer use mutexes? */
		if( pxMutexHolder != NULL )
 80084e4:	687b      	ldr	r3, [r7, #4]
 80084e6:	2b00      	cmp	r3, #0
 80084e8:	d056      	beq.n	8008598 <xTaskPriorityInherit+0xc4>
		{
			/* If the holder of the mutex has a priority below the priority of
			the task attempting to obtain the mutex then it will temporarily
			inherit the priority of the task attempting to obtain the mutex. */
			if( pxMutexHolderTCB->uxPriority < pxCurrentTCB->uxPriority )
 80084ea:	68bb      	ldr	r3, [r7, #8]
 80084ec:	6ada      	ldr	r2, [r3, #44]	; 0x2c
 80084ee:	4b2d      	ldr	r3, [pc, #180]	; (80085a4 <xTaskPriorityInherit+0xd0>)
 80084f0:	681b      	ldr	r3, [r3, #0]
 80084f2:	6adb      	ldr	r3, [r3, #44]	; 0x2c
 80084f4:	429a      	cmp	r2, r3
 80084f6:	d246      	bcs.n	8008586 <xTaskPriorityInherit+0xb2>
			{
				/* Adjust the mutex holder state to account for its new
				priority.  Only reset the event list item value if the value is
				not being used for anything else. */
				if( ( listGET_LIST_ITEM_VALUE( &( pxMutexHolderTCB->xEventListItem ) ) & taskEVENT_LIST_ITEM_VALUE_IN_USE ) == 0UL )
 80084f8:	68bb      	ldr	r3, [r7, #8]
 80084fa:	699b      	ldr	r3, [r3, #24]
 80084fc:	2b00      	cmp	r3, #0
 80084fe:	db06      	blt.n	800850e <xTaskPriorityInherit+0x3a>
				{
					listSET_LIST_ITEM_VALUE( &( pxMutexHolderTCB->xEventListItem ), ( TickType_t ) configMAX_PRIORITIES - ( TickType_t ) pxCurrentTCB->uxPriority ); /*lint !e961 MISRA exception as the casts are only redundant for some ports. */
 8008500:	4b28      	ldr	r3, [pc, #160]	; (80085a4 <xTaskPriorityInherit+0xd0>)
 8008502:	681b      	ldr	r3, [r3, #0]
 8008504:	6adb      	ldr	r3, [r3, #44]	; 0x2c
 8008506:	f1c3 0238 	rsb	r2, r3, #56	; 0x38
 800850a:	68bb      	ldr	r3, [r7, #8]
 800850c:	619a      	str	r2, [r3, #24]
					mtCOVERAGE_TEST_MARKER();
				}

				/* If the task being modified is in the ready state it will need
				to be moved into a new list. */
				if( listIS_CONTAINED_WITHIN( &( pxReadyTasksLists[ pxMutexHolderTCB->uxPriority ] ), &( pxMutexHolderTCB->xStateListItem ) ) != pdFALSE )
 800850e:	68bb      	ldr	r3, [r7, #8]
 8008510:	6959      	ldr	r1, [r3, #20]
 8008512:	68bb      	ldr	r3, [r7, #8]
 8008514:	6ada      	ldr	r2, [r3, #44]	; 0x2c
 8008516:	4613      	mov	r3, r2
 8008518:	009b      	lsls	r3, r3, #2
 800851a:	4413      	add	r3, r2
 800851c:	009b      	lsls	r3, r3, #2
 800851e:	4a22      	ldr	r2, [pc, #136]	; (80085a8 <xTaskPriorityInherit+0xd4>)
 8008520:	4413      	add	r3, r2
 8008522:	4299      	cmp	r1, r3
 8008524:	d101      	bne.n	800852a <xTaskPriorityInherit+0x56>
 8008526:	2301      	movs	r3, #1
 8008528:	e000      	b.n	800852c <xTaskPriorityInherit+0x58>
 800852a:	2300      	movs	r3, #0
 800852c:	2b00      	cmp	r3, #0
 800852e:	d022      	beq.n	8008576 <xTaskPriorityInherit+0xa2>
				{
					if( uxListRemove( &( pxMutexHolderTCB->xStateListItem ) ) == ( UBaseType_t ) 0 )
 8008530:	68bb      	ldr	r3, [r7, #8]
 8008532:	3304      	adds	r3, #4
 8008534:	4618      	mov	r0, r3
 8008536:	f7fe fc81 	bl	8006e3c <uxListRemove>
					{
						mtCOVERAGE_TEST_MARKER();
					}

					/* Inherit the priority before being moved into the new list. */
					pxMutexHolderTCB->uxPriority = pxCurrentTCB->uxPriority;
 800853a:	4b1a      	ldr	r3, [pc, #104]	; (80085a4 <xTaskPriorityInherit+0xd0>)
 800853c:	681b      	ldr	r3, [r3, #0]
 800853e:	6ada      	ldr	r2, [r3, #44]	; 0x2c
 8008540:	68bb      	ldr	r3, [r7, #8]
 8008542:	62da      	str	r2, [r3, #44]	; 0x2c
					prvAddTaskToReadyList( pxMutexHolderTCB );
 8008544:	68bb      	ldr	r3, [r7, #8]
 8008546:	6ada      	ldr	r2, [r3, #44]	; 0x2c
 8008548:	4b18      	ldr	r3, [pc, #96]	; (80085ac <xTaskPriorityInherit+0xd8>)
 800854a:	681b      	ldr	r3, [r3, #0]
 800854c:	429a      	cmp	r2, r3
 800854e:	d903      	bls.n	8008558 <xTaskPriorityInherit+0x84>
 8008550:	68bb      	ldr	r3, [r7, #8]
 8008552:	6adb      	ldr	r3, [r3, #44]	; 0x2c
 8008554:	4a15      	ldr	r2, [pc, #84]	; (80085ac <xTaskPriorityInherit+0xd8>)
 8008556:	6013      	str	r3, [r2, #0]
 8008558:	68bb      	ldr	r3, [r7, #8]
 800855a:	6ada      	ldr	r2, [r3, #44]	; 0x2c
 800855c:	4613      	mov	r3, r2
 800855e:	009b      	lsls	r3, r3, #2
 8008560:	4413      	add	r3, r2
 8008562:	009b      	lsls	r3, r3, #2
 8008564:	4a10      	ldr	r2, [pc, #64]	; (80085a8 <xTaskPriorityInherit+0xd4>)
 8008566:	441a      	add	r2, r3
 8008568:	68bb      	ldr	r3, [r7, #8]
 800856a:	3304      	adds	r3, #4
 800856c:	4619      	mov	r1, r3
 800856e:	4610      	mov	r0, r2
 8008570:	f7fe fc09 	bl	8006d86 <vListInsertEnd>
 8008574:	e004      	b.n	8008580 <xTaskPriorityInherit+0xac>
				}
				else
				{
					/* Just inherit the priority. */
					pxMutexHolderTCB->uxPriority = pxCurrentTCB->uxPriority;
 8008576:	4b0b      	ldr	r3, [pc, #44]	; (80085a4 <xTaskPriorityInherit+0xd0>)
 8008578:	681b      	ldr	r3, [r3, #0]
 800857a:	6ada      	ldr	r2, [r3, #44]	; 0x2c
 800857c:	68bb      	ldr	r3, [r7, #8]
 800857e:	62da      	str	r2, [r3, #44]	; 0x2c
				}

				traceTASK_PRIORITY_INHERIT( pxMutexHolderTCB, pxCurrentTCB->uxPriority );

				/* Inheritance occurred. */
				xReturn = pdTRUE;
 8008580:	2301      	movs	r3, #1
 8008582:	60fb      	str	r3, [r7, #12]
 8008584:	e008      	b.n	8008598 <xTaskPriorityInherit+0xc4>
			}
			else
			{
				if( pxMutexHolderTCB->uxBasePriority < pxCurrentTCB->uxPriority )
 8008586:	68bb      	ldr	r3, [r7, #8]
 8008588:	6cda      	ldr	r2, [r3, #76]	; 0x4c
 800858a:	4b06      	ldr	r3, [pc, #24]	; (80085a4 <xTaskPriorityInherit+0xd0>)
 800858c:	681b      	ldr	r3, [r3, #0]
 800858e:	6adb      	ldr	r3, [r3, #44]	; 0x2c
 8008590:	429a      	cmp	r2, r3
 8008592:	d201      	bcs.n	8008598 <xTaskPriorityInherit+0xc4>
					current priority of the mutex holder is not lower than the
					priority of the task attempting to take the mutex.
					Therefore the mutex holder must have already inherited a
					priority, but inheritance would have occurred if that had
					not been the case. */
					xReturn = pdTRUE;
 8008594:	2301      	movs	r3, #1
 8008596:	60fb      	str	r3, [r7, #12]
		else
		{
			mtCOVERAGE_TEST_MARKER();
		}

		return xReturn;
 8008598:	68fb      	ldr	r3, [r7, #12]
	}
 800859a:	4618      	mov	r0, r3
 800859c:	3710      	adds	r7, #16
 800859e:	46bd      	mov	sp, r7
 80085a0:	bd80      	pop	{r7, pc}
 80085a2:	bf00      	nop
 80085a4:	200006f0 	.word	0x200006f0
 80085a8:	200006f4 	.word	0x200006f4
 80085ac:	20000bcc 	.word	0x20000bcc

080085b0 <xTaskPriorityDisinherit>:
/*-----------------------------------------------------------*/

#if ( configUSE_MUTEXES == 1 )

	BaseType_t xTaskPriorityDisinherit( TaskHandle_t const pxMutexHolder )
	{
 80085b0:	b580      	push	{r7, lr}
 80085b2:	b084      	sub	sp, #16
 80085b4:	af00      	add	r7, sp, #0
 80085b6:	6078      	str	r0, [r7, #4]
	TCB_t * const pxTCB = ( TCB_t * ) pxMutexHolder;
 80085b8:	687b      	ldr	r3, [r7, #4]
 80085ba:	60bb      	str	r3, [r7, #8]
	BaseType_t xReturn = pdFALSE;
 80085bc:	2300      	movs	r3, #0
 80085be:	60fb      	str	r3, [r7, #12]

		if( pxMutexHolder != NULL )
 80085c0:	687b      	ldr	r3, [r7, #4]
 80085c2:	2b00      	cmp	r3, #0
 80085c4:	d037      	beq.n	8008636 <xTaskPriorityDisinherit+0x86>
			If the mutex is held by a task then it cannot be given from an
			interrupt, and if a mutex is given by the holding task then it must
			be the running state task. */
			configASSERT( pxTCB == pxCurrentTCB );
			configASSERT( pxTCB->uxMutexesHeld );
			( pxTCB->uxMutexesHeld )--;
 80085c6:	68bb      	ldr	r3, [r7, #8]
 80085c8:	6d1b      	ldr	r3, [r3, #80]	; 0x50
 80085ca:	1e5a      	subs	r2, r3, #1
 80085cc:	68bb      	ldr	r3, [r7, #8]
 80085ce:	651a      	str	r2, [r3, #80]	; 0x50

			/* Has the holder of the mutex inherited the priority of another
			task? */
			if( pxTCB->uxPriority != pxTCB->uxBasePriority )
 80085d0:	68bb      	ldr	r3, [r7, #8]
 80085d2:	6ada      	ldr	r2, [r3, #44]	; 0x2c
 80085d4:	68bb      	ldr	r3, [r7, #8]
 80085d6:	6cdb      	ldr	r3, [r3, #76]	; 0x4c
 80085d8:	429a      	cmp	r2, r3
 80085da:	d02c      	beq.n	8008636 <xTaskPriorityDisinherit+0x86>
			{
				/* Only disinherit if no other mutexes are held. */
				if( pxTCB->uxMutexesHeld == ( UBaseType_t ) 0 )
 80085dc:	68bb      	ldr	r3, [r7, #8]
 80085de:	6d1b      	ldr	r3, [r3, #80]	; 0x50
 80085e0:	2b00      	cmp	r3, #0
 80085e2:	d128      	bne.n	8008636 <xTaskPriorityDisinherit+0x86>
					/* A task can only have an inherited priority if it holds
					the mutex.  If the mutex is held by a task then it cannot be
					given from an interrupt, and if a mutex is given by the
					holding task then it must be the running state task.  Remove
					the holding task from the ready list. */
					if( uxListRemove( &( pxTCB->xStateListItem ) ) == ( UBaseType_t ) 0 )
 80085e4:	68bb      	ldr	r3, [r7, #8]
 80085e6:	3304      	adds	r3, #4
 80085e8:	4618      	mov	r0, r3
 80085ea:	f7fe fc27 	bl	8006e3c <uxListRemove>
					}

					/* Disinherit the priority before adding the task into the
					new	ready list. */
					traceTASK_PRIORITY_DISINHERIT( pxTCB, pxTCB->uxBasePriority );
					pxTCB->uxPriority = pxTCB->uxBasePriority;
 80085ee:	68bb      	ldr	r3, [r7, #8]
 80085f0:	6cda      	ldr	r2, [r3, #76]	; 0x4c
 80085f2:	68bb      	ldr	r3, [r7, #8]
 80085f4:	62da      	str	r2, [r3, #44]	; 0x2c

					/* Reset the event list item value.  It cannot be in use for
					any other purpose if this task is running, and it must be
					running to give back the mutex. */
					listSET_LIST_ITEM_VALUE( &( pxTCB->xEventListItem ), ( TickType_t ) configMAX_PRIORITIES - ( TickType_t ) pxTCB->uxPriority ); /*lint !e961 MISRA exception as the casts are only redundant for some ports. */
 80085f6:	68bb      	ldr	r3, [r7, #8]
 80085f8:	6adb      	ldr	r3, [r3, #44]	; 0x2c
 80085fa:	f1c3 0238 	rsb	r2, r3, #56	; 0x38
 80085fe:	68bb      	ldr	r3, [r7, #8]
 8008600:	619a      	str	r2, [r3, #24]
					prvAddTaskToReadyList( pxTCB );
 8008602:	68bb      	ldr	r3, [r7, #8]
 8008604:	6ada      	ldr	r2, [r3, #44]	; 0x2c
 8008606:	4b0e      	ldr	r3, [pc, #56]	; (8008640 <xTaskPriorityDisinherit+0x90>)
 8008608:	681b      	ldr	r3, [r3, #0]
 800860a:	429a      	cmp	r2, r3
 800860c:	d903      	bls.n	8008616 <xTaskPriorityDisinherit+0x66>
 800860e:	68bb      	ldr	r3, [r7, #8]
 8008610:	6adb      	ldr	r3, [r3, #44]	; 0x2c
 8008612:	4a0b      	ldr	r2, [pc, #44]	; (8008640 <xTaskPriorityDisinherit+0x90>)
 8008614:	6013      	str	r3, [r2, #0]
 8008616:	68bb      	ldr	r3, [r7, #8]
 8008618:	6ada      	ldr	r2, [r3, #44]	; 0x2c
 800861a:	4613      	mov	r3, r2
 800861c:	009b      	lsls	r3, r3, #2
 800861e:	4413      	add	r3, r2
 8008620:	009b      	lsls	r3, r3, #2
 8008622:	4a08      	ldr	r2, [pc, #32]	; (8008644 <xTaskPriorityDisinherit+0x94>)
 8008624:	441a      	add	r2, r3
 8008626:	68bb      	ldr	r3, [r7, #8]
 8008628:	3304      	adds	r3, #4
 800862a:	4619      	mov	r1, r3
 800862c:	4610      	mov	r0, r2
 800862e:	f7fe fbaa 	bl	8006d86 <vListInsertEnd>
					in an order different to that in which they were taken.
					If a context switch did not occur when the first mutex was
					returned, even if a task was waiting on it, then a context
					switch should occur when the last mutex is returned whether
					a task is waiting on it or not. */
					xReturn = pdTRUE;
 8008632:	2301      	movs	r3, #1
 8008634:	60fb      	str	r3, [r7, #12]
		else
		{
			mtCOVERAGE_TEST_MARKER();
		}

		return xReturn;
 8008636:	68fb      	ldr	r3, [r7, #12]
	}
 8008638:	4618      	mov	r0, r3
 800863a:	3710      	adds	r7, #16
 800863c:	46bd      	mov	sp, r7
 800863e:	bd80      	pop	{r7, pc}
 8008640:	20000bcc 	.word	0x20000bcc
 8008644:	200006f4 	.word	0x200006f4

08008648 <vTaskPriorityDisinheritAfterTimeout>:
/*-----------------------------------------------------------*/

#if ( configUSE_MUTEXES == 1 )

	void vTaskPriorityDisinheritAfterTimeout( TaskHandle_t const pxMutexHolder, UBaseType_t uxHighestPriorityWaitingTask )
	{
 8008648:	b580      	push	{r7, lr}
 800864a:	b086      	sub	sp, #24
 800864c:	af00      	add	r7, sp, #0
 800864e:	6078      	str	r0, [r7, #4]
 8008650:	6039      	str	r1, [r7, #0]
	TCB_t * const pxTCB = ( TCB_t * ) pxMutexHolder;
 8008652:	687b      	ldr	r3, [r7, #4]
 8008654:	613b      	str	r3, [r7, #16]
	UBaseType_t uxPriorityUsedOnEntry, uxPriorityToUse;
	const UBaseType_t uxOnlyOneMutexHeld = ( UBaseType_t ) 1;
 8008656:	2301      	movs	r3, #1
 8008658:	60fb      	str	r3, [r7, #12]

		if( pxMutexHolder != NULL )
 800865a:	687b      	ldr	r3, [r7, #4]
 800865c:	2b00      	cmp	r3, #0
 800865e:	d050      	beq.n	8008702 <vTaskPriorityDisinheritAfterTimeout+0xba>

			/* Determine the priority to which the priority of the task that
			holds the mutex should be set.  This will be the greater of the
			holding task's base priority and the priority of the highest
			priority task that is waiting to obtain the mutex. */
			if( pxTCB->uxBasePriority < uxHighestPriorityWaitingTask )
 8008660:	693b      	ldr	r3, [r7, #16]
 8008662:	6cdb      	ldr	r3, [r3, #76]	; 0x4c
 8008664:	683a      	ldr	r2, [r7, #0]
 8008666:	429a      	cmp	r2, r3
 8008668:	d902      	bls.n	8008670 <vTaskPriorityDisinheritAfterTimeout+0x28>
			{
				uxPriorityToUse = uxHighestPriorityWaitingTask;
 800866a:	683b      	ldr	r3, [r7, #0]
 800866c:	617b      	str	r3, [r7, #20]
 800866e:	e002      	b.n	8008676 <vTaskPriorityDisinheritAfterTimeout+0x2e>
			}
			else
			{
				uxPriorityToUse = pxTCB->uxBasePriority;
 8008670:	693b      	ldr	r3, [r7, #16]
 8008672:	6cdb      	ldr	r3, [r3, #76]	; 0x4c
 8008674:	617b      	str	r3, [r7, #20]
			}

			/* Does the priority need to change? */
			if( pxTCB->uxPriority != uxPriorityToUse )
 8008676:	693b      	ldr	r3, [r7, #16]
 8008678:	6adb      	ldr	r3, [r3, #44]	; 0x2c
 800867a:	697a      	ldr	r2, [r7, #20]
 800867c:	429a      	cmp	r2, r3
 800867e:	d040      	beq.n	8008702 <vTaskPriorityDisinheritAfterTimeout+0xba>
			{
				/* Only disinherit if no other mutexes are held.  This is a
				simplification in the priority inheritance implementation.  If
				the task that holds the mutex is also holding other mutexes then
				the other mutexes may have caused the priority inheritance. */
				if( pxTCB->uxMutexesHeld == uxOnlyOneMutexHeld )
 8008680:	693b      	ldr	r3, [r7, #16]
 8008682:	6d1b      	ldr	r3, [r3, #80]	; 0x50
 8008684:	68fa      	ldr	r2, [r7, #12]
 8008686:	429a      	cmp	r2, r3
 8008688:	d13b      	bne.n	8008702 <vTaskPriorityDisinheritAfterTimeout+0xba>

					/* Disinherit the priority, remembering the previous
					priority to facilitate determining the subject task's
					state. */
					traceTASK_PRIORITY_DISINHERIT( pxTCB, pxTCB->uxBasePriority );
					uxPriorityUsedOnEntry = pxTCB->uxPriority;
 800868a:	693b      	ldr	r3, [r7, #16]
 800868c:	6adb      	ldr	r3, [r3, #44]	; 0x2c
 800868e:	60bb      	str	r3, [r7, #8]
					pxTCB->uxPriority = uxPriorityToUse;
 8008690:	693b      	ldr	r3, [r7, #16]
 8008692:	697a      	ldr	r2, [r7, #20]
 8008694:	62da      	str	r2, [r3, #44]	; 0x2c

					/* Only reset the event list item value if the value is not
					being used for anything else. */
					if( ( listGET_LIST_ITEM_VALUE( &( pxTCB->xEventListItem ) ) & taskEVENT_LIST_ITEM_VALUE_IN_USE ) == 0UL )
 8008696:	693b      	ldr	r3, [r7, #16]
 8008698:	699b      	ldr	r3, [r3, #24]
 800869a:	2b00      	cmp	r3, #0
 800869c:	db04      	blt.n	80086a8 <vTaskPriorityDisinheritAfterTimeout+0x60>
					{
						listSET_LIST_ITEM_VALUE( &( pxTCB->xEventListItem ), ( TickType_t ) configMAX_PRIORITIES - ( TickType_t ) uxPriorityToUse ); /*lint !e961 MISRA exception as the casts are only redundant for some ports. */
 800869e:	697b      	ldr	r3, [r7, #20]
 80086a0:	f1c3 0238 	rsb	r2, r3, #56	; 0x38
 80086a4:	693b      	ldr	r3, [r7, #16]
 80086a6:	619a      	str	r2, [r3, #24]
					then the task that holds the mutex could be in either the
					Ready, Blocked or Suspended states.  Only remove the task
					from its current state list if it is in the Ready state as
					the task's priority is going to change and there is one
					Ready list per priority. */
					if( listIS_CONTAINED_WITHIN( &( pxReadyTasksLists[ uxPriorityUsedOnEntry ] ), &( pxTCB->xStateListItem ) ) != pdFALSE )
 80086a8:	693b      	ldr	r3, [r7, #16]
 80086aa:	6959      	ldr	r1, [r3, #20]
 80086ac:	68ba      	ldr	r2, [r7, #8]
 80086ae:	4613      	mov	r3, r2
 80086b0:	009b      	lsls	r3, r3, #2
 80086b2:	4413      	add	r3, r2
 80086b4:	009b      	lsls	r3, r3, #2
 80086b6:	4a15      	ldr	r2, [pc, #84]	; (800870c <vTaskPriorityDisinheritAfterTimeout+0xc4>)
 80086b8:	4413      	add	r3, r2
 80086ba:	4299      	cmp	r1, r3
 80086bc:	d101      	bne.n	80086c2 <vTaskPriorityDisinheritAfterTimeout+0x7a>
 80086be:	2301      	movs	r3, #1
 80086c0:	e000      	b.n	80086c4 <vTaskPriorityDisinheritAfterTimeout+0x7c>
 80086c2:	2300      	movs	r3, #0
 80086c4:	2b00      	cmp	r3, #0
 80086c6:	d01c      	beq.n	8008702 <vTaskPriorityDisinheritAfterTimeout+0xba>
					{
						if( uxListRemove( &( pxTCB->xStateListItem ) ) == ( UBaseType_t ) 0 )
 80086c8:	693b      	ldr	r3, [r7, #16]
 80086ca:	3304      	adds	r3, #4
 80086cc:	4618      	mov	r0, r3
 80086ce:	f7fe fbb5 	bl	8006e3c <uxListRemove>
						else
						{
							mtCOVERAGE_TEST_MARKER();
						}

						prvAddTaskToReadyList( pxTCB );
 80086d2:	693b      	ldr	r3, [r7, #16]
 80086d4:	6ada      	ldr	r2, [r3, #44]	; 0x2c
 80086d6:	4b0e      	ldr	r3, [pc, #56]	; (8008710 <vTaskPriorityDisinheritAfterTimeout+0xc8>)
 80086d8:	681b      	ldr	r3, [r3, #0]
 80086da:	429a      	cmp	r2, r3
 80086dc:	d903      	bls.n	80086e6 <vTaskPriorityDisinheritAfterTimeout+0x9e>
 80086de:	693b      	ldr	r3, [r7, #16]
 80086e0:	6adb      	ldr	r3, [r3, #44]	; 0x2c
 80086e2:	4a0b      	ldr	r2, [pc, #44]	; (8008710 <vTaskPriorityDisinheritAfterTimeout+0xc8>)
 80086e4:	6013      	str	r3, [r2, #0]
 80086e6:	693b      	ldr	r3, [r7, #16]
 80086e8:	6ada      	ldr	r2, [r3, #44]	; 0x2c
 80086ea:	4613      	mov	r3, r2
 80086ec:	009b      	lsls	r3, r3, #2
 80086ee:	4413      	add	r3, r2
 80086f0:	009b      	lsls	r3, r3, #2
 80086f2:	4a06      	ldr	r2, [pc, #24]	; (800870c <vTaskPriorityDisinheritAfterTimeout+0xc4>)
 80086f4:	441a      	add	r2, r3
 80086f6:	693b      	ldr	r3, [r7, #16]
 80086f8:	3304      	adds	r3, #4
 80086fa:	4619      	mov	r1, r3
 80086fc:	4610      	mov	r0, r2
 80086fe:	f7fe fb42 	bl	8006d86 <vListInsertEnd>
		}
		else
		{
			mtCOVERAGE_TEST_MARKER();
		}
	}
 8008702:	bf00      	nop
 8008704:	3718      	adds	r7, #24
 8008706:	46bd      	mov	sp, r7
 8008708:	bd80      	pop	{r7, pc}
 800870a:	bf00      	nop
 800870c:	200006f4 	.word	0x200006f4
 8008710:	20000bcc 	.word	0x20000bcc

08008714 <pvTaskIncrementMutexHeldCount>:
/*-----------------------------------------------------------*/

#if ( configUSE_MUTEXES == 1 )

	void *pvTaskIncrementMutexHeldCount( void )
	{
 8008714:	b480      	push	{r7}
 8008716:	af00      	add	r7, sp, #0
		/* If xSemaphoreCreateMutex() is called before any tasks have been created
		then pxCurrentTCB will be NULL. */
		if( pxCurrentTCB != NULL )
 8008718:	4b07      	ldr	r3, [pc, #28]	; (8008738 <pvTaskIncrementMutexHeldCount+0x24>)
 800871a:	681b      	ldr	r3, [r3, #0]
 800871c:	2b00      	cmp	r3, #0
 800871e:	d004      	beq.n	800872a <pvTaskIncrementMutexHeldCount+0x16>
		{
			( pxCurrentTCB->uxMutexesHeld )++;
 8008720:	4b05      	ldr	r3, [pc, #20]	; (8008738 <pvTaskIncrementMutexHeldCount+0x24>)
 8008722:	681b      	ldr	r3, [r3, #0]
 8008724:	6d1a      	ldr	r2, [r3, #80]	; 0x50
 8008726:	3201      	adds	r2, #1
 8008728:	651a      	str	r2, [r3, #80]	; 0x50
		}

		return pxCurrentTCB;
 800872a:	4b03      	ldr	r3, [pc, #12]	; (8008738 <pvTaskIncrementMutexHeldCount+0x24>)
 800872c:	681b      	ldr	r3, [r3, #0]
	}
 800872e:	4618      	mov	r0, r3
 8008730:	46bd      	mov	sp, r7
 8008732:	bc80      	pop	{r7}
 8008734:	4770      	bx	lr
 8008736:	bf00      	nop
 8008738:	200006f0 	.word	0x200006f0

0800873c <prvAddCurrentTaskToDelayedList>:
#endif /* configUSE_TASK_NOTIFICATIONS */
/*-----------------------------------------------------------*/


static void prvAddCurrentTaskToDelayedList( TickType_t xTicksToWait, const BaseType_t xCanBlockIndefinitely )
{
 800873c:	b580      	push	{r7, lr}
 800873e:	b084      	sub	sp, #16
 8008740:	af00      	add	r7, sp, #0
 8008742:	6078      	str	r0, [r7, #4]
 8008744:	6039      	str	r1, [r7, #0]
TickType_t xTimeToWake;
const TickType_t xConstTickCount = xTickCount;
 8008746:	4b21      	ldr	r3, [pc, #132]	; (80087cc <prvAddCurrentTaskToDelayedList+0x90>)
 8008748:	681b      	ldr	r3, [r3, #0]
 800874a:	60fb      	str	r3, [r7, #12]
	}
	#endif

	/* Remove the task from the ready list before adding it to the blocked list
	as the same list item is used for both lists. */
	if( uxListRemove( &( pxCurrentTCB->xStateListItem ) ) == ( UBaseType_t ) 0 )
 800874c:	4b20      	ldr	r3, [pc, #128]	; (80087d0 <prvAddCurrentTaskToDelayedList+0x94>)
 800874e:	681b      	ldr	r3, [r3, #0]
 8008750:	3304      	adds	r3, #4
 8008752:	4618      	mov	r0, r3
 8008754:	f7fe fb72 	bl	8006e3c <uxListRemove>
		mtCOVERAGE_TEST_MARKER();
	}

	#if ( INCLUDE_vTaskSuspend == 1 )
	{
		if( ( xTicksToWait == portMAX_DELAY ) && ( xCanBlockIndefinitely != pdFALSE ) )
 8008758:	687b      	ldr	r3, [r7, #4]
 800875a:	f1b3 3fff 	cmp.w	r3, #4294967295
 800875e:	d10a      	bne.n	8008776 <prvAddCurrentTaskToDelayedList+0x3a>
 8008760:	683b      	ldr	r3, [r7, #0]
 8008762:	2b00      	cmp	r3, #0
 8008764:	d007      	beq.n	8008776 <prvAddCurrentTaskToDelayedList+0x3a>
		{
			/* Add the task to the suspended task list instead of a delayed task
			list to ensure it is not woken by a timing event.  It will block
			indefinitely. */
			vListInsertEnd( &xSuspendedTaskList, &( pxCurrentTCB->xStateListItem ) );
 8008766:	4b1a      	ldr	r3, [pc, #104]	; (80087d0 <prvAddCurrentTaskToDelayedList+0x94>)
 8008768:	681b      	ldr	r3, [r3, #0]
 800876a:	3304      	adds	r3, #4
 800876c:	4619      	mov	r1, r3
 800876e:	4819      	ldr	r0, [pc, #100]	; (80087d4 <prvAddCurrentTaskToDelayedList+0x98>)
 8008770:	f7fe fb09 	bl	8006d86 <vListInsertEnd>

		/* Avoid compiler warning when INCLUDE_vTaskSuspend is not 1. */
		( void ) xCanBlockIndefinitely;
	}
	#endif /* INCLUDE_vTaskSuspend */
}
 8008774:	e026      	b.n	80087c4 <prvAddCurrentTaskToDelayedList+0x88>
			xTimeToWake = xConstTickCount + xTicksToWait;
 8008776:	68fa      	ldr	r2, [r7, #12]
 8008778:	687b      	ldr	r3, [r7, #4]
 800877a:	4413      	add	r3, r2
 800877c:	60bb      	str	r3, [r7, #8]
			listSET_LIST_ITEM_VALUE( &( pxCurrentTCB->xStateListItem ), xTimeToWake );
 800877e:	4b14      	ldr	r3, [pc, #80]	; (80087d0 <prvAddCurrentTaskToDelayedList+0x94>)
 8008780:	681b      	ldr	r3, [r3, #0]
 8008782:	68ba      	ldr	r2, [r7, #8]
 8008784:	605a      	str	r2, [r3, #4]
			if( xTimeToWake < xConstTickCount )
 8008786:	68ba      	ldr	r2, [r7, #8]
 8008788:	68fb      	ldr	r3, [r7, #12]
 800878a:	429a      	cmp	r2, r3
 800878c:	d209      	bcs.n	80087a2 <prvAddCurrentTaskToDelayedList+0x66>
				vListInsert( pxOverflowDelayedTaskList, &( pxCurrentTCB->xStateListItem ) );
 800878e:	4b12      	ldr	r3, [pc, #72]	; (80087d8 <prvAddCurrentTaskToDelayedList+0x9c>)
 8008790:	681a      	ldr	r2, [r3, #0]
 8008792:	4b0f      	ldr	r3, [pc, #60]	; (80087d0 <prvAddCurrentTaskToDelayedList+0x94>)
 8008794:	681b      	ldr	r3, [r3, #0]
 8008796:	3304      	adds	r3, #4
 8008798:	4619      	mov	r1, r3
 800879a:	4610      	mov	r0, r2
 800879c:	f7fe fb16 	bl	8006dcc <vListInsert>
}
 80087a0:	e010      	b.n	80087c4 <prvAddCurrentTaskToDelayedList+0x88>
				vListInsert( pxDelayedTaskList, &( pxCurrentTCB->xStateListItem ) );
 80087a2:	4b0e      	ldr	r3, [pc, #56]	; (80087dc <prvAddCurrentTaskToDelayedList+0xa0>)
 80087a4:	681a      	ldr	r2, [r3, #0]
 80087a6:	4b0a      	ldr	r3, [pc, #40]	; (80087d0 <prvAddCurrentTaskToDelayedList+0x94>)
 80087a8:	681b      	ldr	r3, [r3, #0]
 80087aa:	3304      	adds	r3, #4
 80087ac:	4619      	mov	r1, r3
 80087ae:	4610      	mov	r0, r2
 80087b0:	f7fe fb0c 	bl	8006dcc <vListInsert>
				if( xTimeToWake < xNextTaskUnblockTime )
 80087b4:	4b0a      	ldr	r3, [pc, #40]	; (80087e0 <prvAddCurrentTaskToDelayedList+0xa4>)
 80087b6:	681b      	ldr	r3, [r3, #0]
 80087b8:	68ba      	ldr	r2, [r7, #8]
 80087ba:	429a      	cmp	r2, r3
 80087bc:	d202      	bcs.n	80087c4 <prvAddCurrentTaskToDelayedList+0x88>
					xNextTaskUnblockTime = xTimeToWake;
 80087be:	4a08      	ldr	r2, [pc, #32]	; (80087e0 <prvAddCurrentTaskToDelayedList+0xa4>)
 80087c0:	68bb      	ldr	r3, [r7, #8]
 80087c2:	6013      	str	r3, [r2, #0]
}
 80087c4:	bf00      	nop
 80087c6:	3710      	adds	r7, #16
 80087c8:	46bd      	mov	sp, r7
 80087ca:	bd80      	pop	{r7, pc}
 80087cc:	20000bc8 	.word	0x20000bc8
 80087d0:	200006f0 	.word	0x200006f0
 80087d4:	20000bb0 	.word	0x20000bb0
 80087d8:	20000b80 	.word	0x20000b80
 80087dc:	20000b7c 	.word	0x20000b7c
 80087e0:	20000be4 	.word	0x20000be4

080087e4 <xTimerCreateTimerTask>:
									TimerCallbackFunction_t pxCallbackFunction,
									Timer_t *pxNewTimer ) PRIVILEGED_FUNCTION;
/*-----------------------------------------------------------*/

BaseType_t xTimerCreateTimerTask( void )
{
 80087e4:	b580      	push	{r7, lr}
 80087e6:	b088      	sub	sp, #32
 80087e8:	af04      	add	r7, sp, #16
BaseType_t xReturn = pdFAIL;
 80087ea:	2300      	movs	r3, #0
 80087ec:	60fb      	str	r3, [r7, #12]

	/* This function is called when the scheduler is started if
	configUSE_TIMERS is set to 1.  Check that the infrastructure used by the
	timer service task has been created/initialised.  If timers have already
	been created then the initialisation will already have been performed. */
	prvCheckForValidListAndQueue();
 80087ee:	f000 fa69 	bl	8008cc4 <prvCheckForValidListAndQueue>

	if( xTimerQueue != NULL )
 80087f2:	4b15      	ldr	r3, [pc, #84]	; (8008848 <xTimerCreateTimerTask+0x64>)
 80087f4:	681b      	ldr	r3, [r3, #0]
 80087f6:	2b00      	cmp	r3, #0
 80087f8:	d020      	beq.n	800883c <xTimerCreateTimerTask+0x58>
	{
		#if( configSUPPORT_STATIC_ALLOCATION == 1 )
		{
			StaticTask_t *pxTimerTaskTCBBuffer = NULL;
 80087fa:	2300      	movs	r3, #0
 80087fc:	60bb      	str	r3, [r7, #8]
			StackType_t *pxTimerTaskStackBuffer = NULL;
 80087fe:	2300      	movs	r3, #0
 8008800:	607b      	str	r3, [r7, #4]
			uint32_t ulTimerTaskStackSize;

			vApplicationGetTimerTaskMemory( &pxTimerTaskTCBBuffer, &pxTimerTaskStackBuffer, &ulTimerTaskStackSize );
 8008802:	463a      	mov	r2, r7
 8008804:	1d39      	adds	r1, r7, #4
 8008806:	f107 0308 	add.w	r3, r7, #8
 800880a:	4618      	mov	r0, r3
 800880c:	f7fe fa76 	bl	8006cfc <vApplicationGetTimerTaskMemory>
			xTimerTaskHandle = xTaskCreateStatic(	prvTimerTask,
 8008810:	6839      	ldr	r1, [r7, #0]
 8008812:	687b      	ldr	r3, [r7, #4]
 8008814:	68ba      	ldr	r2, [r7, #8]
 8008816:	9202      	str	r2, [sp, #8]
 8008818:	9301      	str	r3, [sp, #4]
 800881a:	2302      	movs	r3, #2
 800881c:	9300      	str	r3, [sp, #0]
 800881e:	2300      	movs	r3, #0
 8008820:	460a      	mov	r2, r1
 8008822:	490a      	ldr	r1, [pc, #40]	; (800884c <xTimerCreateTimerTask+0x68>)
 8008824:	480a      	ldr	r0, [pc, #40]	; (8008850 <xTimerCreateTimerTask+0x6c>)
 8008826:	f7ff f8ff 	bl	8007a28 <xTaskCreateStatic>
 800882a:	4603      	mov	r3, r0
 800882c:	4a09      	ldr	r2, [pc, #36]	; (8008854 <xTimerCreateTimerTask+0x70>)
 800882e:	6013      	str	r3, [r2, #0]
													NULL,
													( ( UBaseType_t ) configTIMER_TASK_PRIORITY ) | portPRIVILEGE_BIT,
													pxTimerTaskStackBuffer,
													pxTimerTaskTCBBuffer );

			if( xTimerTaskHandle != NULL )
 8008830:	4b08      	ldr	r3, [pc, #32]	; (8008854 <xTimerCreateTimerTask+0x70>)
 8008832:	681b      	ldr	r3, [r3, #0]
 8008834:	2b00      	cmp	r3, #0
 8008836:	d001      	beq.n	800883c <xTimerCreateTimerTask+0x58>
			{
				xReturn = pdPASS;
 8008838:	2301      	movs	r3, #1
 800883a:	60fb      	str	r3, [r7, #12]
	{
		mtCOVERAGE_TEST_MARKER();
	}

	configASSERT( xReturn );
	return xReturn;
 800883c:	68fb      	ldr	r3, [r7, #12]
}
 800883e:	4618      	mov	r0, r3
 8008840:	3710      	adds	r7, #16
 8008842:	46bd      	mov	sp, r7
 8008844:	bd80      	pop	{r7, pc}
 8008846:	bf00      	nop
 8008848:	20000c20 	.word	0x20000c20
 800884c:	080093b8 	.word	0x080093b8
 8008850:	0800893d 	.word	0x0800893d
 8008854:	20000c24 	.word	0x20000c24

08008858 <xTimerGenericCommand>:
	}
}
/*-----------------------------------------------------------*/

BaseType_t xTimerGenericCommand( TimerHandle_t xTimer, const BaseType_t xCommandID, const TickType_t xOptionalValue, BaseType_t * const pxHigherPriorityTaskWoken, const TickType_t xTicksToWait )
{
 8008858:	b580      	push	{r7, lr}
 800885a:	b08a      	sub	sp, #40	; 0x28
 800885c:	af00      	add	r7, sp, #0
 800885e:	60f8      	str	r0, [r7, #12]
 8008860:	60b9      	str	r1, [r7, #8]
 8008862:	607a      	str	r2, [r7, #4]
 8008864:	603b      	str	r3, [r7, #0]
BaseType_t xReturn = pdFAIL;
 8008866:	2300      	movs	r3, #0
 8008868:	627b      	str	r3, [r7, #36]	; 0x24

	configASSERT( xTimer );

	/* Send a message to the timer service task to perform a particular action
	on a particular timer definition. */
	if( xTimerQueue != NULL )
 800886a:	4b1a      	ldr	r3, [pc, #104]	; (80088d4 <xTimerGenericCommand+0x7c>)
 800886c:	681b      	ldr	r3, [r3, #0]
 800886e:	2b00      	cmp	r3, #0
 8008870:	d02a      	beq.n	80088c8 <xTimerGenericCommand+0x70>
	{
		/* Send a command to the timer service task to start the xTimer timer. */
		xMessage.xMessageID = xCommandID;
 8008872:	68bb      	ldr	r3, [r7, #8]
 8008874:	617b      	str	r3, [r7, #20]
		xMessage.u.xTimerParameters.xMessageValue = xOptionalValue;
 8008876:	687b      	ldr	r3, [r7, #4]
 8008878:	61bb      	str	r3, [r7, #24]
		xMessage.u.xTimerParameters.pxTimer = ( Timer_t * ) xTimer;
 800887a:	68fb      	ldr	r3, [r7, #12]
 800887c:	61fb      	str	r3, [r7, #28]

		if( xCommandID < tmrFIRST_FROM_ISR_COMMAND )
 800887e:	68bb      	ldr	r3, [r7, #8]
 8008880:	2b05      	cmp	r3, #5
 8008882:	dc18      	bgt.n	80088b6 <xTimerGenericCommand+0x5e>
		{
			if( xTaskGetSchedulerState() == taskSCHEDULER_RUNNING )
 8008884:	f7ff fe08 	bl	8008498 <xTaskGetSchedulerState>
 8008888:	4603      	mov	r3, r0
 800888a:	2b02      	cmp	r3, #2
 800888c:	d109      	bne.n	80088a2 <xTimerGenericCommand+0x4a>
			{
				xReturn = xQueueSendToBack( xTimerQueue, &xMessage, xTicksToWait );
 800888e:	4b11      	ldr	r3, [pc, #68]	; (80088d4 <xTimerGenericCommand+0x7c>)
 8008890:	6818      	ldr	r0, [r3, #0]
 8008892:	f107 0114 	add.w	r1, r7, #20
 8008896:	2300      	movs	r3, #0
 8008898:	6b3a      	ldr	r2, [r7, #48]	; 0x30
 800889a:	f7fe fbdb 	bl	8007054 <xQueueGenericSend>
 800889e:	6278      	str	r0, [r7, #36]	; 0x24
 80088a0:	e012      	b.n	80088c8 <xTimerGenericCommand+0x70>
			}
			else
			{
				xReturn = xQueueSendToBack( xTimerQueue, &xMessage, tmrNO_DELAY );
 80088a2:	4b0c      	ldr	r3, [pc, #48]	; (80088d4 <xTimerGenericCommand+0x7c>)
 80088a4:	6818      	ldr	r0, [r3, #0]
 80088a6:	f107 0114 	add.w	r1, r7, #20
 80088aa:	2300      	movs	r3, #0
 80088ac:	2200      	movs	r2, #0
 80088ae:	f7fe fbd1 	bl	8007054 <xQueueGenericSend>
 80088b2:	6278      	str	r0, [r7, #36]	; 0x24
 80088b4:	e008      	b.n	80088c8 <xTimerGenericCommand+0x70>
			}
		}
		else
		{
			xReturn = xQueueSendToBackFromISR( xTimerQueue, &xMessage, pxHigherPriorityTaskWoken );
 80088b6:	4b07      	ldr	r3, [pc, #28]	; (80088d4 <xTimerGenericCommand+0x7c>)
 80088b8:	6818      	ldr	r0, [r3, #0]
 80088ba:	f107 0114 	add.w	r1, r7, #20
 80088be:	2300      	movs	r3, #0
 80088c0:	683a      	ldr	r2, [r7, #0]
 80088c2:	f7fe fc71 	bl	80071a8 <xQueueGenericSendFromISR>
 80088c6:	6278      	str	r0, [r7, #36]	; 0x24
	else
	{
		mtCOVERAGE_TEST_MARKER();
	}

	return xReturn;
 80088c8:	6a7b      	ldr	r3, [r7, #36]	; 0x24
}
 80088ca:	4618      	mov	r0, r3
 80088cc:	3728      	adds	r7, #40	; 0x28
 80088ce:	46bd      	mov	sp, r7
 80088d0:	bd80      	pop	{r7, pc}
 80088d2:	bf00      	nop
 80088d4:	20000c20 	.word	0x20000c20

080088d8 <prvProcessExpiredTimer>:
	return pxTimer->pcTimerName;
}
/*-----------------------------------------------------------*/

static void prvProcessExpiredTimer( const TickType_t xNextExpireTime, const TickType_t xTimeNow )
{
 80088d8:	b580      	push	{r7, lr}
 80088da:	b086      	sub	sp, #24
 80088dc:	af02      	add	r7, sp, #8
 80088de:	6078      	str	r0, [r7, #4]
 80088e0:	6039      	str	r1, [r7, #0]
BaseType_t xResult;
Timer_t * const pxTimer = ( Timer_t * ) listGET_OWNER_OF_HEAD_ENTRY( pxCurrentTimerList );
 80088e2:	4b15      	ldr	r3, [pc, #84]	; (8008938 <prvProcessExpiredTimer+0x60>)
 80088e4:	681b      	ldr	r3, [r3, #0]
 80088e6:	68db      	ldr	r3, [r3, #12]
 80088e8:	68db      	ldr	r3, [r3, #12]
 80088ea:	60fb      	str	r3, [r7, #12]

	/* Remove the timer from the list of active timers.  A check has already
	been performed to ensure the list is not empty. */
	( void ) uxListRemove( &( pxTimer->xTimerListItem ) );
 80088ec:	68fb      	ldr	r3, [r7, #12]
 80088ee:	3304      	adds	r3, #4
 80088f0:	4618      	mov	r0, r3
 80088f2:	f7fe faa3 	bl	8006e3c <uxListRemove>
	traceTIMER_EXPIRED( pxTimer );

	/* If the timer is an auto reload timer then calculate the next
	expiry time and re-insert the timer in the list of active timers. */
	if( pxTimer->uxAutoReload == ( UBaseType_t ) pdTRUE )
 80088f6:	68fb      	ldr	r3, [r7, #12]
 80088f8:	69db      	ldr	r3, [r3, #28]
 80088fa:	2b01      	cmp	r3, #1
 80088fc:	d114      	bne.n	8008928 <prvProcessExpiredTimer+0x50>
	{
		/* The timer is inserted into a list using a time relative to anything
		other than the current time.  It will therefore be inserted into the
		correct list relative to the time this task thinks it is now. */
		if( prvInsertTimerInActiveList( pxTimer, ( xNextExpireTime + pxTimer->xTimerPeriodInTicks ), xTimeNow, xNextExpireTime ) != pdFALSE )
 80088fe:	68fb      	ldr	r3, [r7, #12]
 8008900:	699a      	ldr	r2, [r3, #24]
 8008902:	687b      	ldr	r3, [r7, #4]
 8008904:	18d1      	adds	r1, r2, r3
 8008906:	687b      	ldr	r3, [r7, #4]
 8008908:	683a      	ldr	r2, [r7, #0]
 800890a:	68f8      	ldr	r0, [r7, #12]
 800890c:	f000 f8ba 	bl	8008a84 <prvInsertTimerInActiveList>
 8008910:	4603      	mov	r3, r0
 8008912:	2b00      	cmp	r3, #0
 8008914:	d008      	beq.n	8008928 <prvProcessExpiredTimer+0x50>
		{
			/* The timer expired before it was added to the active timer
			list.  Reload it now.  */
			xResult = xTimerGenericCommand( pxTimer, tmrCOMMAND_START_DONT_TRACE, xNextExpireTime, NULL, tmrNO_DELAY );
 8008916:	2300      	movs	r3, #0
 8008918:	9300      	str	r3, [sp, #0]
 800891a:	2300      	movs	r3, #0
 800891c:	687a      	ldr	r2, [r7, #4]
 800891e:	2100      	movs	r1, #0
 8008920:	68f8      	ldr	r0, [r7, #12]
 8008922:	f7ff ff99 	bl	8008858 <xTimerGenericCommand>
 8008926:	60b8      	str	r0, [r7, #8]
	{
		mtCOVERAGE_TEST_MARKER();
	}

	/* Call the timer callback. */
	pxTimer->pxCallbackFunction( ( TimerHandle_t ) pxTimer );
 8008928:	68fb      	ldr	r3, [r7, #12]
 800892a:	6a5b      	ldr	r3, [r3, #36]	; 0x24
 800892c:	68f8      	ldr	r0, [r7, #12]
 800892e:	4798      	blx	r3
}
 8008930:	bf00      	nop
 8008932:	3710      	adds	r7, #16
 8008934:	46bd      	mov	sp, r7
 8008936:	bd80      	pop	{r7, pc}
 8008938:	20000c18 	.word	0x20000c18

0800893c <prvTimerTask>:
/*-----------------------------------------------------------*/

static void prvTimerTask( void *pvParameters )
{
 800893c:	b580      	push	{r7, lr}
 800893e:	b084      	sub	sp, #16
 8008940:	af00      	add	r7, sp, #0
 8008942:	6078      	str	r0, [r7, #4]

	for( ;; )
	{
		/* Query the timers list to see if it contains any timers, and if so,
		obtain the time at which the next timer will expire. */
		xNextExpireTime = prvGetNextExpireTime( &xListWasEmpty );
 8008944:	f107 0308 	add.w	r3, r7, #8
 8008948:	4618      	mov	r0, r3
 800894a:	f000 f857 	bl	80089fc <prvGetNextExpireTime>
 800894e:	60f8      	str	r0, [r7, #12]

		/* If a timer has expired, process it.  Otherwise, block this task
		until either a timer does expire, or a command is received. */
		prvProcessTimerOrBlockTask( xNextExpireTime, xListWasEmpty );
 8008950:	68bb      	ldr	r3, [r7, #8]
 8008952:	4619      	mov	r1, r3
 8008954:	68f8      	ldr	r0, [r7, #12]
 8008956:	f000 f803 	bl	8008960 <prvProcessTimerOrBlockTask>

		/* Empty the command queue. */
		prvProcessReceivedCommands();
 800895a:	f000 f8d5 	bl	8008b08 <prvProcessReceivedCommands>
		xNextExpireTime = prvGetNextExpireTime( &xListWasEmpty );
 800895e:	e7f1      	b.n	8008944 <prvTimerTask+0x8>

08008960 <prvProcessTimerOrBlockTask>:
	}
}
/*-----------------------------------------------------------*/

static void prvProcessTimerOrBlockTask( const TickType_t xNextExpireTime, BaseType_t xListWasEmpty )
{
 8008960:	b580      	push	{r7, lr}
 8008962:	b084      	sub	sp, #16
 8008964:	af00      	add	r7, sp, #0
 8008966:	6078      	str	r0, [r7, #4]
 8008968:	6039      	str	r1, [r7, #0]
TickType_t xTimeNow;
BaseType_t xTimerListsWereSwitched;

	vTaskSuspendAll();
 800896a:	f7ff fa35 	bl	8007dd8 <vTaskSuspendAll>
		/* Obtain the time now to make an assessment as to whether the timer
		has expired or not.  If obtaining the time causes the lists to switch
		then don't process this timer as any timers that remained in the list
		when the lists were switched will have been processed within the
		prvSampleTimeNow() function. */
		xTimeNow = prvSampleTimeNow( &xTimerListsWereSwitched );
 800896e:	f107 0308 	add.w	r3, r7, #8
 8008972:	4618      	mov	r0, r3
 8008974:	f000 f866 	bl	8008a44 <prvSampleTimeNow>
 8008978:	60f8      	str	r0, [r7, #12]
		if( xTimerListsWereSwitched == pdFALSE )
 800897a:	68bb      	ldr	r3, [r7, #8]
 800897c:	2b00      	cmp	r3, #0
 800897e:	d130      	bne.n	80089e2 <prvProcessTimerOrBlockTask+0x82>
		{
			/* The tick count has not overflowed, has the timer expired? */
			if( ( xListWasEmpty == pdFALSE ) && ( xNextExpireTime <= xTimeNow ) )
 8008980:	683b      	ldr	r3, [r7, #0]
 8008982:	2b00      	cmp	r3, #0
 8008984:	d10a      	bne.n	800899c <prvProcessTimerOrBlockTask+0x3c>
 8008986:	687a      	ldr	r2, [r7, #4]
 8008988:	68fb      	ldr	r3, [r7, #12]
 800898a:	429a      	cmp	r2, r3
 800898c:	d806      	bhi.n	800899c <prvProcessTimerOrBlockTask+0x3c>
			{
				( void ) xTaskResumeAll();
 800898e:	f7ff fa31 	bl	8007df4 <xTaskResumeAll>
				prvProcessExpiredTimer( xNextExpireTime, xTimeNow );
 8008992:	68f9      	ldr	r1, [r7, #12]
 8008994:	6878      	ldr	r0, [r7, #4]
 8008996:	f7ff ff9f 	bl	80088d8 <prvProcessExpiredTimer>
		else
		{
			( void ) xTaskResumeAll();
		}
	}
}
 800899a:	e024      	b.n	80089e6 <prvProcessTimerOrBlockTask+0x86>
				if( xListWasEmpty != pdFALSE )
 800899c:	683b      	ldr	r3, [r7, #0]
 800899e:	2b00      	cmp	r3, #0
 80089a0:	d008      	beq.n	80089b4 <prvProcessTimerOrBlockTask+0x54>
					xListWasEmpty = listLIST_IS_EMPTY( pxOverflowTimerList );
 80089a2:	4b13      	ldr	r3, [pc, #76]	; (80089f0 <prvProcessTimerOrBlockTask+0x90>)
 80089a4:	681b      	ldr	r3, [r3, #0]
 80089a6:	681b      	ldr	r3, [r3, #0]
 80089a8:	2b00      	cmp	r3, #0
 80089aa:	bf0c      	ite	eq
 80089ac:	2301      	moveq	r3, #1
 80089ae:	2300      	movne	r3, #0
 80089b0:	b2db      	uxtb	r3, r3
 80089b2:	603b      	str	r3, [r7, #0]
				vQueueWaitForMessageRestricted( xTimerQueue, ( xNextExpireTime - xTimeNow ), xListWasEmpty );
 80089b4:	4b0f      	ldr	r3, [pc, #60]	; (80089f4 <prvProcessTimerOrBlockTask+0x94>)
 80089b6:	6818      	ldr	r0, [r3, #0]
 80089b8:	687a      	ldr	r2, [r7, #4]
 80089ba:	68fb      	ldr	r3, [r7, #12]
 80089bc:	1ad3      	subs	r3, r2, r3
 80089be:	683a      	ldr	r2, [r7, #0]
 80089c0:	4619      	mov	r1, r3
 80089c2:	f7fe fffd 	bl	80079c0 <vQueueWaitForMessageRestricted>
				if( xTaskResumeAll() == pdFALSE )
 80089c6:	f7ff fa15 	bl	8007df4 <xTaskResumeAll>
 80089ca:	4603      	mov	r3, r0
 80089cc:	2b00      	cmp	r3, #0
 80089ce:	d10a      	bne.n	80089e6 <prvProcessTimerOrBlockTask+0x86>
					portYIELD_WITHIN_API();
 80089d0:	4b09      	ldr	r3, [pc, #36]	; (80089f8 <prvProcessTimerOrBlockTask+0x98>)
 80089d2:	f04f 5280 	mov.w	r2, #268435456	; 0x10000000
 80089d6:	601a      	str	r2, [r3, #0]
 80089d8:	f3bf 8f4f 	dsb	sy
 80089dc:	f3bf 8f6f 	isb	sy
}
 80089e0:	e001      	b.n	80089e6 <prvProcessTimerOrBlockTask+0x86>
			( void ) xTaskResumeAll();
 80089e2:	f7ff fa07 	bl	8007df4 <xTaskResumeAll>
}
 80089e6:	bf00      	nop
 80089e8:	3710      	adds	r7, #16
 80089ea:	46bd      	mov	sp, r7
 80089ec:	bd80      	pop	{r7, pc}
 80089ee:	bf00      	nop
 80089f0:	20000c1c 	.word	0x20000c1c
 80089f4:	20000c20 	.word	0x20000c20
 80089f8:	e000ed04 	.word	0xe000ed04

080089fc <prvGetNextExpireTime>:
/*-----------------------------------------------------------*/

static TickType_t prvGetNextExpireTime( BaseType_t * const pxListWasEmpty )
{
 80089fc:	b480      	push	{r7}
 80089fe:	b085      	sub	sp, #20
 8008a00:	af00      	add	r7, sp, #0
 8008a02:	6078      	str	r0, [r7, #4]
	the timer with the nearest expiry time will expire.  If there are no
	active timers then just set the next expire time to 0.  That will cause
	this task to unblock when the tick count overflows, at which point the
	timer lists will be switched and the next expiry time can be
	re-assessed.  */
	*pxListWasEmpty = listLIST_IS_EMPTY( pxCurrentTimerList );
 8008a04:	4b0e      	ldr	r3, [pc, #56]	; (8008a40 <prvGetNextExpireTime+0x44>)
 8008a06:	681b      	ldr	r3, [r3, #0]
 8008a08:	681b      	ldr	r3, [r3, #0]
 8008a0a:	2b00      	cmp	r3, #0
 8008a0c:	bf0c      	ite	eq
 8008a0e:	2301      	moveq	r3, #1
 8008a10:	2300      	movne	r3, #0
 8008a12:	b2db      	uxtb	r3, r3
 8008a14:	461a      	mov	r2, r3
 8008a16:	687b      	ldr	r3, [r7, #4]
 8008a18:	601a      	str	r2, [r3, #0]
	if( *pxListWasEmpty == pdFALSE )
 8008a1a:	687b      	ldr	r3, [r7, #4]
 8008a1c:	681b      	ldr	r3, [r3, #0]
 8008a1e:	2b00      	cmp	r3, #0
 8008a20:	d105      	bne.n	8008a2e <prvGetNextExpireTime+0x32>
	{
		xNextExpireTime = listGET_ITEM_VALUE_OF_HEAD_ENTRY( pxCurrentTimerList );
 8008a22:	4b07      	ldr	r3, [pc, #28]	; (8008a40 <prvGetNextExpireTime+0x44>)
 8008a24:	681b      	ldr	r3, [r3, #0]
 8008a26:	68db      	ldr	r3, [r3, #12]
 8008a28:	681b      	ldr	r3, [r3, #0]
 8008a2a:	60fb      	str	r3, [r7, #12]
 8008a2c:	e001      	b.n	8008a32 <prvGetNextExpireTime+0x36>
	}
	else
	{
		/* Ensure the task unblocks when the tick count rolls over. */
		xNextExpireTime = ( TickType_t ) 0U;
 8008a2e:	2300      	movs	r3, #0
 8008a30:	60fb      	str	r3, [r7, #12]
	}

	return xNextExpireTime;
 8008a32:	68fb      	ldr	r3, [r7, #12]
}
 8008a34:	4618      	mov	r0, r3
 8008a36:	3714      	adds	r7, #20
 8008a38:	46bd      	mov	sp, r7
 8008a3a:	bc80      	pop	{r7}
 8008a3c:	4770      	bx	lr
 8008a3e:	bf00      	nop
 8008a40:	20000c18 	.word	0x20000c18

08008a44 <prvSampleTimeNow>:
/*-----------------------------------------------------------*/

static TickType_t prvSampleTimeNow( BaseType_t * const pxTimerListsWereSwitched )
{
 8008a44:	b580      	push	{r7, lr}
 8008a46:	b084      	sub	sp, #16
 8008a48:	af00      	add	r7, sp, #0
 8008a4a:	6078      	str	r0, [r7, #4]
TickType_t xTimeNow;
PRIVILEGED_DATA static TickType_t xLastTime = ( TickType_t ) 0U; /*lint !e956 Variable is only accessible to one task. */

	xTimeNow = xTaskGetTickCount();
 8008a4c:	f7ff fa60 	bl	8007f10 <xTaskGetTickCount>
 8008a50:	60f8      	str	r0, [r7, #12]

	if( xTimeNow < xLastTime )
 8008a52:	4b0b      	ldr	r3, [pc, #44]	; (8008a80 <prvSampleTimeNow+0x3c>)
 8008a54:	681b      	ldr	r3, [r3, #0]
 8008a56:	68fa      	ldr	r2, [r7, #12]
 8008a58:	429a      	cmp	r2, r3
 8008a5a:	d205      	bcs.n	8008a68 <prvSampleTimeNow+0x24>
	{
		prvSwitchTimerLists();
 8008a5c:	f000 f8de 	bl	8008c1c <prvSwitchTimerLists>
		*pxTimerListsWereSwitched = pdTRUE;
 8008a60:	687b      	ldr	r3, [r7, #4]
 8008a62:	2201      	movs	r2, #1
 8008a64:	601a      	str	r2, [r3, #0]
 8008a66:	e002      	b.n	8008a6e <prvSampleTimeNow+0x2a>
	}
	else
	{
		*pxTimerListsWereSwitched = pdFALSE;
 8008a68:	687b      	ldr	r3, [r7, #4]
 8008a6a:	2200      	movs	r2, #0
 8008a6c:	601a      	str	r2, [r3, #0]
	}

	xLastTime = xTimeNow;
 8008a6e:	4a04      	ldr	r2, [pc, #16]	; (8008a80 <prvSampleTimeNow+0x3c>)
 8008a70:	68fb      	ldr	r3, [r7, #12]
 8008a72:	6013      	str	r3, [r2, #0]

	return xTimeNow;
 8008a74:	68fb      	ldr	r3, [r7, #12]
}
 8008a76:	4618      	mov	r0, r3
 8008a78:	3710      	adds	r7, #16
 8008a7a:	46bd      	mov	sp, r7
 8008a7c:	bd80      	pop	{r7, pc}
 8008a7e:	bf00      	nop
 8008a80:	20000c28 	.word	0x20000c28

08008a84 <prvInsertTimerInActiveList>:
/*-----------------------------------------------------------*/

static BaseType_t prvInsertTimerInActiveList( Timer_t * const pxTimer, const TickType_t xNextExpiryTime, const TickType_t xTimeNow, const TickType_t xCommandTime )
{
 8008a84:	b580      	push	{r7, lr}
 8008a86:	b086      	sub	sp, #24
 8008a88:	af00      	add	r7, sp, #0
 8008a8a:	60f8      	str	r0, [r7, #12]
 8008a8c:	60b9      	str	r1, [r7, #8]
 8008a8e:	607a      	str	r2, [r7, #4]
 8008a90:	603b      	str	r3, [r7, #0]
BaseType_t xProcessTimerNow = pdFALSE;
 8008a92:	2300      	movs	r3, #0
 8008a94:	617b      	str	r3, [r7, #20]

	listSET_LIST_ITEM_VALUE( &( pxTimer->xTimerListItem ), xNextExpiryTime );
 8008a96:	68fb      	ldr	r3, [r7, #12]
 8008a98:	68ba      	ldr	r2, [r7, #8]
 8008a9a:	605a      	str	r2, [r3, #4]
	listSET_LIST_ITEM_OWNER( &( pxTimer->xTimerListItem ), pxTimer );
 8008a9c:	68fb      	ldr	r3, [r7, #12]
 8008a9e:	68fa      	ldr	r2, [r7, #12]
 8008aa0:	611a      	str	r2, [r3, #16]

	if( xNextExpiryTime <= xTimeNow )
 8008aa2:	68ba      	ldr	r2, [r7, #8]
 8008aa4:	687b      	ldr	r3, [r7, #4]
 8008aa6:	429a      	cmp	r2, r3
 8008aa8:	d812      	bhi.n	8008ad0 <prvInsertTimerInActiveList+0x4c>
	{
		/* Has the expiry time elapsed between the command to start/reset a
		timer was issued, and the time the command was processed? */
		if( ( ( TickType_t ) ( xTimeNow - xCommandTime ) ) >= pxTimer->xTimerPeriodInTicks ) /*lint !e961 MISRA exception as the casts are only redundant for some ports. */
 8008aaa:	687a      	ldr	r2, [r7, #4]
 8008aac:	683b      	ldr	r3, [r7, #0]
 8008aae:	1ad2      	subs	r2, r2, r3
 8008ab0:	68fb      	ldr	r3, [r7, #12]
 8008ab2:	699b      	ldr	r3, [r3, #24]
 8008ab4:	429a      	cmp	r2, r3
 8008ab6:	d302      	bcc.n	8008abe <prvInsertTimerInActiveList+0x3a>
		{
			/* The time between a command being issued and the command being
			processed actually exceeds the timers period.  */
			xProcessTimerNow = pdTRUE;
 8008ab8:	2301      	movs	r3, #1
 8008aba:	617b      	str	r3, [r7, #20]
 8008abc:	e01b      	b.n	8008af6 <prvInsertTimerInActiveList+0x72>
		}
		else
		{
			vListInsert( pxOverflowTimerList, &( pxTimer->xTimerListItem ) );
 8008abe:	4b10      	ldr	r3, [pc, #64]	; (8008b00 <prvInsertTimerInActiveList+0x7c>)
 8008ac0:	681a      	ldr	r2, [r3, #0]
 8008ac2:	68fb      	ldr	r3, [r7, #12]
 8008ac4:	3304      	adds	r3, #4
 8008ac6:	4619      	mov	r1, r3
 8008ac8:	4610      	mov	r0, r2
 8008aca:	f7fe f97f 	bl	8006dcc <vListInsert>
 8008ace:	e012      	b.n	8008af6 <prvInsertTimerInActiveList+0x72>
		}
	}
	else
	{
		if( ( xTimeNow < xCommandTime ) && ( xNextExpiryTime >= xCommandTime ) )
 8008ad0:	687a      	ldr	r2, [r7, #4]
 8008ad2:	683b      	ldr	r3, [r7, #0]
 8008ad4:	429a      	cmp	r2, r3
 8008ad6:	d206      	bcs.n	8008ae6 <prvInsertTimerInActiveList+0x62>
 8008ad8:	68ba      	ldr	r2, [r7, #8]
 8008ada:	683b      	ldr	r3, [r7, #0]
 8008adc:	429a      	cmp	r2, r3
 8008ade:	d302      	bcc.n	8008ae6 <prvInsertTimerInActiveList+0x62>
		{
			/* If, since the command was issued, the tick count has overflowed
			but the expiry time has not, then the timer must have already passed
			its expiry time and should be processed immediately. */
			xProcessTimerNow = pdTRUE;
 8008ae0:	2301      	movs	r3, #1
 8008ae2:	617b      	str	r3, [r7, #20]
 8008ae4:	e007      	b.n	8008af6 <prvInsertTimerInActiveList+0x72>
		}
		else
		{
			vListInsert( pxCurrentTimerList, &( pxTimer->xTimerListItem ) );
 8008ae6:	4b07      	ldr	r3, [pc, #28]	; (8008b04 <prvInsertTimerInActiveList+0x80>)
 8008ae8:	681a      	ldr	r2, [r3, #0]
 8008aea:	68fb      	ldr	r3, [r7, #12]
 8008aec:	3304      	adds	r3, #4
 8008aee:	4619      	mov	r1, r3
 8008af0:	4610      	mov	r0, r2
 8008af2:	f7fe f96b 	bl	8006dcc <vListInsert>
		}
	}

	return xProcessTimerNow;
 8008af6:	697b      	ldr	r3, [r7, #20]
}
 8008af8:	4618      	mov	r0, r3
 8008afa:	3718      	adds	r7, #24
 8008afc:	46bd      	mov	sp, r7
 8008afe:	bd80      	pop	{r7, pc}
 8008b00:	20000c1c 	.word	0x20000c1c
 8008b04:	20000c18 	.word	0x20000c18

08008b08 <prvProcessReceivedCommands>:
/*-----------------------------------------------------------*/

static void	prvProcessReceivedCommands( void )
{
 8008b08:	b580      	push	{r7, lr}
 8008b0a:	b08c      	sub	sp, #48	; 0x30
 8008b0c:	af02      	add	r7, sp, #8
DaemonTaskMessage_t xMessage;
Timer_t *pxTimer;
BaseType_t xTimerListsWereSwitched, xResult;
TickType_t xTimeNow;

	while( xQueueReceive( xTimerQueue, &xMessage, tmrNO_DELAY ) != pdFAIL ) /*lint !e603 xMessage does not have to be initialised as it is passed out, not in, and it is not used unless xQueueReceive() returns pdTRUE. */
 8008b0e:	e073      	b.n	8008bf8 <prvProcessReceivedCommands+0xf0>
	{
		#if ( INCLUDE_xTimerPendFunctionCall == 1 )
		{
			/* Negative commands are pended function calls rather than timer
			commands. */
			if( xMessage.xMessageID < ( BaseType_t ) 0 )
 8008b10:	68bb      	ldr	r3, [r7, #8]
 8008b12:	2b00      	cmp	r3, #0
 8008b14:	da0b      	bge.n	8008b2e <prvProcessReceivedCommands+0x26>
			{
				const CallbackParameters_t * const pxCallback = &( xMessage.u.xCallbackParameters );
 8008b16:	f107 0308 	add.w	r3, r7, #8
 8008b1a:	3304      	adds	r3, #4
 8008b1c:	627b      	str	r3, [r7, #36]	; 0x24
				/* The timer uses the xCallbackParameters member to request a
				callback be executed.  Check the callback is not NULL. */
				configASSERT( pxCallback );

				/* Call the function. */
				pxCallback->pxCallbackFunction( pxCallback->pvParameter1, pxCallback->ulParameter2 );
 8008b1e:	6a7b      	ldr	r3, [r7, #36]	; 0x24
 8008b20:	681b      	ldr	r3, [r3, #0]
 8008b22:	6a7a      	ldr	r2, [r7, #36]	; 0x24
 8008b24:	6850      	ldr	r0, [r2, #4]
 8008b26:	6a7a      	ldr	r2, [r7, #36]	; 0x24
 8008b28:	6892      	ldr	r2, [r2, #8]
 8008b2a:	4611      	mov	r1, r2
 8008b2c:	4798      	blx	r3
		}
		#endif /* INCLUDE_xTimerPendFunctionCall */

		/* Commands that are positive are timer commands rather than pended
		function calls. */
		if( xMessage.xMessageID >= ( BaseType_t ) 0 )
 8008b2e:	68bb      	ldr	r3, [r7, #8]
 8008b30:	2b00      	cmp	r3, #0
 8008b32:	db60      	blt.n	8008bf6 <prvProcessReceivedCommands+0xee>
		{
			/* The messages uses the xTimerParameters member to work on a
			software timer. */
			pxTimer = xMessage.u.xTimerParameters.pxTimer;
 8008b34:	693b      	ldr	r3, [r7, #16]
 8008b36:	623b      	str	r3, [r7, #32]

			if( listIS_CONTAINED_WITHIN( NULL, &( pxTimer->xTimerListItem ) ) == pdFALSE ) /*lint !e961. The cast is only redundant when NULL is passed into the macro. */
 8008b38:	6a3b      	ldr	r3, [r7, #32]
 8008b3a:	695b      	ldr	r3, [r3, #20]
 8008b3c:	2b00      	cmp	r3, #0
 8008b3e:	d004      	beq.n	8008b4a <prvProcessReceivedCommands+0x42>
			{
				/* The timer is in a list, remove it. */
				( void ) uxListRemove( &( pxTimer->xTimerListItem ) );
 8008b40:	6a3b      	ldr	r3, [r7, #32]
 8008b42:	3304      	adds	r3, #4
 8008b44:	4618      	mov	r0, r3
 8008b46:	f7fe f979 	bl	8006e3c <uxListRemove>
			it must be present in the function call.  prvSampleTimeNow() must be
			called after the message is received from xTimerQueue so there is no
			possibility of a higher priority task adding a message to the message
			queue with a time that is ahead of the timer daemon task (because it
			pre-empted the timer daemon task after the xTimeNow value was set). */
			xTimeNow = prvSampleTimeNow( &xTimerListsWereSwitched );
 8008b4a:	1d3b      	adds	r3, r7, #4
 8008b4c:	4618      	mov	r0, r3
 8008b4e:	f7ff ff79 	bl	8008a44 <prvSampleTimeNow>
 8008b52:	61f8      	str	r0, [r7, #28]

			switch( xMessage.xMessageID )
 8008b54:	68bb      	ldr	r3, [r7, #8]
 8008b56:	2b09      	cmp	r3, #9
 8008b58:	d84e      	bhi.n	8008bf8 <prvProcessReceivedCommands+0xf0>
 8008b5a:	a201      	add	r2, pc, #4	; (adr r2, 8008b60 <prvProcessReceivedCommands+0x58>)
 8008b5c:	f852 f023 	ldr.w	pc, [r2, r3, lsl #2]
 8008b60:	08008b89 	.word	0x08008b89
 8008b64:	08008b89 	.word	0x08008b89
 8008b68:	08008b89 	.word	0x08008b89
 8008b6c:	08008bf9 	.word	0x08008bf9
 8008b70:	08008bcb 	.word	0x08008bcb
 8008b74:	08008be5 	.word	0x08008be5
 8008b78:	08008b89 	.word	0x08008b89
 8008b7c:	08008b89 	.word	0x08008b89
 8008b80:	08008bf9 	.word	0x08008bf9
 8008b84:	08008bcb 	.word	0x08008bcb
			    case tmrCOMMAND_START_FROM_ISR :
			    case tmrCOMMAND_RESET :
			    case tmrCOMMAND_RESET_FROM_ISR :
				case tmrCOMMAND_START_DONT_TRACE :
					/* Start or restart a timer. */
					if( prvInsertTimerInActiveList( pxTimer,  xMessage.u.xTimerParameters.xMessageValue + pxTimer->xTimerPeriodInTicks, xTimeNow, xMessage.u.xTimerParameters.xMessageValue ) != pdFALSE )
 8008b88:	68fa      	ldr	r2, [r7, #12]
 8008b8a:	6a3b      	ldr	r3, [r7, #32]
 8008b8c:	699b      	ldr	r3, [r3, #24]
 8008b8e:	18d1      	adds	r1, r2, r3
 8008b90:	68fb      	ldr	r3, [r7, #12]
 8008b92:	69fa      	ldr	r2, [r7, #28]
 8008b94:	6a38      	ldr	r0, [r7, #32]
 8008b96:	f7ff ff75 	bl	8008a84 <prvInsertTimerInActiveList>
 8008b9a:	4603      	mov	r3, r0
 8008b9c:	2b00      	cmp	r3, #0
 8008b9e:	d02b      	beq.n	8008bf8 <prvProcessReceivedCommands+0xf0>
					{
						/* The timer expired before it was added to the active
						timer list.  Process it now. */
						pxTimer->pxCallbackFunction( ( TimerHandle_t ) pxTimer );
 8008ba0:	6a3b      	ldr	r3, [r7, #32]
 8008ba2:	6a5b      	ldr	r3, [r3, #36]	; 0x24
 8008ba4:	6a38      	ldr	r0, [r7, #32]
 8008ba6:	4798      	blx	r3
						traceTIMER_EXPIRED( pxTimer );

						if( pxTimer->uxAutoReload == ( UBaseType_t ) pdTRUE )
 8008ba8:	6a3b      	ldr	r3, [r7, #32]
 8008baa:	69db      	ldr	r3, [r3, #28]
 8008bac:	2b01      	cmp	r3, #1
 8008bae:	d123      	bne.n	8008bf8 <prvProcessReceivedCommands+0xf0>
						{
							xResult = xTimerGenericCommand( pxTimer, tmrCOMMAND_START_DONT_TRACE, xMessage.u.xTimerParameters.xMessageValue + pxTimer->xTimerPeriodInTicks, NULL, tmrNO_DELAY );
 8008bb0:	68fa      	ldr	r2, [r7, #12]
 8008bb2:	6a3b      	ldr	r3, [r7, #32]
 8008bb4:	699b      	ldr	r3, [r3, #24]
 8008bb6:	441a      	add	r2, r3
 8008bb8:	2300      	movs	r3, #0
 8008bba:	9300      	str	r3, [sp, #0]
 8008bbc:	2300      	movs	r3, #0
 8008bbe:	2100      	movs	r1, #0
 8008bc0:	6a38      	ldr	r0, [r7, #32]
 8008bc2:	f7ff fe49 	bl	8008858 <xTimerGenericCommand>
 8008bc6:	61b8      	str	r0, [r7, #24]
					}
					else
					{
						mtCOVERAGE_TEST_MARKER();
					}
					break;
 8008bc8:	e016      	b.n	8008bf8 <prvProcessReceivedCommands+0xf0>
					There is nothing to do here. */
					break;

				case tmrCOMMAND_CHANGE_PERIOD :
				case tmrCOMMAND_CHANGE_PERIOD_FROM_ISR :
					pxTimer->xTimerPeriodInTicks = xMessage.u.xTimerParameters.xMessageValue;
 8008bca:	68fa      	ldr	r2, [r7, #12]
 8008bcc:	6a3b      	ldr	r3, [r7, #32]
 8008bce:	619a      	str	r2, [r3, #24]
					be longer or shorter than the old one.  The command time is
					therefore set to the current time, and as the period cannot
					be zero the next expiry time can only be in the future,
					meaning (unlike for the xTimerStart() case above) there is
					no fail case that needs to be handled here. */
					( void ) prvInsertTimerInActiveList( pxTimer, ( xTimeNow + pxTimer->xTimerPeriodInTicks ), xTimeNow, xTimeNow );
 8008bd0:	6a3b      	ldr	r3, [r7, #32]
 8008bd2:	699a      	ldr	r2, [r3, #24]
 8008bd4:	69fb      	ldr	r3, [r7, #28]
 8008bd6:	18d1      	adds	r1, r2, r3
 8008bd8:	69fb      	ldr	r3, [r7, #28]
 8008bda:	69fa      	ldr	r2, [r7, #28]
 8008bdc:	6a38      	ldr	r0, [r7, #32]
 8008bde:	f7ff ff51 	bl	8008a84 <prvInsertTimerInActiveList>
					break;
 8008be2:	e009      	b.n	8008bf8 <prvProcessReceivedCommands+0xf0>
					#elif( ( configSUPPORT_DYNAMIC_ALLOCATION == 1 ) && ( configSUPPORT_STATIC_ALLOCATION == 1 ) )
					{
						/* The timer could have been allocated statically or
						dynamically, so check before attempting to free the
						memory. */
						if( pxTimer->ucStaticallyAllocated == ( uint8_t ) pdFALSE )
 8008be4:	6a3b      	ldr	r3, [r7, #32]
 8008be6:	f893 302c 	ldrb.w	r3, [r3, #44]	; 0x2c
 8008bea:	2b00      	cmp	r3, #0
 8008bec:	d104      	bne.n	8008bf8 <prvProcessReceivedCommands+0xf0>
						{
							vPortFree( pxTimer );
 8008bee:	6a38      	ldr	r0, [r7, #32]
 8008bf0:	f000 fa62 	bl	80090b8 <vPortFree>
						{
							mtCOVERAGE_TEST_MARKER();
						}
					}
					#endif /* configSUPPORT_DYNAMIC_ALLOCATION */
					break;
 8008bf4:	e000      	b.n	8008bf8 <prvProcessReceivedCommands+0xf0>

				default	:
					/* Don't expect to get here. */
					break;
			}
		}
 8008bf6:	bf00      	nop
	while( xQueueReceive( xTimerQueue, &xMessage, tmrNO_DELAY ) != pdFAIL ) /*lint !e603 xMessage does not have to be initialised as it is passed out, not in, and it is not used unless xQueueReceive() returns pdTRUE. */
 8008bf8:	4b07      	ldr	r3, [pc, #28]	; (8008c18 <prvProcessReceivedCommands+0x110>)
 8008bfa:	681b      	ldr	r3, [r3, #0]
 8008bfc:	f107 0108 	add.w	r1, r7, #8
 8008c00:	2200      	movs	r2, #0
 8008c02:	4618      	mov	r0, r3
 8008c04:	f7fe fb7e 	bl	8007304 <xQueueReceive>
 8008c08:	4603      	mov	r3, r0
 8008c0a:	2b00      	cmp	r3, #0
 8008c0c:	d180      	bne.n	8008b10 <prvProcessReceivedCommands+0x8>
	}
}
 8008c0e:	bf00      	nop
 8008c10:	bf00      	nop
 8008c12:	3728      	adds	r7, #40	; 0x28
 8008c14:	46bd      	mov	sp, r7
 8008c16:	bd80      	pop	{r7, pc}
 8008c18:	20000c20 	.word	0x20000c20

08008c1c <prvSwitchTimerLists>:
/*-----------------------------------------------------------*/

static void prvSwitchTimerLists( void )
{
 8008c1c:	b580      	push	{r7, lr}
 8008c1e:	b088      	sub	sp, #32
 8008c20:	af02      	add	r7, sp, #8

	/* The tick count has overflowed.  The timer lists must be switched.
	If there are any timers still referenced from the current timer list
	then they must have expired and should be processed before the lists
	are switched. */
	while( listLIST_IS_EMPTY( pxCurrentTimerList ) == pdFALSE )
 8008c22:	e037      	b.n	8008c94 <prvSwitchTimerLists+0x78>
	{
		xNextExpireTime = listGET_ITEM_VALUE_OF_HEAD_ENTRY( pxCurrentTimerList );
 8008c24:	4b25      	ldr	r3, [pc, #148]	; (8008cbc <prvSwitchTimerLists+0xa0>)
 8008c26:	681b      	ldr	r3, [r3, #0]
 8008c28:	68db      	ldr	r3, [r3, #12]
 8008c2a:	681b      	ldr	r3, [r3, #0]
 8008c2c:	613b      	str	r3, [r7, #16]

		/* Remove the timer from the list. */
		pxTimer = ( Timer_t * ) listGET_OWNER_OF_HEAD_ENTRY( pxCurrentTimerList );
 8008c2e:	4b23      	ldr	r3, [pc, #140]	; (8008cbc <prvSwitchTimerLists+0xa0>)
 8008c30:	681b      	ldr	r3, [r3, #0]
 8008c32:	68db      	ldr	r3, [r3, #12]
 8008c34:	68db      	ldr	r3, [r3, #12]
 8008c36:	60fb      	str	r3, [r7, #12]
		( void ) uxListRemove( &( pxTimer->xTimerListItem ) );
 8008c38:	68fb      	ldr	r3, [r7, #12]
 8008c3a:	3304      	adds	r3, #4
 8008c3c:	4618      	mov	r0, r3
 8008c3e:	f7fe f8fd 	bl	8006e3c <uxListRemove>
		traceTIMER_EXPIRED( pxTimer );

		/* Execute its callback, then send a command to restart the timer if
		it is an auto-reload timer.  It cannot be restarted here as the lists
		have not yet been switched. */
		pxTimer->pxCallbackFunction( ( TimerHandle_t ) pxTimer );
 8008c42:	68fb      	ldr	r3, [r7, #12]
 8008c44:	6a5b      	ldr	r3, [r3, #36]	; 0x24
 8008c46:	68f8      	ldr	r0, [r7, #12]
 8008c48:	4798      	blx	r3

		if( pxTimer->uxAutoReload == ( UBaseType_t ) pdTRUE )
 8008c4a:	68fb      	ldr	r3, [r7, #12]
 8008c4c:	69db      	ldr	r3, [r3, #28]
 8008c4e:	2b01      	cmp	r3, #1
 8008c50:	d120      	bne.n	8008c94 <prvSwitchTimerLists+0x78>
			the timer going into the same timer list then it has already expired
			and the timer should be re-inserted into the current list so it is
			processed again within this loop.  Otherwise a command should be sent
			to restart the timer to ensure it is only inserted into a list after
			the lists have been swapped. */
			xReloadTime = ( xNextExpireTime + pxTimer->xTimerPeriodInTicks );
 8008c52:	68fb      	ldr	r3, [r7, #12]
 8008c54:	699b      	ldr	r3, [r3, #24]
 8008c56:	693a      	ldr	r2, [r7, #16]
 8008c58:	4413      	add	r3, r2
 8008c5a:	60bb      	str	r3, [r7, #8]
			if( xReloadTime > xNextExpireTime )
 8008c5c:	68ba      	ldr	r2, [r7, #8]
 8008c5e:	693b      	ldr	r3, [r7, #16]
 8008c60:	429a      	cmp	r2, r3
 8008c62:	d90e      	bls.n	8008c82 <prvSwitchTimerLists+0x66>
			{
				listSET_LIST_ITEM_VALUE( &( pxTimer->xTimerListItem ), xReloadTime );
 8008c64:	68fb      	ldr	r3, [r7, #12]
 8008c66:	68ba      	ldr	r2, [r7, #8]
 8008c68:	605a      	str	r2, [r3, #4]
				listSET_LIST_ITEM_OWNER( &( pxTimer->xTimerListItem ), pxTimer );
 8008c6a:	68fb      	ldr	r3, [r7, #12]
 8008c6c:	68fa      	ldr	r2, [r7, #12]
 8008c6e:	611a      	str	r2, [r3, #16]
				vListInsert( pxCurrentTimerList, &( pxTimer->xTimerListItem ) );
 8008c70:	4b12      	ldr	r3, [pc, #72]	; (8008cbc <prvSwitchTimerLists+0xa0>)
 8008c72:	681a      	ldr	r2, [r3, #0]
 8008c74:	68fb      	ldr	r3, [r7, #12]
 8008c76:	3304      	adds	r3, #4
 8008c78:	4619      	mov	r1, r3
 8008c7a:	4610      	mov	r0, r2
 8008c7c:	f7fe f8a6 	bl	8006dcc <vListInsert>
 8008c80:	e008      	b.n	8008c94 <prvSwitchTimerLists+0x78>
			}
			else
			{
				xResult = xTimerGenericCommand( pxTimer, tmrCOMMAND_START_DONT_TRACE, xNextExpireTime, NULL, tmrNO_DELAY );
 8008c82:	2300      	movs	r3, #0
 8008c84:	9300      	str	r3, [sp, #0]
 8008c86:	2300      	movs	r3, #0
 8008c88:	693a      	ldr	r2, [r7, #16]
 8008c8a:	2100      	movs	r1, #0
 8008c8c:	68f8      	ldr	r0, [r7, #12]
 8008c8e:	f7ff fde3 	bl	8008858 <xTimerGenericCommand>
 8008c92:	6078      	str	r0, [r7, #4]
	while( listLIST_IS_EMPTY( pxCurrentTimerList ) == pdFALSE )
 8008c94:	4b09      	ldr	r3, [pc, #36]	; (8008cbc <prvSwitchTimerLists+0xa0>)
 8008c96:	681b      	ldr	r3, [r3, #0]
 8008c98:	681b      	ldr	r3, [r3, #0]
 8008c9a:	2b00      	cmp	r3, #0
 8008c9c:	d1c2      	bne.n	8008c24 <prvSwitchTimerLists+0x8>
		{
			mtCOVERAGE_TEST_MARKER();
		}
	}

	pxTemp = pxCurrentTimerList;
 8008c9e:	4b07      	ldr	r3, [pc, #28]	; (8008cbc <prvSwitchTimerLists+0xa0>)
 8008ca0:	681b      	ldr	r3, [r3, #0]
 8008ca2:	617b      	str	r3, [r7, #20]
	pxCurrentTimerList = pxOverflowTimerList;
 8008ca4:	4b06      	ldr	r3, [pc, #24]	; (8008cc0 <prvSwitchTimerLists+0xa4>)
 8008ca6:	681b      	ldr	r3, [r3, #0]
 8008ca8:	4a04      	ldr	r2, [pc, #16]	; (8008cbc <prvSwitchTimerLists+0xa0>)
 8008caa:	6013      	str	r3, [r2, #0]
	pxOverflowTimerList = pxTemp;
 8008cac:	4a04      	ldr	r2, [pc, #16]	; (8008cc0 <prvSwitchTimerLists+0xa4>)
 8008cae:	697b      	ldr	r3, [r7, #20]
 8008cb0:	6013      	str	r3, [r2, #0]
}
 8008cb2:	bf00      	nop
 8008cb4:	3718      	adds	r7, #24
 8008cb6:	46bd      	mov	sp, r7
 8008cb8:	bd80      	pop	{r7, pc}
 8008cba:	bf00      	nop
 8008cbc:	20000c18 	.word	0x20000c18
 8008cc0:	20000c1c 	.word	0x20000c1c

08008cc4 <prvCheckForValidListAndQueue>:
/*-----------------------------------------------------------*/

static void prvCheckForValidListAndQueue( void )
{
 8008cc4:	b580      	push	{r7, lr}
 8008cc6:	b082      	sub	sp, #8
 8008cc8:	af02      	add	r7, sp, #8
	/* Check that the list from which active timers are referenced, and the
	queue used to communicate with the timer service, have been
	initialised. */
	taskENTER_CRITICAL();
 8008cca:	f000 f8c5 	bl	8008e58 <vPortEnterCritical>
	{
		if( xTimerQueue == NULL )
 8008cce:	4b15      	ldr	r3, [pc, #84]	; (8008d24 <prvCheckForValidListAndQueue+0x60>)
 8008cd0:	681b      	ldr	r3, [r3, #0]
 8008cd2:	2b00      	cmp	r3, #0
 8008cd4:	d120      	bne.n	8008d18 <prvCheckForValidListAndQueue+0x54>
		{
			vListInitialise( &xActiveTimerList1 );
 8008cd6:	4814      	ldr	r0, [pc, #80]	; (8008d28 <prvCheckForValidListAndQueue+0x64>)
 8008cd8:	f7fe f82a 	bl	8006d30 <vListInitialise>
			vListInitialise( &xActiveTimerList2 );
 8008cdc:	4813      	ldr	r0, [pc, #76]	; (8008d2c <prvCheckForValidListAndQueue+0x68>)
 8008cde:	f7fe f827 	bl	8006d30 <vListInitialise>
			pxCurrentTimerList = &xActiveTimerList1;
 8008ce2:	4b13      	ldr	r3, [pc, #76]	; (8008d30 <prvCheckForValidListAndQueue+0x6c>)
 8008ce4:	4a10      	ldr	r2, [pc, #64]	; (8008d28 <prvCheckForValidListAndQueue+0x64>)
 8008ce6:	601a      	str	r2, [r3, #0]
			pxOverflowTimerList = &xActiveTimerList2;
 8008ce8:	4b12      	ldr	r3, [pc, #72]	; (8008d34 <prvCheckForValidListAndQueue+0x70>)
 8008cea:	4a10      	ldr	r2, [pc, #64]	; (8008d2c <prvCheckForValidListAndQueue+0x68>)
 8008cec:	601a      	str	r2, [r3, #0]
				/* The timer queue is allocated statically in case
				configSUPPORT_DYNAMIC_ALLOCATION is 0. */
				static StaticQueue_t xStaticTimerQueue; /*lint !e956 Ok to declare in this manner to prevent additional conditional compilation guards in other locations. */
				static uint8_t ucStaticTimerQueueStorage[ ( size_t ) configTIMER_QUEUE_LENGTH * sizeof( DaemonTaskMessage_t ) ]; /*lint !e956 Ok to declare in this manner to prevent additional conditional compilation guards in other locations. */

				xTimerQueue = xQueueCreateStatic( ( UBaseType_t ) configTIMER_QUEUE_LENGTH, ( UBaseType_t ) sizeof( DaemonTaskMessage_t ), &( ucStaticTimerQueueStorage[ 0 ] ), &xStaticTimerQueue );
 8008cee:	2300      	movs	r3, #0
 8008cf0:	9300      	str	r3, [sp, #0]
 8008cf2:	4b11      	ldr	r3, [pc, #68]	; (8008d38 <prvCheckForValidListAndQueue+0x74>)
 8008cf4:	4a11      	ldr	r2, [pc, #68]	; (8008d3c <prvCheckForValidListAndQueue+0x78>)
 8008cf6:	2110      	movs	r1, #16
 8008cf8:	200a      	movs	r0, #10
 8008cfa:	f7fe f923 	bl	8006f44 <xQueueGenericCreateStatic>
 8008cfe:	4603      	mov	r3, r0
 8008d00:	4a08      	ldr	r2, [pc, #32]	; (8008d24 <prvCheckForValidListAndQueue+0x60>)
 8008d02:	6013      	str	r3, [r2, #0]
			}
			#endif

			#if ( configQUEUE_REGISTRY_SIZE > 0 )
			{
				if( xTimerQueue != NULL )
 8008d04:	4b07      	ldr	r3, [pc, #28]	; (8008d24 <prvCheckForValidListAndQueue+0x60>)
 8008d06:	681b      	ldr	r3, [r3, #0]
 8008d08:	2b00      	cmp	r3, #0
 8008d0a:	d005      	beq.n	8008d18 <prvCheckForValidListAndQueue+0x54>
				{
					vQueueAddToRegistry( xTimerQueue, "TmrQ" );
 8008d0c:	4b05      	ldr	r3, [pc, #20]	; (8008d24 <prvCheckForValidListAndQueue+0x60>)
 8008d0e:	681b      	ldr	r3, [r3, #0]
 8008d10:	490b      	ldr	r1, [pc, #44]	; (8008d40 <prvCheckForValidListAndQueue+0x7c>)
 8008d12:	4618      	mov	r0, r3
 8008d14:	f7fe fe2c 	bl	8007970 <vQueueAddToRegistry>
		else
		{
			mtCOVERAGE_TEST_MARKER();
		}
	}
	taskEXIT_CRITICAL();
 8008d18:	f000 f8b8 	bl	8008e8c <vPortExitCritical>
}
 8008d1c:	bf00      	nop
 8008d1e:	46bd      	mov	sp, r7
 8008d20:	bd80      	pop	{r7, pc}
 8008d22:	bf00      	nop
 8008d24:	20000c20 	.word	0x20000c20
 8008d28:	20000bf0 	.word	0x20000bf0
 8008d2c:	20000c04 	.word	0x20000c04
 8008d30:	20000c18 	.word	0x20000c18
 8008d34:	20000c1c 	.word	0x20000c1c
 8008d38:	20000ccc 	.word	0x20000ccc
 8008d3c:	20000c2c 	.word	0x20000c2c
 8008d40:	080093c0 	.word	0x080093c0

08008d44 <pxPortInitialiseStack>:

/*
 * See header file for description.
 */
StackType_t *pxPortInitialiseStack( StackType_t *pxTopOfStack, TaskFunction_t pxCode, void *pvParameters )
{
 8008d44:	b480      	push	{r7}
 8008d46:	b085      	sub	sp, #20
 8008d48:	af00      	add	r7, sp, #0
 8008d4a:	60f8      	str	r0, [r7, #12]
 8008d4c:	60b9      	str	r1, [r7, #8]
 8008d4e:	607a      	str	r2, [r7, #4]
	/* Simulate the stack frame as it would be created by a context switch
	interrupt. */
	pxTopOfStack--; /* Offset added to account for the way the MCU uses the stack on entry/exit of interrupts. */
 8008d50:	68fb      	ldr	r3, [r7, #12]
 8008d52:	3b04      	subs	r3, #4
 8008d54:	60fb      	str	r3, [r7, #12]
	*pxTopOfStack = portINITIAL_XPSR;	/* xPSR */
 8008d56:	68fb      	ldr	r3, [r7, #12]
 8008d58:	f04f 7280 	mov.w	r2, #16777216	; 0x1000000
 8008d5c:	601a      	str	r2, [r3, #0]
	pxTopOfStack--;
 8008d5e:	68fb      	ldr	r3, [r7, #12]
 8008d60:	3b04      	subs	r3, #4
 8008d62:	60fb      	str	r3, [r7, #12]
	*pxTopOfStack = ( ( StackType_t ) pxCode ) & portSTART_ADDRESS_MASK;	/* PC */
 8008d64:	68bb      	ldr	r3, [r7, #8]
 8008d66:	f023 0201 	bic.w	r2, r3, #1
 8008d6a:	68fb      	ldr	r3, [r7, #12]
 8008d6c:	601a      	str	r2, [r3, #0]
	pxTopOfStack--;
 8008d6e:	68fb      	ldr	r3, [r7, #12]
 8008d70:	3b04      	subs	r3, #4
 8008d72:	60fb      	str	r3, [r7, #12]
	*pxTopOfStack = ( StackType_t ) portTASK_RETURN_ADDRESS;	/* LR */
 8008d74:	4a08      	ldr	r2, [pc, #32]	; (8008d98 <pxPortInitialiseStack+0x54>)
 8008d76:	68fb      	ldr	r3, [r7, #12]
 8008d78:	601a      	str	r2, [r3, #0]
	pxTopOfStack -= 5;	/* R12, R3, R2 and R1. */
 8008d7a:	68fb      	ldr	r3, [r7, #12]
 8008d7c:	3b14      	subs	r3, #20
 8008d7e:	60fb      	str	r3, [r7, #12]
	*pxTopOfStack = ( StackType_t ) pvParameters;	/* R0 */
 8008d80:	687a      	ldr	r2, [r7, #4]
 8008d82:	68fb      	ldr	r3, [r7, #12]
 8008d84:	601a      	str	r2, [r3, #0]
	pxTopOfStack -= 8;	/* R11, R10, R9, R8, R7, R6, R5 and R4. */
 8008d86:	68fb      	ldr	r3, [r7, #12]
 8008d88:	3b20      	subs	r3, #32
 8008d8a:	60fb      	str	r3, [r7, #12]

	return pxTopOfStack;
 8008d8c:	68fb      	ldr	r3, [r7, #12]
}
 8008d8e:	4618      	mov	r0, r3
 8008d90:	3714      	adds	r7, #20
 8008d92:	46bd      	mov	sp, r7
 8008d94:	bc80      	pop	{r7}
 8008d96:	4770      	bx	lr
 8008d98:	08008d9d 	.word	0x08008d9d

08008d9c <prvTaskExitError>:
/*-----------------------------------------------------------*/

static void prvTaskExitError( void )
{
 8008d9c:	b480      	push	{r7}
 8008d9e:	b083      	sub	sp, #12
 8008da0:	af00      	add	r7, sp, #0
volatile uint32_t ulDummy = 0UL;
 8008da2:	2300      	movs	r3, #0
 8008da4:	603b      	str	r3, [r7, #0]
	__asm volatile
 8008da6:	f04f 0350 	mov.w	r3, #80	; 0x50
 8008daa:	f383 8811 	msr	BASEPRI, r3
 8008dae:	f3bf 8f6f 	isb	sy
 8008db2:	f3bf 8f4f 	dsb	sy
 8008db6:	607b      	str	r3, [r7, #4]
}
 8008db8:	bf00      	nop

	Artificially force an assert() to be triggered if configASSERT() is
	defined, then stop here so application writers can catch the error. */
	configASSERT( uxCriticalNesting == ~0UL );
	portDISABLE_INTERRUPTS();
	while( ulDummy == 0 )
 8008dba:	bf00      	nop
 8008dbc:	683b      	ldr	r3, [r7, #0]
 8008dbe:	2b00      	cmp	r3, #0
 8008dc0:	d0fc      	beq.n	8008dbc <prvTaskExitError+0x20>
		about code appearing after this function is called - making ulDummy
		volatile makes the compiler think the function could return and
		therefore not output an 'unreachable code' warning for code that appears
		after it. */
	}
}
 8008dc2:	bf00      	nop
 8008dc4:	bf00      	nop
 8008dc6:	370c      	adds	r7, #12
 8008dc8:	46bd      	mov	sp, r7
 8008dca:	bc80      	pop	{r7}
 8008dcc:	4770      	bx	lr
	...

08008dd0 <SVC_Handler>:
/*-----------------------------------------------------------*/

void vPortSVCHandler( void )
{
	__asm volatile (
 8008dd0:	4b07      	ldr	r3, [pc, #28]	; (8008df0 <pxCurrentTCBConst2>)
 8008dd2:	6819      	ldr	r1, [r3, #0]
 8008dd4:	6808      	ldr	r0, [r1, #0]
 8008dd6:	e8b0 0ff0 	ldmia.w	r0!, {r4, r5, r6, r7, r8, r9, sl, fp}
 8008dda:	f380 8809 	msr	PSP, r0
 8008dde:	f3bf 8f6f 	isb	sy
 8008de2:	f04f 0000 	mov.w	r0, #0
 8008de6:	f380 8811 	msr	BASEPRI, r0
 8008dea:	f04e 0e0d 	orr.w	lr, lr, #13
 8008dee:	4770      	bx	lr

08008df0 <pxCurrentTCBConst2>:
 8008df0:	200006f0 	.word	0x200006f0
					"	bx r14							\n"
					"									\n"
					"	.align 4						\n"
					"pxCurrentTCBConst2: .word pxCurrentTCB				\n"
				);
}
 8008df4:	bf00      	nop
 8008df6:	bf00      	nop

08008df8 <prvPortStartFirstTask>:
/*-----------------------------------------------------------*/

static void prvPortStartFirstTask( void )
{
	__asm volatile(
 8008df8:	4806      	ldr	r0, [pc, #24]	; (8008e14 <prvPortStartFirstTask+0x1c>)
 8008dfa:	6800      	ldr	r0, [r0, #0]
 8008dfc:	6800      	ldr	r0, [r0, #0]
 8008dfe:	f380 8808 	msr	MSP, r0
 8008e02:	b662      	cpsie	i
 8008e04:	b661      	cpsie	f
 8008e06:	f3bf 8f4f 	dsb	sy
 8008e0a:	f3bf 8f6f 	isb	sy
 8008e0e:	df00      	svc	0
 8008e10:	bf00      	nop
					" dsb					\n"
					" isb					\n"
					" svc 0					\n" /* System call to start first task. */
					" nop					\n"
				);
}
 8008e12:	bf00      	nop
 8008e14:	e000ed08 	.word	0xe000ed08

08008e18 <xPortStartScheduler>:

/*
 * See header file for description.
 */
BaseType_t xPortStartScheduler( void )
{
 8008e18:	b580      	push	{r7, lr}
 8008e1a:	af00      	add	r7, sp, #0
		*pucFirstUserPriorityRegister = ulOriginalPriority;
	}
	#endif /* conifgASSERT_DEFINED */

	/* Make PendSV and SysTick the lowest priority interrupts. */
	portNVIC_SYSPRI2_REG |= portNVIC_PENDSV_PRI;
 8008e1c:	4b0c      	ldr	r3, [pc, #48]	; (8008e50 <xPortStartScheduler+0x38>)
 8008e1e:	681b      	ldr	r3, [r3, #0]
 8008e20:	4a0b      	ldr	r2, [pc, #44]	; (8008e50 <xPortStartScheduler+0x38>)
 8008e22:	f443 0370 	orr.w	r3, r3, #15728640	; 0xf00000
 8008e26:	6013      	str	r3, [r2, #0]
	portNVIC_SYSPRI2_REG |= portNVIC_SYSTICK_PRI;
 8008e28:	4b09      	ldr	r3, [pc, #36]	; (8008e50 <xPortStartScheduler+0x38>)
 8008e2a:	681b      	ldr	r3, [r3, #0]
 8008e2c:	4a08      	ldr	r2, [pc, #32]	; (8008e50 <xPortStartScheduler+0x38>)
 8008e2e:	f043 4370 	orr.w	r3, r3, #4026531840	; 0xf0000000
 8008e32:	6013      	str	r3, [r2, #0]

	/* Start the timer that generates the tick ISR.  Interrupts are disabled
	here already. */
	vPortSetupTimerInterrupt();
 8008e34:	f000 f88a 	bl	8008f4c <vPortSetupTimerInterrupt>

	/* Initialise the critical nesting count ready for the first task. */
	uxCriticalNesting = 0;
 8008e38:	4b06      	ldr	r3, [pc, #24]	; (8008e54 <xPortStartScheduler+0x3c>)
 8008e3a:	2200      	movs	r2, #0
 8008e3c:	601a      	str	r2, [r3, #0]

	/* Start the first task. */
	prvPortStartFirstTask();
 8008e3e:	f7ff ffdb 	bl	8008df8 <prvPortStartFirstTask>
	exit error function to prevent compiler warnings about a static function
	not being called in the case that the application writer overrides this
	functionality by defining configTASK_RETURN_ADDRESS.  Call
	vTaskSwitchContext() so link time optimisation does not remove the
	symbol. */
	vTaskSwitchContext();
 8008e42:	f7ff f921 	bl	8008088 <vTaskSwitchContext>
	prvTaskExitError();
 8008e46:	f7ff ffa9 	bl	8008d9c <prvTaskExitError>

	/* Should not get here! */
	return 0;
 8008e4a:	2300      	movs	r3, #0
}
 8008e4c:	4618      	mov	r0, r3
 8008e4e:	bd80      	pop	{r7, pc}
 8008e50:	e000ed20 	.word	0xe000ed20
 8008e54:	2000000c 	.word	0x2000000c

08008e58 <vPortEnterCritical>:
	configASSERT( uxCriticalNesting == 1000UL );
}
/*-----------------------------------------------------------*/

void vPortEnterCritical( void )
{
 8008e58:	b480      	push	{r7}
 8008e5a:	b083      	sub	sp, #12
 8008e5c:	af00      	add	r7, sp, #0
	__asm volatile
 8008e5e:	f04f 0350 	mov.w	r3, #80	; 0x50
 8008e62:	f383 8811 	msr	BASEPRI, r3
 8008e66:	f3bf 8f6f 	isb	sy
 8008e6a:	f3bf 8f4f 	dsb	sy
 8008e6e:	607b      	str	r3, [r7, #4]
}
 8008e70:	bf00      	nop
	portDISABLE_INTERRUPTS();
	uxCriticalNesting++;
 8008e72:	4b05      	ldr	r3, [pc, #20]	; (8008e88 <vPortEnterCritical+0x30>)
 8008e74:	681b      	ldr	r3, [r3, #0]
 8008e76:	3301      	adds	r3, #1
 8008e78:	4a03      	ldr	r2, [pc, #12]	; (8008e88 <vPortEnterCritical+0x30>)
 8008e7a:	6013      	str	r3, [r2, #0]
	assert function also uses a critical section. */
	if( uxCriticalNesting == 1 )
	{
		configASSERT( ( portNVIC_INT_CTRL_REG & portVECTACTIVE_MASK ) == 0 );
	}
}
 8008e7c:	bf00      	nop
 8008e7e:	370c      	adds	r7, #12
 8008e80:	46bd      	mov	sp, r7
 8008e82:	bc80      	pop	{r7}
 8008e84:	4770      	bx	lr
 8008e86:	bf00      	nop
 8008e88:	2000000c 	.word	0x2000000c

08008e8c <vPortExitCritical>:
/*-----------------------------------------------------------*/

void vPortExitCritical( void )
{
 8008e8c:	b480      	push	{r7}
 8008e8e:	b083      	sub	sp, #12
 8008e90:	af00      	add	r7, sp, #0
	configASSERT( uxCriticalNesting );
	uxCriticalNesting--;
 8008e92:	4b0a      	ldr	r3, [pc, #40]	; (8008ebc <vPortExitCritical+0x30>)
 8008e94:	681b      	ldr	r3, [r3, #0]
 8008e96:	3b01      	subs	r3, #1
 8008e98:	4a08      	ldr	r2, [pc, #32]	; (8008ebc <vPortExitCritical+0x30>)
 8008e9a:	6013      	str	r3, [r2, #0]
	if( uxCriticalNesting == 0 )
 8008e9c:	4b07      	ldr	r3, [pc, #28]	; (8008ebc <vPortExitCritical+0x30>)
 8008e9e:	681b      	ldr	r3, [r3, #0]
 8008ea0:	2b00      	cmp	r3, #0
 8008ea2:	d105      	bne.n	8008eb0 <vPortExitCritical+0x24>
 8008ea4:	2300      	movs	r3, #0
 8008ea6:	607b      	str	r3, [r7, #4]
	__asm volatile
 8008ea8:	687b      	ldr	r3, [r7, #4]
 8008eaa:	f383 8811 	msr	BASEPRI, r3
}
 8008eae:	bf00      	nop
	{
		portENABLE_INTERRUPTS();
	}
}
 8008eb0:	bf00      	nop
 8008eb2:	370c      	adds	r7, #12
 8008eb4:	46bd      	mov	sp, r7
 8008eb6:	bc80      	pop	{r7}
 8008eb8:	4770      	bx	lr
 8008eba:	bf00      	nop
 8008ebc:	2000000c 	.word	0x2000000c

08008ec0 <PendSV_Handler>:

void xPortPendSVHandler( void )
{
	/* This is a naked function. */

	__asm volatile
 8008ec0:	f3ef 8009 	mrs	r0, PSP
 8008ec4:	f3bf 8f6f 	isb	sy
 8008ec8:	4b0d      	ldr	r3, [pc, #52]	; (8008f00 <pxCurrentTCBConst>)
 8008eca:	681a      	ldr	r2, [r3, #0]
 8008ecc:	e920 0ff0 	stmdb	r0!, {r4, r5, r6, r7, r8, r9, sl, fp}
 8008ed0:	6010      	str	r0, [r2, #0]
 8008ed2:	e92d 4008 	stmdb	sp!, {r3, lr}
 8008ed6:	f04f 0050 	mov.w	r0, #80	; 0x50
 8008eda:	f380 8811 	msr	BASEPRI, r0
 8008ede:	f7ff f8d3 	bl	8008088 <vTaskSwitchContext>
 8008ee2:	f04f 0000 	mov.w	r0, #0
 8008ee6:	f380 8811 	msr	BASEPRI, r0
 8008eea:	e8bd 4008 	ldmia.w	sp!, {r3, lr}
 8008eee:	6819      	ldr	r1, [r3, #0]
 8008ef0:	6808      	ldr	r0, [r1, #0]
 8008ef2:	e8b0 0ff0 	ldmia.w	r0!, {r4, r5, r6, r7, r8, r9, sl, fp}
 8008ef6:	f380 8809 	msr	PSP, r0
 8008efa:	f3bf 8f6f 	isb	sy
 8008efe:	4770      	bx	lr

08008f00 <pxCurrentTCBConst>:
 8008f00:	200006f0 	.word	0x200006f0
	"										\n"
	"	.align 4							\n"
	"pxCurrentTCBConst: .word pxCurrentTCB	\n"
	::"i"(configMAX_SYSCALL_INTERRUPT_PRIORITY)
	);
}
 8008f04:	bf00      	nop
 8008f06:	bf00      	nop

08008f08 <xPortSysTickHandler>:
/*-----------------------------------------------------------*/

void xPortSysTickHandler( void )
{
 8008f08:	b580      	push	{r7, lr}
 8008f0a:	b082      	sub	sp, #8
 8008f0c:	af00      	add	r7, sp, #0
	__asm volatile
 8008f0e:	f04f 0350 	mov.w	r3, #80	; 0x50
 8008f12:	f383 8811 	msr	BASEPRI, r3
 8008f16:	f3bf 8f6f 	isb	sy
 8008f1a:	f3bf 8f4f 	dsb	sy
 8008f1e:	607b      	str	r3, [r7, #4]
}
 8008f20:	bf00      	nop
	save and then restore the interrupt mask value as its value is already
	known. */
	portDISABLE_INTERRUPTS();
	{
		/* Increment the RTOS tick. */
		if( xTaskIncrementTick() != pdFALSE )
 8008f22:	f7ff f803 	bl	8007f2c <xTaskIncrementTick>
 8008f26:	4603      	mov	r3, r0
 8008f28:	2b00      	cmp	r3, #0
 8008f2a:	d003      	beq.n	8008f34 <xPortSysTickHandler+0x2c>
		{
			/* A context switch is required.  Context switching is performed in
			the PendSV interrupt.  Pend the PendSV interrupt. */
			portNVIC_INT_CTRL_REG = portNVIC_PENDSVSET_BIT;
 8008f2c:	4b06      	ldr	r3, [pc, #24]	; (8008f48 <xPortSysTickHandler+0x40>)
 8008f2e:	f04f 5280 	mov.w	r2, #268435456	; 0x10000000
 8008f32:	601a      	str	r2, [r3, #0]
 8008f34:	2300      	movs	r3, #0
 8008f36:	603b      	str	r3, [r7, #0]
	__asm volatile
 8008f38:	683b      	ldr	r3, [r7, #0]
 8008f3a:	f383 8811 	msr	BASEPRI, r3
}
 8008f3e:	bf00      	nop
		}
	}
	portENABLE_INTERRUPTS();
}
 8008f40:	bf00      	nop
 8008f42:	3708      	adds	r7, #8
 8008f44:	46bd      	mov	sp, r7
 8008f46:	bd80      	pop	{r7, pc}
 8008f48:	e000ed04 	.word	0xe000ed04

08008f4c <vPortSetupTimerInterrupt>:
/*
 * Setup the systick timer to generate the tick interrupts at the required
 * frequency.
 */
__attribute__(( weak )) void vPortSetupTimerInterrupt( void )
{
 8008f4c:	b480      	push	{r7}
 8008f4e:	af00      	add	r7, sp, #0
		ulStoppedTimerCompensation = portMISSED_COUNTS_FACTOR / ( configCPU_CLOCK_HZ / configSYSTICK_CLOCK_HZ );
	}
	#endif /* configUSE_TICKLESS_IDLE */

	/* Stop and clear the SysTick. */
	portNVIC_SYSTICK_CTRL_REG = 0UL;
 8008f50:	4b0a      	ldr	r3, [pc, #40]	; (8008f7c <vPortSetupTimerInterrupt+0x30>)
 8008f52:	2200      	movs	r2, #0
 8008f54:	601a      	str	r2, [r3, #0]
	portNVIC_SYSTICK_CURRENT_VALUE_REG = 0UL;
 8008f56:	4b0a      	ldr	r3, [pc, #40]	; (8008f80 <vPortSetupTimerInterrupt+0x34>)
 8008f58:	2200      	movs	r2, #0
 8008f5a:	601a      	str	r2, [r3, #0]

	/* Configure SysTick to interrupt at the requested rate. */
	portNVIC_SYSTICK_LOAD_REG = ( configSYSTICK_CLOCK_HZ / configTICK_RATE_HZ ) - 1UL;
 8008f5c:	4b09      	ldr	r3, [pc, #36]	; (8008f84 <vPortSetupTimerInterrupt+0x38>)
 8008f5e:	681b      	ldr	r3, [r3, #0]
 8008f60:	4a09      	ldr	r2, [pc, #36]	; (8008f88 <vPortSetupTimerInterrupt+0x3c>)
 8008f62:	fba2 2303 	umull	r2, r3, r2, r3
 8008f66:	099b      	lsrs	r3, r3, #6
 8008f68:	4a08      	ldr	r2, [pc, #32]	; (8008f8c <vPortSetupTimerInterrupt+0x40>)
 8008f6a:	3b01      	subs	r3, #1
 8008f6c:	6013      	str	r3, [r2, #0]
	portNVIC_SYSTICK_CTRL_REG = ( portNVIC_SYSTICK_CLK_BIT | portNVIC_SYSTICK_INT_BIT | portNVIC_SYSTICK_ENABLE_BIT );
 8008f6e:	4b03      	ldr	r3, [pc, #12]	; (8008f7c <vPortSetupTimerInterrupt+0x30>)
 8008f70:	2207      	movs	r2, #7
 8008f72:	601a      	str	r2, [r3, #0]
}
 8008f74:	bf00      	nop
 8008f76:	46bd      	mov	sp, r7
 8008f78:	bc80      	pop	{r7}
 8008f7a:	4770      	bx	lr
 8008f7c:	e000e010 	.word	0xe000e010
 8008f80:	e000e018 	.word	0xe000e018
 8008f84:	20000000 	.word	0x20000000
 8008f88:	10624dd3 	.word	0x10624dd3
 8008f8c:	e000e014 	.word	0xe000e014

08008f90 <pvPortMalloc>:
static size_t xBlockAllocatedBit = 0;

/*-----------------------------------------------------------*/

void *pvPortMalloc( size_t xWantedSize )
{
 8008f90:	b580      	push	{r7, lr}
 8008f92:	b086      	sub	sp, #24
 8008f94:	af00      	add	r7, sp, #0
 8008f96:	6078      	str	r0, [r7, #4]
BlockLink_t *pxBlock, *pxPreviousBlock, *pxNewBlockLink;
void *pvReturn = NULL;
 8008f98:	2300      	movs	r3, #0
 8008f9a:	60fb      	str	r3, [r7, #12]

	vTaskSuspendAll();
 8008f9c:	f7fe ff1c 	bl	8007dd8 <vTaskSuspendAll>
	{
		/* If this is the first call to malloc then the heap will require
		initialisation to setup the list of free blocks. */
		if( pxEnd == NULL )
 8008fa0:	4b40      	ldr	r3, [pc, #256]	; (80090a4 <pvPortMalloc+0x114>)
 8008fa2:	681b      	ldr	r3, [r3, #0]
 8008fa4:	2b00      	cmp	r3, #0
 8008fa6:	d101      	bne.n	8008fac <pvPortMalloc+0x1c>
		{
			prvHeapInit();
 8008fa8:	f000 f8c0 	bl	800912c <prvHeapInit>

		/* Check the requested block size is not so large that the top bit is
		set.  The top bit of the block size member of the BlockLink_t structure
		is used to determine who owns the block - the application or the
		kernel, so it must be free. */
		if( ( xWantedSize & xBlockAllocatedBit ) == 0 )
 8008fac:	4b3e      	ldr	r3, [pc, #248]	; (80090a8 <pvPortMalloc+0x118>)
 8008fae:	681a      	ldr	r2, [r3, #0]
 8008fb0:	687b      	ldr	r3, [r7, #4]
 8008fb2:	4013      	ands	r3, r2
 8008fb4:	2b00      	cmp	r3, #0
 8008fb6:	d16d      	bne.n	8009094 <pvPortMalloc+0x104>
		{
			/* The wanted size is increased so it can contain a BlockLink_t
			structure in addition to the requested amount of bytes. */
			if( xWantedSize > 0 )
 8008fb8:	687b      	ldr	r3, [r7, #4]
 8008fba:	2b00      	cmp	r3, #0
 8008fbc:	d00d      	beq.n	8008fda <pvPortMalloc+0x4a>
			{
				xWantedSize += xHeapStructSize;
 8008fbe:	2208      	movs	r2, #8
 8008fc0:	687b      	ldr	r3, [r7, #4]
 8008fc2:	4413      	add	r3, r2
 8008fc4:	607b      	str	r3, [r7, #4]

				/* Ensure that blocks are always aligned to the required number
				of bytes. */
				if( ( xWantedSize & portBYTE_ALIGNMENT_MASK ) != 0x00 )
 8008fc6:	687b      	ldr	r3, [r7, #4]
 8008fc8:	f003 0307 	and.w	r3, r3, #7
 8008fcc:	2b00      	cmp	r3, #0
 8008fce:	d004      	beq.n	8008fda <pvPortMalloc+0x4a>
				{
					/* Byte alignment required. */
					xWantedSize += ( portBYTE_ALIGNMENT - ( xWantedSize & portBYTE_ALIGNMENT_MASK ) );
 8008fd0:	687b      	ldr	r3, [r7, #4]
 8008fd2:	f023 0307 	bic.w	r3, r3, #7
 8008fd6:	3308      	adds	r3, #8
 8008fd8:	607b      	str	r3, [r7, #4]
			else
			{
				mtCOVERAGE_TEST_MARKER();
			}

			if( ( xWantedSize > 0 ) && ( xWantedSize <= xFreeBytesRemaining ) )
 8008fda:	687b      	ldr	r3, [r7, #4]
 8008fdc:	2b00      	cmp	r3, #0
 8008fde:	d059      	beq.n	8009094 <pvPortMalloc+0x104>
 8008fe0:	4b32      	ldr	r3, [pc, #200]	; (80090ac <pvPortMalloc+0x11c>)
 8008fe2:	681b      	ldr	r3, [r3, #0]
 8008fe4:	687a      	ldr	r2, [r7, #4]
 8008fe6:	429a      	cmp	r2, r3
 8008fe8:	d854      	bhi.n	8009094 <pvPortMalloc+0x104>
			{
				/* Traverse the list from the start	(lowest address) block until
				one	of adequate size is found. */
				pxPreviousBlock = &xStart;
 8008fea:	4b31      	ldr	r3, [pc, #196]	; (80090b0 <pvPortMalloc+0x120>)
 8008fec:	613b      	str	r3, [r7, #16]
				pxBlock = xStart.pxNextFreeBlock;
 8008fee:	4b30      	ldr	r3, [pc, #192]	; (80090b0 <pvPortMalloc+0x120>)
 8008ff0:	681b      	ldr	r3, [r3, #0]
 8008ff2:	617b      	str	r3, [r7, #20]
				while( ( pxBlock->xBlockSize < xWantedSize ) && ( pxBlock->pxNextFreeBlock != NULL ) )
 8008ff4:	e004      	b.n	8009000 <pvPortMalloc+0x70>
				{
					pxPreviousBlock = pxBlock;
 8008ff6:	697b      	ldr	r3, [r7, #20]
 8008ff8:	613b      	str	r3, [r7, #16]
					pxBlock = pxBlock->pxNextFreeBlock;
 8008ffa:	697b      	ldr	r3, [r7, #20]
 8008ffc:	681b      	ldr	r3, [r3, #0]
 8008ffe:	617b      	str	r3, [r7, #20]
				while( ( pxBlock->xBlockSize < xWantedSize ) && ( pxBlock->pxNextFreeBlock != NULL ) )
 8009000:	697b      	ldr	r3, [r7, #20]
 8009002:	685b      	ldr	r3, [r3, #4]
 8009004:	687a      	ldr	r2, [r7, #4]
 8009006:	429a      	cmp	r2, r3
 8009008:	d903      	bls.n	8009012 <pvPortMalloc+0x82>
 800900a:	697b      	ldr	r3, [r7, #20]
 800900c:	681b      	ldr	r3, [r3, #0]
 800900e:	2b00      	cmp	r3, #0
 8009010:	d1f1      	bne.n	8008ff6 <pvPortMalloc+0x66>
				}

				/* If the end marker was reached then a block of adequate size
				was	not found. */
				if( pxBlock != pxEnd )
 8009012:	4b24      	ldr	r3, [pc, #144]	; (80090a4 <pvPortMalloc+0x114>)
 8009014:	681b      	ldr	r3, [r3, #0]
 8009016:	697a      	ldr	r2, [r7, #20]
 8009018:	429a      	cmp	r2, r3
 800901a:	d03b      	beq.n	8009094 <pvPortMalloc+0x104>
				{
					/* Return the memory space pointed to - jumping over the
					BlockLink_t structure at its start. */
					pvReturn = ( void * ) ( ( ( uint8_t * ) pxPreviousBlock->pxNextFreeBlock ) + xHeapStructSize );
 800901c:	693b      	ldr	r3, [r7, #16]
 800901e:	681b      	ldr	r3, [r3, #0]
 8009020:	2208      	movs	r2, #8
 8009022:	4413      	add	r3, r2
 8009024:	60fb      	str	r3, [r7, #12]

					/* This block is being returned for use so must be taken out
					of the list of free blocks. */
					pxPreviousBlock->pxNextFreeBlock = pxBlock->pxNextFreeBlock;
 8009026:	697b      	ldr	r3, [r7, #20]
 8009028:	681a      	ldr	r2, [r3, #0]
 800902a:	693b      	ldr	r3, [r7, #16]
 800902c:	601a      	str	r2, [r3, #0]

					/* If the block is larger than required it can be split into
					two. */
					if( ( pxBlock->xBlockSize - xWantedSize ) > heapMINIMUM_BLOCK_SIZE )
 800902e:	697b      	ldr	r3, [r7, #20]
 8009030:	685a      	ldr	r2, [r3, #4]
 8009032:	687b      	ldr	r3, [r7, #4]
 8009034:	1ad2      	subs	r2, r2, r3
 8009036:	2308      	movs	r3, #8
 8009038:	005b      	lsls	r3, r3, #1
 800903a:	429a      	cmp	r2, r3
 800903c:	d90f      	bls.n	800905e <pvPortMalloc+0xce>
					{
						/* This block is to be split into two.  Create a new
						block following the number of bytes requested. The void
						cast is used to prevent byte alignment warnings from the
						compiler. */
						pxNewBlockLink = ( void * ) ( ( ( uint8_t * ) pxBlock ) + xWantedSize );
 800903e:	697a      	ldr	r2, [r7, #20]
 8009040:	687b      	ldr	r3, [r7, #4]
 8009042:	4413      	add	r3, r2
 8009044:	60bb      	str	r3, [r7, #8]
						configASSERT( ( ( ( size_t ) pxNewBlockLink ) & portBYTE_ALIGNMENT_MASK ) == 0 );

						/* Calculate the sizes of two blocks split from the
						single block. */
						pxNewBlockLink->xBlockSize = pxBlock->xBlockSize - xWantedSize;
 8009046:	697b      	ldr	r3, [r7, #20]
 8009048:	685a      	ldr	r2, [r3, #4]
 800904a:	687b      	ldr	r3, [r7, #4]
 800904c:	1ad2      	subs	r2, r2, r3
 800904e:	68bb      	ldr	r3, [r7, #8]
 8009050:	605a      	str	r2, [r3, #4]
						pxBlock->xBlockSize = xWantedSize;
 8009052:	697b      	ldr	r3, [r7, #20]
 8009054:	687a      	ldr	r2, [r7, #4]
 8009056:	605a      	str	r2, [r3, #4]

						/* Insert the new block into the list of free blocks. */
						prvInsertBlockIntoFreeList( pxNewBlockLink );
 8009058:	68b8      	ldr	r0, [r7, #8]
 800905a:	f000 f8c9 	bl	80091f0 <prvInsertBlockIntoFreeList>
					else
					{
						mtCOVERAGE_TEST_MARKER();
					}

					xFreeBytesRemaining -= pxBlock->xBlockSize;
 800905e:	4b13      	ldr	r3, [pc, #76]	; (80090ac <pvPortMalloc+0x11c>)
 8009060:	681a      	ldr	r2, [r3, #0]
 8009062:	697b      	ldr	r3, [r7, #20]
 8009064:	685b      	ldr	r3, [r3, #4]
 8009066:	1ad3      	subs	r3, r2, r3
 8009068:	4a10      	ldr	r2, [pc, #64]	; (80090ac <pvPortMalloc+0x11c>)
 800906a:	6013      	str	r3, [r2, #0]

					if( xFreeBytesRemaining < xMinimumEverFreeBytesRemaining )
 800906c:	4b0f      	ldr	r3, [pc, #60]	; (80090ac <pvPortMalloc+0x11c>)
 800906e:	681a      	ldr	r2, [r3, #0]
 8009070:	4b10      	ldr	r3, [pc, #64]	; (80090b4 <pvPortMalloc+0x124>)
 8009072:	681b      	ldr	r3, [r3, #0]
 8009074:	429a      	cmp	r2, r3
 8009076:	d203      	bcs.n	8009080 <pvPortMalloc+0xf0>
					{
						xMinimumEverFreeBytesRemaining = xFreeBytesRemaining;
 8009078:	4b0c      	ldr	r3, [pc, #48]	; (80090ac <pvPortMalloc+0x11c>)
 800907a:	681b      	ldr	r3, [r3, #0]
 800907c:	4a0d      	ldr	r2, [pc, #52]	; (80090b4 <pvPortMalloc+0x124>)
 800907e:	6013      	str	r3, [r2, #0]
						mtCOVERAGE_TEST_MARKER();
					}

					/* The block is being returned - it is allocated and owned
					by the application and has no "next" block. */
					pxBlock->xBlockSize |= xBlockAllocatedBit;
 8009080:	697b      	ldr	r3, [r7, #20]
 8009082:	685a      	ldr	r2, [r3, #4]
 8009084:	4b08      	ldr	r3, [pc, #32]	; (80090a8 <pvPortMalloc+0x118>)
 8009086:	681b      	ldr	r3, [r3, #0]
 8009088:	431a      	orrs	r2, r3
 800908a:	697b      	ldr	r3, [r7, #20]
 800908c:	605a      	str	r2, [r3, #4]
					pxBlock->pxNextFreeBlock = NULL;
 800908e:	697b      	ldr	r3, [r7, #20]
 8009090:	2200      	movs	r2, #0
 8009092:	601a      	str	r2, [r3, #0]
			mtCOVERAGE_TEST_MARKER();
		}

		traceMALLOC( pvReturn, xWantedSize );
	}
	( void ) xTaskResumeAll();
 8009094:	f7fe feae 	bl	8007df4 <xTaskResumeAll>
		}
	}
	#endif

	configASSERT( ( ( ( size_t ) pvReturn ) & ( size_t ) portBYTE_ALIGNMENT_MASK ) == 0 );
	return pvReturn;
 8009098:	68fb      	ldr	r3, [r7, #12]
}
 800909a:	4618      	mov	r0, r3
 800909c:	3718      	adds	r7, #24
 800909e:	46bd      	mov	sp, r7
 80090a0:	bd80      	pop	{r7, pc}
 80090a2:	bf00      	nop
 80090a4:	20004524 	.word	0x20004524
 80090a8:	20004530 	.word	0x20004530
 80090ac:	20004528 	.word	0x20004528
 80090b0:	2000451c 	.word	0x2000451c
 80090b4:	2000452c 	.word	0x2000452c

080090b8 <vPortFree>:
/*-----------------------------------------------------------*/

void vPortFree( void *pv )
{
 80090b8:	b580      	push	{r7, lr}
 80090ba:	b084      	sub	sp, #16
 80090bc:	af00      	add	r7, sp, #0
 80090be:	6078      	str	r0, [r7, #4]
uint8_t *puc = ( uint8_t * ) pv;
 80090c0:	687b      	ldr	r3, [r7, #4]
 80090c2:	60fb      	str	r3, [r7, #12]
BlockLink_t *pxLink;

	if( pv != NULL )
 80090c4:	687b      	ldr	r3, [r7, #4]
 80090c6:	2b00      	cmp	r3, #0
 80090c8:	d027      	beq.n	800911a <vPortFree+0x62>
	{
		/* The memory being freed will have an BlockLink_t structure immediately
		before it. */
		puc -= xHeapStructSize;
 80090ca:	2308      	movs	r3, #8
 80090cc:	425b      	negs	r3, r3
 80090ce:	68fa      	ldr	r2, [r7, #12]
 80090d0:	4413      	add	r3, r2
 80090d2:	60fb      	str	r3, [r7, #12]

		/* This casting is to keep the compiler from issuing warnings. */
		pxLink = ( void * ) puc;
 80090d4:	68fb      	ldr	r3, [r7, #12]
 80090d6:	60bb      	str	r3, [r7, #8]

		/* Check the block is actually allocated. */
		configASSERT( ( pxLink->xBlockSize & xBlockAllocatedBit ) != 0 );
		configASSERT( pxLink->pxNextFreeBlock == NULL );

		if( ( pxLink->xBlockSize & xBlockAllocatedBit ) != 0 )
 80090d8:	68bb      	ldr	r3, [r7, #8]
 80090da:	685a      	ldr	r2, [r3, #4]
 80090dc:	4b11      	ldr	r3, [pc, #68]	; (8009124 <vPortFree+0x6c>)
 80090de:	681b      	ldr	r3, [r3, #0]
 80090e0:	4013      	ands	r3, r2
 80090e2:	2b00      	cmp	r3, #0
 80090e4:	d019      	beq.n	800911a <vPortFree+0x62>
		{
			if( pxLink->pxNextFreeBlock == NULL )
 80090e6:	68bb      	ldr	r3, [r7, #8]
 80090e8:	681b      	ldr	r3, [r3, #0]
 80090ea:	2b00      	cmp	r3, #0
 80090ec:	d115      	bne.n	800911a <vPortFree+0x62>
			{
				/* The block is being returned to the heap - it is no longer
				allocated. */
				pxLink->xBlockSize &= ~xBlockAllocatedBit;
 80090ee:	68bb      	ldr	r3, [r7, #8]
 80090f0:	685a      	ldr	r2, [r3, #4]
 80090f2:	4b0c      	ldr	r3, [pc, #48]	; (8009124 <vPortFree+0x6c>)
 80090f4:	681b      	ldr	r3, [r3, #0]
 80090f6:	43db      	mvns	r3, r3
 80090f8:	401a      	ands	r2, r3
 80090fa:	68bb      	ldr	r3, [r7, #8]
 80090fc:	605a      	str	r2, [r3, #4]

				vTaskSuspendAll();
 80090fe:	f7fe fe6b 	bl	8007dd8 <vTaskSuspendAll>
				{
					/* Add this block to the list of free blocks. */
					xFreeBytesRemaining += pxLink->xBlockSize;
 8009102:	68bb      	ldr	r3, [r7, #8]
 8009104:	685a      	ldr	r2, [r3, #4]
 8009106:	4b08      	ldr	r3, [pc, #32]	; (8009128 <vPortFree+0x70>)
 8009108:	681b      	ldr	r3, [r3, #0]
 800910a:	4413      	add	r3, r2
 800910c:	4a06      	ldr	r2, [pc, #24]	; (8009128 <vPortFree+0x70>)
 800910e:	6013      	str	r3, [r2, #0]
					traceFREE( pv, pxLink->xBlockSize );
					prvInsertBlockIntoFreeList( ( ( BlockLink_t * ) pxLink ) );
 8009110:	68b8      	ldr	r0, [r7, #8]
 8009112:	f000 f86d 	bl	80091f0 <prvInsertBlockIntoFreeList>
				}
				( void ) xTaskResumeAll();
 8009116:	f7fe fe6d 	bl	8007df4 <xTaskResumeAll>
		else
		{
			mtCOVERAGE_TEST_MARKER();
		}
	}
}
 800911a:	bf00      	nop
 800911c:	3710      	adds	r7, #16
 800911e:	46bd      	mov	sp, r7
 8009120:	bd80      	pop	{r7, pc}
 8009122:	bf00      	nop
 8009124:	20004530 	.word	0x20004530
 8009128:	20004528 	.word	0x20004528

0800912c <prvHeapInit>:
	/* This just exists to keep the linker quiet. */
}
/*-----------------------------------------------------------*/

static void prvHeapInit( void )
{
 800912c:	b480      	push	{r7}
 800912e:	b085      	sub	sp, #20
 8009130:	af00      	add	r7, sp, #0
BlockLink_t *pxFirstFreeBlock;
uint8_t *pucAlignedHeap;
size_t uxAddress;
size_t xTotalHeapSize = configTOTAL_HEAP_SIZE;
 8009132:	f44f 5360 	mov.w	r3, #14336	; 0x3800
 8009136:	60bb      	str	r3, [r7, #8]

	/* Ensure the heap starts on a correctly aligned boundary. */
	uxAddress = ( size_t ) ucHeap;
 8009138:	4b27      	ldr	r3, [pc, #156]	; (80091d8 <prvHeapInit+0xac>)
 800913a:	60fb      	str	r3, [r7, #12]

	if( ( uxAddress & portBYTE_ALIGNMENT_MASK ) != 0 )
 800913c:	68fb      	ldr	r3, [r7, #12]
 800913e:	f003 0307 	and.w	r3, r3, #7
 8009142:	2b00      	cmp	r3, #0
 8009144:	d00c      	beq.n	8009160 <prvHeapInit+0x34>
	{
		uxAddress += ( portBYTE_ALIGNMENT - 1 );
 8009146:	68fb      	ldr	r3, [r7, #12]
 8009148:	3307      	adds	r3, #7
 800914a:	60fb      	str	r3, [r7, #12]
		uxAddress &= ~( ( size_t ) portBYTE_ALIGNMENT_MASK );
 800914c:	68fb      	ldr	r3, [r7, #12]
 800914e:	f023 0307 	bic.w	r3, r3, #7
 8009152:	60fb      	str	r3, [r7, #12]
		xTotalHeapSize -= uxAddress - ( size_t ) ucHeap;
 8009154:	68ba      	ldr	r2, [r7, #8]
 8009156:	68fb      	ldr	r3, [r7, #12]
 8009158:	1ad3      	subs	r3, r2, r3
 800915a:	4a1f      	ldr	r2, [pc, #124]	; (80091d8 <prvHeapInit+0xac>)
 800915c:	4413      	add	r3, r2
 800915e:	60bb      	str	r3, [r7, #8]
	}

	pucAlignedHeap = ( uint8_t * ) uxAddress;
 8009160:	68fb      	ldr	r3, [r7, #12]
 8009162:	607b      	str	r3, [r7, #4]

	/* xStart is used to hold a pointer to the first item in the list of free
	blocks.  The void cast is used to prevent compiler warnings. */
	xStart.pxNextFreeBlock = ( void * ) pucAlignedHeap;
 8009164:	4a1d      	ldr	r2, [pc, #116]	; (80091dc <prvHeapInit+0xb0>)
 8009166:	687b      	ldr	r3, [r7, #4]
 8009168:	6013      	str	r3, [r2, #0]
	xStart.xBlockSize = ( size_t ) 0;
 800916a:	4b1c      	ldr	r3, [pc, #112]	; (80091dc <prvHeapInit+0xb0>)
 800916c:	2200      	movs	r2, #0
 800916e:	605a      	str	r2, [r3, #4]

	/* pxEnd is used to mark the end of the list of free blocks and is inserted
	at the end of the heap space. */
	uxAddress = ( ( size_t ) pucAlignedHeap ) + xTotalHeapSize;
 8009170:	687b      	ldr	r3, [r7, #4]
 8009172:	68ba      	ldr	r2, [r7, #8]
 8009174:	4413      	add	r3, r2
 8009176:	60fb      	str	r3, [r7, #12]
	uxAddress -= xHeapStructSize;
 8009178:	2208      	movs	r2, #8
 800917a:	68fb      	ldr	r3, [r7, #12]
 800917c:	1a9b      	subs	r3, r3, r2
 800917e:	60fb      	str	r3, [r7, #12]
	uxAddress &= ~( ( size_t ) portBYTE_ALIGNMENT_MASK );
 8009180:	68fb      	ldr	r3, [r7, #12]
 8009182:	f023 0307 	bic.w	r3, r3, #7
 8009186:	60fb      	str	r3, [r7, #12]
	pxEnd = ( void * ) uxAddress;
 8009188:	68fb      	ldr	r3, [r7, #12]
 800918a:	4a15      	ldr	r2, [pc, #84]	; (80091e0 <prvHeapInit+0xb4>)
 800918c:	6013      	str	r3, [r2, #0]
	pxEnd->xBlockSize = 0;
 800918e:	4b14      	ldr	r3, [pc, #80]	; (80091e0 <prvHeapInit+0xb4>)
 8009190:	681b      	ldr	r3, [r3, #0]
 8009192:	2200      	movs	r2, #0
 8009194:	605a      	str	r2, [r3, #4]
	pxEnd->pxNextFreeBlock = NULL;
 8009196:	4b12      	ldr	r3, [pc, #72]	; (80091e0 <prvHeapInit+0xb4>)
 8009198:	681b      	ldr	r3, [r3, #0]
 800919a:	2200      	movs	r2, #0
 800919c:	601a      	str	r2, [r3, #0]

	/* To start with there is a single free block that is sized to take up the
	entire heap space, minus the space taken by pxEnd. */
	pxFirstFreeBlock = ( void * ) pucAlignedHeap;
 800919e:	687b      	ldr	r3, [r7, #4]
 80091a0:	603b      	str	r3, [r7, #0]
	pxFirstFreeBlock->xBlockSize = uxAddress - ( size_t ) pxFirstFreeBlock;
 80091a2:	683b      	ldr	r3, [r7, #0]
 80091a4:	68fa      	ldr	r2, [r7, #12]
 80091a6:	1ad2      	subs	r2, r2, r3
 80091a8:	683b      	ldr	r3, [r7, #0]
 80091aa:	605a      	str	r2, [r3, #4]
	pxFirstFreeBlock->pxNextFreeBlock = pxEnd;
 80091ac:	4b0c      	ldr	r3, [pc, #48]	; (80091e0 <prvHeapInit+0xb4>)
 80091ae:	681a      	ldr	r2, [r3, #0]
 80091b0:	683b      	ldr	r3, [r7, #0]
 80091b2:	601a      	str	r2, [r3, #0]

	/* Only one block exists - and it covers the entire usable heap space. */
	xMinimumEverFreeBytesRemaining = pxFirstFreeBlock->xBlockSize;
 80091b4:	683b      	ldr	r3, [r7, #0]
 80091b6:	685b      	ldr	r3, [r3, #4]
 80091b8:	4a0a      	ldr	r2, [pc, #40]	; (80091e4 <prvHeapInit+0xb8>)
 80091ba:	6013      	str	r3, [r2, #0]
	xFreeBytesRemaining = pxFirstFreeBlock->xBlockSize;
 80091bc:	683b      	ldr	r3, [r7, #0]
 80091be:	685b      	ldr	r3, [r3, #4]
 80091c0:	4a09      	ldr	r2, [pc, #36]	; (80091e8 <prvHeapInit+0xbc>)
 80091c2:	6013      	str	r3, [r2, #0]

	/* Work out the position of the top bit in a size_t variable. */
	xBlockAllocatedBit = ( ( size_t ) 1 ) << ( ( sizeof( size_t ) * heapBITS_PER_BYTE ) - 1 );
 80091c4:	4b09      	ldr	r3, [pc, #36]	; (80091ec <prvHeapInit+0xc0>)
 80091c6:	f04f 4200 	mov.w	r2, #2147483648	; 0x80000000
 80091ca:	601a      	str	r2, [r3, #0]
}
 80091cc:	bf00      	nop
 80091ce:	3714      	adds	r7, #20
 80091d0:	46bd      	mov	sp, r7
 80091d2:	bc80      	pop	{r7}
 80091d4:	4770      	bx	lr
 80091d6:	bf00      	nop
 80091d8:	20000d1c 	.word	0x20000d1c
 80091dc:	2000451c 	.word	0x2000451c
 80091e0:	20004524 	.word	0x20004524
 80091e4:	2000452c 	.word	0x2000452c
 80091e8:	20004528 	.word	0x20004528
 80091ec:	20004530 	.word	0x20004530

080091f0 <prvInsertBlockIntoFreeList>:
/*-----------------------------------------------------------*/

static void prvInsertBlockIntoFreeList( BlockLink_t *pxBlockToInsert )
{
 80091f0:	b480      	push	{r7}
 80091f2:	b085      	sub	sp, #20
 80091f4:	af00      	add	r7, sp, #0
 80091f6:	6078      	str	r0, [r7, #4]
BlockLink_t *pxIterator;
uint8_t *puc;

	/* Iterate through the list until a block is found that has a higher address
	than the block being inserted. */
	for( pxIterator = &xStart; pxIterator->pxNextFreeBlock < pxBlockToInsert; pxIterator = pxIterator->pxNextFreeBlock )
 80091f8:	4b27      	ldr	r3, [pc, #156]	; (8009298 <prvInsertBlockIntoFreeList+0xa8>)
 80091fa:	60fb      	str	r3, [r7, #12]
 80091fc:	e002      	b.n	8009204 <prvInsertBlockIntoFreeList+0x14>
 80091fe:	68fb      	ldr	r3, [r7, #12]
 8009200:	681b      	ldr	r3, [r3, #0]
 8009202:	60fb      	str	r3, [r7, #12]
 8009204:	68fb      	ldr	r3, [r7, #12]
 8009206:	681b      	ldr	r3, [r3, #0]
 8009208:	687a      	ldr	r2, [r7, #4]
 800920a:	429a      	cmp	r2, r3
 800920c:	d8f7      	bhi.n	80091fe <prvInsertBlockIntoFreeList+0xe>
		/* Nothing to do here, just iterate to the right position. */
	}

	/* Do the block being inserted, and the block it is being inserted after
	make a contiguous block of memory? */
	puc = ( uint8_t * ) pxIterator;
 800920e:	68fb      	ldr	r3, [r7, #12]
 8009210:	60bb      	str	r3, [r7, #8]
	if( ( puc + pxIterator->xBlockSize ) == ( uint8_t * ) pxBlockToInsert )
 8009212:	68fb      	ldr	r3, [r7, #12]
 8009214:	685b      	ldr	r3, [r3, #4]
 8009216:	68ba      	ldr	r2, [r7, #8]
 8009218:	4413      	add	r3, r2
 800921a:	687a      	ldr	r2, [r7, #4]
 800921c:	429a      	cmp	r2, r3
 800921e:	d108      	bne.n	8009232 <prvInsertBlockIntoFreeList+0x42>
	{
		pxIterator->xBlockSize += pxBlockToInsert->xBlockSize;
 8009220:	68fb      	ldr	r3, [r7, #12]
 8009222:	685a      	ldr	r2, [r3, #4]
 8009224:	687b      	ldr	r3, [r7, #4]
 8009226:	685b      	ldr	r3, [r3, #4]
 8009228:	441a      	add	r2, r3
 800922a:	68fb      	ldr	r3, [r7, #12]
 800922c:	605a      	str	r2, [r3, #4]
		pxBlockToInsert = pxIterator;
 800922e:	68fb      	ldr	r3, [r7, #12]
 8009230:	607b      	str	r3, [r7, #4]
		mtCOVERAGE_TEST_MARKER();
	}

	/* Do the block being inserted, and the block it is being inserted before
	make a contiguous block of memory? */
	puc = ( uint8_t * ) pxBlockToInsert;
 8009232:	687b      	ldr	r3, [r7, #4]
 8009234:	60bb      	str	r3, [r7, #8]
	if( ( puc + pxBlockToInsert->xBlockSize ) == ( uint8_t * ) pxIterator->pxNextFreeBlock )
 8009236:	687b      	ldr	r3, [r7, #4]
 8009238:	685b      	ldr	r3, [r3, #4]
 800923a:	68ba      	ldr	r2, [r7, #8]
 800923c:	441a      	add	r2, r3
 800923e:	68fb      	ldr	r3, [r7, #12]
 8009240:	681b      	ldr	r3, [r3, #0]
 8009242:	429a      	cmp	r2, r3
 8009244:	d118      	bne.n	8009278 <prvInsertBlockIntoFreeList+0x88>
	{
		if( pxIterator->pxNextFreeBlock != pxEnd )
 8009246:	68fb      	ldr	r3, [r7, #12]
 8009248:	681a      	ldr	r2, [r3, #0]
 800924a:	4b14      	ldr	r3, [pc, #80]	; (800929c <prvInsertBlockIntoFreeList+0xac>)
 800924c:	681b      	ldr	r3, [r3, #0]
 800924e:	429a      	cmp	r2, r3
 8009250:	d00d      	beq.n	800926e <prvInsertBlockIntoFreeList+0x7e>
		{
			/* Form one big block from the two blocks. */
			pxBlockToInsert->xBlockSize += pxIterator->pxNextFreeBlock->xBlockSize;
 8009252:	687b      	ldr	r3, [r7, #4]
 8009254:	685a      	ldr	r2, [r3, #4]
 8009256:	68fb      	ldr	r3, [r7, #12]
 8009258:	681b      	ldr	r3, [r3, #0]
 800925a:	685b      	ldr	r3, [r3, #4]
 800925c:	441a      	add	r2, r3
 800925e:	687b      	ldr	r3, [r7, #4]
 8009260:	605a      	str	r2, [r3, #4]
			pxBlockToInsert->pxNextFreeBlock = pxIterator->pxNextFreeBlock->pxNextFreeBlock;
 8009262:	68fb      	ldr	r3, [r7, #12]
 8009264:	681b      	ldr	r3, [r3, #0]
 8009266:	681a      	ldr	r2, [r3, #0]
 8009268:	687b      	ldr	r3, [r7, #4]
 800926a:	601a      	str	r2, [r3, #0]
 800926c:	e008      	b.n	8009280 <prvInsertBlockIntoFreeList+0x90>
		}
		else
		{
			pxBlockToInsert->pxNextFreeBlock = pxEnd;
 800926e:	4b0b      	ldr	r3, [pc, #44]	; (800929c <prvInsertBlockIntoFreeList+0xac>)
 8009270:	681a      	ldr	r2, [r3, #0]
 8009272:	687b      	ldr	r3, [r7, #4]
 8009274:	601a      	str	r2, [r3, #0]
 8009276:	e003      	b.n	8009280 <prvInsertBlockIntoFreeList+0x90>
		}
	}
	else
	{
		pxBlockToInsert->pxNextFreeBlock = pxIterator->pxNextFreeBlock;
 8009278:	68fb      	ldr	r3, [r7, #12]
 800927a:	681a      	ldr	r2, [r3, #0]
 800927c:	687b      	ldr	r3, [r7, #4]
 800927e:	601a      	str	r2, [r3, #0]

	/* If the block being inserted plugged a gab, so was merged with the block
	before and the block after, then it's pxNextFreeBlock pointer will have
	already been set, and should not be set here as that would make it point
	to itself. */
	if( pxIterator != pxBlockToInsert )
 8009280:	68fa      	ldr	r2, [r7, #12]
 8009282:	687b      	ldr	r3, [r7, #4]
 8009284:	429a      	cmp	r2, r3
 8009286:	d002      	beq.n	800928e <prvInsertBlockIntoFreeList+0x9e>
	{
		pxIterator->pxNextFreeBlock = pxBlockToInsert;
 8009288:	68fb      	ldr	r3, [r7, #12]
 800928a:	687a      	ldr	r2, [r7, #4]
 800928c:	601a      	str	r2, [r3, #0]
	}
	else
	{
		mtCOVERAGE_TEST_MARKER();
	}
}
 800928e:	bf00      	nop
 8009290:	3714      	adds	r7, #20
 8009292:	46bd      	mov	sp, r7
 8009294:	bc80      	pop	{r7}
 8009296:	4770      	bx	lr
 8009298:	2000451c 	.word	0x2000451c
 800929c:	20004524 	.word	0x20004524

080092a0 <__libc_init_array>:
 80092a0:	b570      	push	{r4, r5, r6, lr}
 80092a2:	2600      	movs	r6, #0
 80092a4:	4d0c      	ldr	r5, [pc, #48]	; (80092d8 <__libc_init_array+0x38>)
 80092a6:	4c0d      	ldr	r4, [pc, #52]	; (80092dc <__libc_init_array+0x3c>)
 80092a8:	1b64      	subs	r4, r4, r5
 80092aa:	10a4      	asrs	r4, r4, #2
 80092ac:	42a6      	cmp	r6, r4
 80092ae:	d109      	bne.n	80092c4 <__libc_init_array+0x24>
 80092b0:	f000 f830 	bl	8009314 <_init>
 80092b4:	2600      	movs	r6, #0
 80092b6:	4d0a      	ldr	r5, [pc, #40]	; (80092e0 <__libc_init_array+0x40>)
 80092b8:	4c0a      	ldr	r4, [pc, #40]	; (80092e4 <__libc_init_array+0x44>)
 80092ba:	1b64      	subs	r4, r4, r5
 80092bc:	10a4      	asrs	r4, r4, #2
 80092be:	42a6      	cmp	r6, r4
 80092c0:	d105      	bne.n	80092ce <__libc_init_array+0x2e>
 80092c2:	bd70      	pop	{r4, r5, r6, pc}
 80092c4:	f855 3b04 	ldr.w	r3, [r5], #4
 80092c8:	4798      	blx	r3
 80092ca:	3601      	adds	r6, #1
 80092cc:	e7ee      	b.n	80092ac <__libc_init_array+0xc>
 80092ce:	f855 3b04 	ldr.w	r3, [r5], #4
 80092d2:	4798      	blx	r3
 80092d4:	3601      	adds	r6, #1
 80092d6:	e7f2      	b.n	80092be <__libc_init_array+0x1e>
 80092d8:	08009414 	.word	0x08009414
 80092dc:	08009414 	.word	0x08009414
 80092e0:	08009414 	.word	0x08009414
 80092e4:	08009418 	.word	0x08009418

080092e8 <memcpy>:
 80092e8:	440a      	add	r2, r1
 80092ea:	4291      	cmp	r1, r2
 80092ec:	f100 33ff 	add.w	r3, r0, #4294967295
 80092f0:	d100      	bne.n	80092f4 <memcpy+0xc>
 80092f2:	4770      	bx	lr
 80092f4:	b510      	push	{r4, lr}
 80092f6:	f811 4b01 	ldrb.w	r4, [r1], #1
 80092fa:	4291      	cmp	r1, r2
 80092fc:	f803 4f01 	strb.w	r4, [r3, #1]!
 8009300:	d1f9      	bne.n	80092f6 <memcpy+0xe>
 8009302:	bd10      	pop	{r4, pc}

08009304 <memset>:
 8009304:	4603      	mov	r3, r0
 8009306:	4402      	add	r2, r0
 8009308:	4293      	cmp	r3, r2
 800930a:	d100      	bne.n	800930e <memset+0xa>
 800930c:	4770      	bx	lr
 800930e:	f803 1b01 	strb.w	r1, [r3], #1
 8009312:	e7f9      	b.n	8009308 <memset+0x4>

08009314 <_init>:
 8009314:	b5f8      	push	{r3, r4, r5, r6, r7, lr}
 8009316:	bf00      	nop
 8009318:	bcf8      	pop	{r3, r4, r5, r6, r7}
 800931a:	bc08      	pop	{r3}
 800931c:	469e      	mov	lr, r3
 800931e:	4770      	bx	lr

08009320 <_fini>:
 8009320:	b5f8      	push	{r3, r4, r5, r6, r7, lr}
 8009322:	bf00      	nop
 8009324:	bcf8      	pop	{r3, r4, r5, r6, r7}
 8009326:	bc08      	pop	{r3}
 8009328:	469e      	mov	lr, r3
 800932a:	4770      	bx	lr
